
 Start         Length     Name                   Class
 0001:00000000 0005F9ECH .text                   CODE
 0002:00000000 00001828H .data                   DATA
 0002:00001828 00002CCDH .bss                    BSS


Detailed map of segments

 0001:00000000 0000557B C=CODE     S=.text    G=(none)   M=System   ACBP=A9
 0001:0000557C 000001CC C=CODE     S=.text    G=(none)   M=SysInit  ACBP=A9
 0001:00005748 00000038 C=CODE     S=.text    G=(none)   M=Types    ACBP=A9
 0001:00005780 00000454 C=CODE     S=.text    G=(none)   M=Windows  ACBP=A9
 0001:00005BD4 00000038 C=CODE     S=.text    G=(none)   M=Messages ACBP=A9
 0001:00005C0C 00000348 C=CODE     S=.text    G=(none)   M=SysConst ACBP=A9
 0001:00005F54 000085B4 C=CODE     S=.text    G=(none)   M=SysUtils ACBP=A9
 0001:0000E508 00000887 C=CODE     S=.text    G=(none)   M=VarUtils ACBP=A9
 0001:0000ED90 00002A42 C=CODE     S=.text    G=(none)   M=Variants ACBP=A9
 0001:000117D4 00000128 C=CODE     S=.text    G=(none)   M=RTLConsts ACBP=A9
 0001:000118FC 00000A10 C=CODE     S=.text    G=(none)   M=TypInfo  ACBP=A9
 0001:0001230C 00000038 C=CODE     S=.text    G=(none)   M=ActiveX  ACBP=A9
 0001:00012344 000089F2 C=CODE     S=.text    G=(none)   M=Classes  ACBP=A9
 0001:0001AD38 000003DC C=CODE     S=.text    G=(none)   M=ListsU   ACBP=A9
 0001:0001B114 00000050 C=CODE     S=.text    G=(none)   M=MMSystem ACBP=A9
 0001:0001B164 00000420 C=CODE     S=.text    G=(none)   M=SyncObjs ACBP=A9
 0001:0001B584 00001AD4 C=CODE     S=.text    G=(none)   M=GPHugeF  ACBP=A9
 0001:0001D058 00000038 C=CODE     S=.text    G=(none)   M=Consts   ACBP=A9
 0001:0001D090 00000740 C=CODE     S=.text    G=(none)   M=textdata ACBP=A9
 0001:0001D7D0 00000168 C=CODE     S=.text    G=(none)   M=Math     ACBP=A9
 0001:0001D938 000001DC C=CODE     S=.text    G=(none)   M=Contnrs  ACBP=A9
 0001:0001DB14 00000FA0 C=CODE     S=.text    G=(none)   M=uDebug   ACBP=A9
 0001:0001EAB4 00000060 C=CODE     S=.text    G=(none)   M=FreeListU ACBP=A9
 0001:0001EB14 00000A80 C=CODE     S=.text    G=(none)   M=logging  ACBP=A9
 0001:0001F594 00000040 C=CODE     S=.text    G=(none)   M=SHFolder ACBP=A9
 0001:0001F5D4 00000CA0 C=CODE     S=.text    G=(none)   M=TADemoConsts ACBP=A9
 0001:00020274 00000330 C=CODE     S=.text    G=(none)   M=TextFileU ACBP=A9
 0001:000205A4 000019A4 C=CODE     S=.text    G=(none)   M=DPlay    ACBP=A9
 0001:00021F48 00000124 C=CODE     S=.text    G=(none)   M=DPLobby  ACBP=A9
 0001:0002206C 0000061C C=CODE     S=.text    G=(none)   M=CommandHandlerU ACBP=A9
 0001:00022688 00000060 C=CODE     S=.text    G=(none)   M=DateUtils ACBP=A9
 0001:000226E8 000001FC C=CODE     S=.text    G=(none)   M=StopWatch ACBP=A9
 0001:000228E4 000002B8 C=CODE     S=.text    G=(none)   M=ConsoleTimer ACBP=A9
 0001:00022B9C 00000488 C=CODE     S=.text    G=(none)   M=MemMappedDataStructure ACBP=A9
 0001:00023024 00000068 C=CODE     S=.text    G=(none)   M=PacketBufferU ACBP=A9
 0001:0002308C 00000388 C=CODE     S=.text    G=(none)   M=log2     ACBP=A9
 0001:00023414 00001418 C=CODE     S=.text    G=(none)   M=PluginEngine ACBP=A9
 0001:0002482C 00000280 C=CODE     S=.text    G=(none)   M=TA_MemoryStructures ACBP=A9
 0001:00024AAC 000000D8 C=CODE     S=.text    G=(none)   M=TA_FunctionsU ACBP=A9
 0001:00024B84 00000038 C=CODE     S=.text    G=(none)   M=TA_MemoryConstants ACBP=A9
 0001:00024BBC 000011B0 C=CODE     S=.text    G=(none)   M=IniFiles ACBP=A9
 0001:00025D6C 00000E10 C=CODE     S=.text    G=(none)   M=Registry ACBP=A9
 0001:00026B7C 000017CC C=CODE     S=.text    G=(none)   M=packet_old ACBP=A9
 0001:00028348 000001EC C=CODE     S=.text    G=(none)   M=PluginCommandHandlerU ACBP=A9
 0001:00028534 00000258 C=CODE     S=.text    G=(none)   M=InputHook ACBP=A9
 0001:0002878C 0000028C C=CODE     S=.text    G=(none)   M=LOS_Radar ACBP=A9
 0001:00028A18 000000CC C=CODE     S=.text    G=(none)   M=LOS_MiniMapUnits ACBP=A9
 0001:00028AE4 00000140 C=CODE     S=.text    G=(none)   M=LOS_PlayerSeeUnit ACBP=A9
 0001:00028C24 000001B0 C=CODE     S=.text    G=(none)   M=LOS_GUIText ACBP=A9
 0001:00028DD4 00000354 C=CODE     S=.text    G=(none)   M=LOS_UpdateTables ACBP=A9
 0001:00029128 0000017C C=CODE     S=.text    G=(none)   M=LOS_AllyPlayer ACBP=A9
 0001:000292A4 00000150 C=CODE     S=.text    G=(none)   M=LOS_extensions ACBP=A9
 0001:000293F4 00000208 C=CODE     S=.text    G=(none)   M=SpeedHack ACBP=A9
 0001:000295FC 00000038 C=CODE     S=.text    G=(none)   M=TA_NetworkingMessages ACBP=A9
 0001:00029634 00000038 C=CODE     S=.text    G=(none)   M=SynLZ    ACBP=A9
 0001:0002966C 000020DC C=CODE     S=.text    G=(none)   M=SynCommons ACBP=A9
 0001:0002B748 00002424 C=CODE     S=.text    G=(none)   M=COB_extensions ACBP=A9
 0001:0002DB6C 000006F0 C=CODE     S=.text    G=(none)   M=DropUnitsWeaponsList ACBP=A9
 0001:0002E25C 00000AEC C=CODE     S=.text    G=(none)   M=KeyboardHook ACBP=A9
 0001:0002ED48 0001645C C=CODE     S=.text    G=(none)   M=idplay   ACBP=A9
 0001:000451A4 0000041C C=CODE     S=.text    G=(none)   M=ModsList ACBP=A9
 0001:000455C0 000000B0 C=CODE     S=.text    G=(none)   M=StrUtils ACBP=A9
 0001:00045670 000015EC C=CODE     S=.text    G=(none)   M=IniOptions ACBP=A9
 0001:00046C5C 00000738 C=CODE     S=.text    G=(none)   M=ExplodeBitmaps ACBP=A9
 0001:00047394 0000596C C=CODE     S=.text    G=(none)   M=TA_MemoryLocations ACBP=A9
 0001:0004CD00 00000FF4 C=CODE     S=.text    G=(none)   M=StatsLogging ACBP=A9
 0001:0004DCF4 000001AC C=CODE     S=.text    G=(none)   M=IdException ACBP=A9
 0001:0004DEA0 000001E8 C=CODE     S=.text    G=(none)   M=IdResourceStrings ACBP=A9
 0001:0004E088 0000117F C=CODE     S=.text    G=(none)   M=IdWinSock2 ACBP=A9
 0001:0004F208 00000038 C=CODE     S=.text    G=(none)   M=IdStackConsts ACBP=A9
 0001:0004F240 000008C8 C=CODE     S=.text    G=(none)   M=IdStack  ACBP=A9
 0001:0004FB08 0000145C C=CODE     S=.text    G=(none)   M=IdStackWindows ACBP=A9
 0001:00050F64 00000038 C=CODE     S=.text    G=(none)   M=IdURI    ACBP=A9
 0001:00050F9C 00000750 C=CODE     S=.text    G=(none)   M=IdGlobal ACBP=A9
 0001:000516EC 00000038 C=CODE     S=.text    G=(none)   M=IdMultipartFormData ACBP=A9
 0001:00051724 00000038 C=CODE     S=.text    G=(none)   M=IdAssignedNumbers ACBP=A9
 0001:0005175C 00000ABC C=CODE     S=.text    G=(none)   M=IdHeaderList ACBP=A9
 0001:00052218 000000FC C=CODE     S=.text    G=(none)   M=IdBaseComponent ACBP=A9
 0001:00052314 0000026C C=CODE     S=.text    G=(none)   M=IdCoder  ACBP=A9
 0001:00052580 0000073C C=CODE     S=.text    G=(none)   M=IdCoder3to4 ACBP=A9
 0001:00052CBC 000001C7 C=CODE     S=.text    G=(none)   M=IdCoderMIME ACBP=A9
 0001:00052E84 00000984 C=CODE     S=.text    G=(none)   M=IdAuthentication ACBP=A9
 0001:00053808 00000038 C=CODE     S=.text    G=(none)   M=IdHTTPHeaderInfo ACBP=A9
 0001:00053840 00000038 C=CODE     S=.text    G=(none)   M=IdAntiFreezeBase ACBP=A9
 0001:00053878 000000BD C=CODE     S=.text    G=(none)   M=IdComponent ACBP=A9
 0001:00053938 00000038 C=CODE     S=.text    G=(none)   M=IdSocketHandle ACBP=A9
 0001:00053970 0000009C C=CODE     S=.text    G=(none)   M=IdSSLOpenSSLHeaders ACBP=A9
 0001:00053A0C 00000038 C=CODE     S=.text    G=(none)   M=IdIOHandler ACBP=A9
 0001:00053A44 00000038 C=CODE     S=.text    G=(none)   M=IdIntercept ACBP=A9
 0001:00053A7C 00000038 C=CODE     S=.text    G=(none)   M=IdRFCReply ACBP=A9
 0001:00053AB4 00000038 C=CODE     S=.text    G=(none)   M=IdSocks  ACBP=A9
 0001:00053AEC 00000038 C=CODE     S=.text    G=(none)   M=IdTCPStream ACBP=A9
 0001:00053B24 00000038 C=CODE     S=.text    G=(none)   M=IdStream ACBP=A9
 0001:00053B5C 00000038 C=CODE     S=.text    G=(none)   M=IdIOHandlerSocket ACBP=A9
 0001:00053B94 00000038 C=CODE     S=.text    G=(none)   M=IdTCPConnection ACBP=A9
 0001:00053BCC 00000038 C=CODE     S=.text    G=(none)   M=IdThread ACBP=A9
 0001:00053C04 00000038 C=CODE     S=.text    G=(none)   M=IdThreadMgrDefault ACBP=A9
 0001:00053C3C 00000038 C=CODE     S=.text    G=(none)   M=IdServerIOHandler ACBP=A9
 0001:00053C74 00000038 C=CODE     S=.text    G=(none)   M=IdServerIOHandlerSocket ACBP=A9
 0001:00053CAC 00000038 C=CODE     S=.text    G=(none)   M=IdStrings ACBP=A9
 0001:00053CE4 00000038 C=CODE     S=.text    G=(none)   M=IdThreadSafe ACBP=A9
 0001:00053D1C 00000038 C=CODE     S=.text    G=(none)   M=IdThreadMgr ACBP=A9
 0001:00053D54 00000038 C=CODE     S=.text    G=(none)   M=IdTCPServer ACBP=A9
 0001:00053D8C 0000006C C=CODE     S=.text    G=(none)   M=IdSSLOpenSSL ACBP=A9
 0001:00053DF8 00000038 C=CODE     S=.text    G=(none)   M=IdTCPClient ACBP=A9
 0001:00053E30 00000148 C=CODE     S=.text    G=(none)   M=IdCookie ACBP=A9
 0001:00053F78 00000038 C=CODE     S=.text    G=(none)   M=IdCookieManager ACBP=A9
 0001:00053FB0 00000038 C=CODE     S=.text    G=(none)   M=IdAuthenticationManager ACBP=A9
 0001:00053FE8 00000068 C=CODE     S=.text    G=(none)   M=IdHTTP   ACBP=A9
 0001:00054050 000007B8 C=CODE     S=.text    G=(none)   M=TAMemManipulations ACBP=A9
 0001:00054808 0000138C C=CODE     S=.text    G=(none)   M=PlayerDataU ACBP=A9
 0001:00055B94 0000157C C=CODE     S=.text    G=(none)   M=DPLobbyWrapper ACBP=A9
 0001:00057110 00000B78 C=CODE     S=.text    G=(none)   M=Dplayx_exports ACBP=A9
 0001:00057C88 00000394 C=CODE     S=.text    G=(none)   M=TlHelp32 ACBP=A9
 0001:0005801C 000005B4 C=CODE     S=.text    G=(none)   M=ErrorLog_ExtraData ACBP=A9
 0001:000585D0 0000009C C=CODE     S=.text    G=(none)   M=Thread_marshaller ACBP=A9
 0001:0005866C 00000360 C=CODE     S=.text    G=(none)   M=RegPathFix ACBP=A9
 0001:000589CC 00000138 C=CODE     S=.text    G=(none)   M=PauseLock ACBP=A9
 0001:00058B04 000001D8 C=CODE     S=.text    G=(none)   M=UnitLimit ACBP=A9
 0001:00058CDC 000001D8 C=CODE     S=.text    G=(none)   M=MultiAILimit ACBP=A9
 0001:00058EB4 00000370 C=CODE     S=.text    G=(none)   M=WeaponsExtend ACBP=A9
 0001:00059224 000005F4 C=CODE     S=.text    G=(none)   M=UnitsExtend ACBP=A9
 0001:00059818 000002EC C=CODE     S=.text    G=(none)   M=Builders ACBP=A9
 0001:00059B04 00000638 C=CODE     S=.text    G=(none)   M=ScriptCallsExtend ACBP=A9
 0001:0005A13C 00000390 C=CODE     S=.text    G=(none)   M=ResurrectPatrol ACBP=A9
 0001:0005A4CC 0000048C C=CODE     S=.text    G=(none)   M=UnitActions ACBP=A9
 0001:0005A958 0000057C C=CODE     S=.text    G=(none)   M=WeaponAimNTrajectory ACBP=A9
 0001:0005AED4 00000748 C=CODE     S=.text    G=(none)   M=TAExceptionsLog ACBP=A9
 0001:0005B61C 00000514 C=CODE     S=.text    G=(none)   M=Colors   ACBP=A9
 0001:0005BB30 0000035C C=CODE     S=.text    G=(none)   M=ClockPosition ACBP=A9
 0001:0005BE8C 00002C88 C=CODE     S=.text    G=(none)   M=GUIEnhancements ACBP=A9
 0001:0005EB14 000001AC C=CODE     S=.text    G=(none)   M=BattlerRoomMemFix ACBP=A9
 0001:0005ECC0 00000194 C=CODE     S=.text    G=(none)   M=Plugins  ACBP=A9
 0001:0005EE54 0000051C C=CODE     S=.text    G=(none)   M=InitCode ACBP=A9
 0001:0005F370 00000134 C=CODE     S=.text    G=(none)   M=InitCode_CoreExePatching ACBP=A9
 0001:0005F4A4 00000038 C=CODE     S=.text    G=(none)   M=threadlogging ACBP=A9
 0001:0005F4DC 00000038 C=CODE     S=.text    G=(none)   M=StartBuilding ACBP=A9
 0001:0005F514 00000038 C=CODE     S=.text    G=(none)   M=KillDamage ACBP=A9
 0001:0005F54C 0000049D C=CODE     S=.text    G=(none)   M=dplayx   ACBP=A9
 0002:00000000 000000A4 C=DATA     S=.data    G=DGROUP   M=System   ACBP=A9
 0002:000000A4 00000030 C=DATA     S=.data    G=DGROUP   M=SysInit  ACBP=A9
 0002:000000D4 00000250 C=DATA     S=.data    G=DGROUP   M=SysUtils ACBP=A9
 0002:00000324 00000008 C=DATA     S=.data    G=DGROUP   M=VarUtils ACBP=A9
 0002:0000032C 0000008E C=DATA     S=.data    G=DGROUP   M=Variants ACBP=A9
 0002:000003BC 0000000C C=DATA     S=.data    G=DGROUP   M=TypInfo  ACBP=A9
 0002:000003C8 00000094 C=DATA     S=.data    G=DGROUP   M=Classes  ACBP=A9
 0002:0000045C 00000020 C=DATA     S=.data    G=DGROUP   M=GPHugeF  ACBP=A9
 0002:0000047C 00000400 C=DATA     S=.data    G=DGROUP   M=textdata ACBP=A9
 0002:0000087C 00000004 C=DATA     S=.data    G=DGROUP   M=uDebug   ACBP=A9
 0002:00000880 00000004 C=DATA     S=.data    G=DGROUP   M=logging  ACBP=A9
 0002:00000884 00000049 C=DATA     S=.data    G=DGROUP   M=TADemoConsts ACBP=A9
 0002:000008D0 00000020 C=DATA     S=.data    G=DGROUP   M=DPlay    ACBP=A9
 0002:000008F0 00000010 C=DATA     S=.data    G=DGROUP   M=DPLobby  ACBP=A9
 0002:00000900 0000003C C=DATA     S=.data    G=DGROUP   M=MemMappedDataStructure ACBP=A9
 0002:0000093C 00000014 C=DATA     S=.data    G=DGROUP   M=TA_MemoryStructures ACBP=A9
 0002:00000950 00000114 C=DATA     S=.data    G=DGROUP   M=TA_FunctionsU ACBP=A9
 0002:00000A64 00000008 C=DATA     S=.data    G=DGROUP   M=IniFiles ACBP=A9
 0002:00000A6C 00000008 C=DATA     S=.data    G=DGROUP   M=Registry ACBP=A9
 0002:00000A74 00000005 C=DATA     S=.data    G=DGROUP   M=packet_old ACBP=A9
 0002:00000A7C 0000000A C=DATA     S=.data    G=DGROUP   M=SpeedHack ACBP=A9
 0002:00000A88 00000099 C=DATA     S=.data    G=DGROUP   M=SynCommons ACBP=A9
 0002:00000B24 00000001 C=DATA     S=.data    G=DGROUP   M=COB_extensions ACBP=A9
 0002:00000B28 00000001 C=DATA     S=.data    G=DGROUP   M=KeyboardHook ACBP=A9
 0002:00000B2C 00000004 C=DATA     S=.data    G=DGROUP   M=idplay   ACBP=A9
 0002:00000B30 00000001 C=DATA     S=.data    G=DGROUP   M=IniOptions ACBP=A9
 0002:00000B34 00000040 C=DATA     S=.data    G=DGROUP   M=ExplodeBitmaps ACBP=A9
 0002:00000B74 00000007 C=DATA     S=.data    G=DGROUP   M=TA_MemoryLocations ACBP=A9
 0002:00000B7C 00000008 C=DATA     S=.data    G=DGROUP   M=StatsLogging ACBP=A9
 0002:00000B84 00000544 C=DATA     S=.data    G=DGROUP   M=IdWinSock2 ACBP=A9
 0002:000010C8 00000008 C=DATA     S=.data    G=DGROUP   M=IdStack  ACBP=A9
 0002:000010D0 00000001 C=DATA     S=.data    G=DGROUP   M=IdStackWindows ACBP=A9
 0002:000010D4 0000009C C=DATA     S=.data    G=DGROUP   M=IdGlobal ACBP=A9
 0002:00001170 00000004 C=DATA     S=.data    G=DGROUP   M=IdCoderMIME ACBP=A9
 0002:00001174 00000004 C=DATA     S=.data    G=DGROUP   M=IdAuthentication ACBP=A9
 0002:00001178 00000024 C=DATA     S=.data    G=DGROUP   M=IdComponent ACBP=A9
 0002:0000119C 0000000C C=DATA     S=.data    G=DGROUP   M=IdSSLOpenSSLHeaders ACBP=A9
 0002:000011A8 0000004C C=DATA     S=.data    G=DGROUP   M=IdCookie ACBP=A9
 0002:000011F4 00000008 C=DATA     S=.data    G=DGROUP   M=IdHTTP   ACBP=A9
 0002:000011FC 00000004 C=DATA     S=.data    G=DGROUP   M=Dplayx_exports ACBP=A9
 0002:00001200 00000001 C=DATA     S=.data    G=DGROUP   M=RegPathFix ACBP=A9
 0002:00001204 00000008 C=DATA     S=.data    G=DGROUP   M=PauseLock ACBP=A9
 0002:0000120C 00000005 C=DATA     S=.data    G=DGROUP   M=UnitLimit ACBP=A9
 0002:00001214 00000008 C=DATA     S=.data    G=DGROUP   M=MultiAILimit ACBP=A9
 0002:0000121C 00000014 C=DATA     S=.data    G=DGROUP   M=WeaponsExtend ACBP=A9
 0002:00001230 00000020 C=DATA     S=.data    G=DGROUP   M=UnitsExtend ACBP=A9
 0002:00001250 00000001 C=DATA     S=.data    G=DGROUP   M=Builders ACBP=A9
 0002:00001254 00000001 C=DATA     S=.data    G=DGROUP   M=ScriptCallsExtend ACBP=A9
 0002:00001258 00000001 C=DATA     S=.data    G=DGROUP   M=ResurrectPatrol ACBP=A9
 0002:0000125C 00000001 C=DATA     S=.data    G=DGROUP   M=UnitActions ACBP=A9
 0002:00001260 00000001 C=DATA     S=.data    G=DGROUP   M=WeaponAimNTrajectory ACBP=A9
 0002:00001264 00000001 C=DATA     S=.data    G=DGROUP   M=TAExceptionsLog ACBP=A9
 0002:00001268 00000001 C=DATA     S=.data    G=DGROUP   M=Colors   ACBP=A9
 0002:0000126C 00000001 C=DATA     S=.data    G=DGROUP   M=ClockPosition ACBP=A9
 0002:00001270 0000001C C=DATA     S=.data    G=DGROUP   M=GUIEnhancements ACBP=A9
 0002:0000128C 00000001 C=DATA     S=.data    G=DGROUP   M=BattlerRoomMemFix ACBP=A9
 0002:00002000 0000065C C=BSS      S=.bss     G=DGROUP   M=System   ACBP=A9
 0002:0000265C 00000014 C=BSS      S=.bss     G=DGROUP   M=SysInit  ACBP=A9
 0002:00002670 00000004 C=BSS      S=.bss     G=DGROUP   M=Types    ACBP=A9
 0002:00002674 00000004 C=BSS      S=.bss     G=DGROUP   M=Windows  ACBP=A9
 0002:00002678 00000004 C=BSS      S=.bss     G=DGROUP   M=Messages ACBP=A9
 0002:0000267C 00000004 C=BSS      S=.bss     G=DGROUP   M=SysConst ACBP=A9
 0002:00002680 00000120 C=BSS      S=.bss     G=DGROUP   M=SysUtils ACBP=A9
 0002:000027A0 0000005C C=BSS      S=.bss     G=DGROUP   M=VarUtils ACBP=A9
 0002:000027FC 00000040 C=BSS      S=.bss     G=DGROUP   M=Variants ACBP=A9
 0002:0000283C 00000004 C=BSS      S=.bss     G=DGROUP   M=RTLConsts ACBP=A9
 0002:00002840 00000004 C=BSS      S=.bss     G=DGROUP   M=TypInfo  ACBP=A9
 0002:00002844 00000004 C=BSS      S=.bss     G=DGROUP   M=ActiveX  ACBP=A9
 0002:00002848 00000038 C=BSS      S=.bss     G=DGROUP   M=Classes  ACBP=A9
 0002:00002880 00000004 C=BSS      S=.bss     G=DGROUP   M=ListsU   ACBP=A9
 0002:00002884 00000004 C=BSS      S=.bss     G=DGROUP   M=MMSystem ACBP=A9
 0002:00002888 00000004 C=BSS      S=.bss     G=DGROUP   M=SyncObjs ACBP=A9
 0002:0000288C 00000004 C=BSS      S=.bss     G=DGROUP   M=GPHugeF  ACBP=A9
 0002:00002890 00000004 C=BSS      S=.bss     G=DGROUP   M=Consts   ACBP=A9
 0002:00002894 00000004 C=BSS      S=.bss     G=DGROUP   M=textdata ACBP=A9
 0002:00002898 00000004 C=BSS      S=.bss     G=DGROUP   M=Math     ACBP=A9
 0002:0000289C 00000004 C=BSS      S=.bss     G=DGROUP   M=Contnrs  ACBP=A9
 0002:000028A0 00000014 C=BSS      S=.bss     G=DGROUP   M=uDebug   ACBP=A9
 0002:000028B4 00000008 C=BSS      S=.bss     G=DGROUP   M=FreeListU ACBP=A9
 0002:000028BC 0000000C C=BSS      S=.bss     G=DGROUP   M=logging  ACBP=A9
 0002:000028C8 00000004 C=BSS      S=.bss     G=DGROUP   M=SHFolder ACBP=A9
 0002:000028CC 00000018 C=BSS      S=.bss     G=DGROUP   M=TADemoConsts ACBP=A9
 0002:000028E4 00000004 C=BSS      S=.bss     G=DGROUP   M=TextFileU ACBP=A9
 0002:000028E8 00000004 C=BSS      S=.bss     G=DGROUP   M=DPlay    ACBP=A9
 0002:000028EC 00000004 C=BSS      S=.bss     G=DGROUP   M=DPLobby  ACBP=A9
 0002:000028F0 00000004 C=BSS      S=.bss     G=DGROUP   M=CommandHandlerU ACBP=A9
 0002:000028F4 00000004 C=BSS      S=.bss     G=DGROUP   M=DateUtils ACBP=A9
 0002:000028F8 00000004 C=BSS      S=.bss     G=DGROUP   M=StopWatch ACBP=A9
 0002:000028FC 00000004 C=BSS      S=.bss     G=DGROUP   M=ConsoleTimer ACBP=A9
 0002:00002900 00000004 C=BSS      S=.bss     G=DGROUP   M=MemMappedDataStructure ACBP=A9
 0002:00002904 00000004 C=BSS      S=.bss     G=DGROUP   M=PacketBufferU ACBP=A9
 0002:00002908 00000004 C=BSS      S=.bss     G=DGROUP   M=log2     ACBP=A9
 0002:0000290C 00000008 C=BSS      S=.bss     G=DGROUP   M=PluginEngine ACBP=A9
 0002:00002914 0000171C C=BSS      S=.bss     G=DGROUP   M=TA_MemoryStructures ACBP=A9
 0002:00004030 00000004 C=BSS      S=.bss     G=DGROUP   M=TA_FunctionsU ACBP=A9
 0002:00004034 00000004 C=BSS      S=.bss     G=DGROUP   M=TA_MemoryConstants ACBP=A9
 0002:00004038 00000004 C=BSS      S=.bss     G=DGROUP   M=IniFiles ACBP=A9
 0002:0000403C 00000004 C=BSS      S=.bss     G=DGROUP   M=Registry ACBP=A9
 0002:00004040 00000004 C=BSS      S=.bss     G=DGROUP   M=packet_old ACBP=A9
 0002:00004044 00000004 C=BSS      S=.bss     G=DGROUP   M=PluginCommandHandlerU ACBP=A9
 0002:00004048 00000008 C=BSS      S=.bss     G=DGROUP   M=InputHook ACBP=A9
 0002:00004050 00000014 C=BSS      S=.bss     G=DGROUP   M=LOS_Radar ACBP=A9
 0002:00004064 00000004 C=BSS      S=.bss     G=DGROUP   M=LOS_MiniMapUnits ACBP=A9
 0002:00004068 00000014 C=BSS      S=.bss     G=DGROUP   M=LOS_PlayerSeeUnit ACBP=A9
 0002:0000407C 00000004 C=BSS      S=.bss     G=DGROUP   M=LOS_GUIText ACBP=A9
 0002:00004080 00000010 C=BSS      S=.bss     G=DGROUP   M=LOS_UpdateTables ACBP=A9
 0002:00004090 00000008 C=BSS      S=.bss     G=DGROUP   M=LOS_AllyPlayer ACBP=A9
 0002:00004098 00000008 C=BSS      S=.bss     G=DGROUP   M=LOS_extensions ACBP=A9
 0002:000040A0 00000004 C=BSS      S=.bss     G=DGROUP   M=SpeedHack ACBP=A9
 0002:000040A4 00000004 C=BSS      S=.bss     G=DGROUP   M=TA_NetworkingMessages ACBP=A9
 0002:000040A8 00000004 C=BSS      S=.bss     G=DGROUP   M=SynLZ    ACBP=A9
 0002:000040AC 000005C0 C=BSS      S=.bss     G=DGROUP   M=SynCommons ACBP=A9
 0002:0000466C 00000094 C=BSS      S=.bss     G=DGROUP   M=COB_extensions ACBP=A9
 0002:00004700 00000004 C=BSS      S=.bss     G=DGROUP   M=DropUnitsWeaponsList ACBP=A9
 0002:00004704 00000010 C=BSS      S=.bss     G=DGROUP   M=KeyboardHook ACBP=A9
 0002:00004714 00000010 C=BSS      S=.bss     G=DGROUP   M=idplay   ACBP=A9
 0002:00004724 00000004 C=BSS      S=.bss     G=DGROUP   M=ModsList ACBP=A9
 0002:00004728 00000004 C=BSS      S=.bss     G=DGROUP   M=StrUtils ACBP=A9
 0002:0000472C 000000F4 C=BSS      S=.bss     G=DGROUP   M=IniOptions ACBP=A9
 0002:00004820 00000008 C=BSS      S=.bss     G=DGROUP   M=ExplodeBitmaps ACBP=A9
 0002:00004828 0000000E C=BSS      S=.bss     G=DGROUP   M=TA_MemoryLocations ACBP=A9
 0002:00004838 00000008 C=BSS      S=.bss     G=DGROUP   M=StatsLogging ACBP=A9
 0002:00004840 00000004 C=BSS      S=.bss     G=DGROUP   M=IdException ACBP=A9
 0002:00004844 00000004 C=BSS      S=.bss     G=DGROUP   M=IdResourceStrings ACBP=A9
 0002:00004848 000001C8 C=BSS      S=.bss     G=DGROUP   M=IdWinSock2 ACBP=A9
 0002:00004A10 00000004 C=BSS      S=.bss     G=DGROUP   M=IdStackConsts ACBP=A9
 0002:00004A14 00000008 C=BSS      S=.bss     G=DGROUP   M=IdStack  ACBP=A9
 0002:00004A1C 00000004 C=BSS      S=.bss     G=DGROUP   M=IdStackWindows ACBP=A9
 0002:00004A20 00000004 C=BSS      S=.bss     G=DGROUP   M=IdURI    ACBP=A9
 0002:00004A24 00000014 C=BSS      S=.bss     G=DGROUP   M=IdGlobal ACBP=A9
 0002:00004A38 00000004 C=BSS      S=.bss     G=DGROUP   M=IdMultipartFormData ACBP=A9
 0002:00004A3C 00000004 C=BSS      S=.bss     G=DGROUP   M=IdAssignedNumbers ACBP=A9
 0002:00004A40 00000004 C=BSS      S=.bss     G=DGROUP   M=IdHeaderList ACBP=A9
 0002:00004A44 00000004 C=BSS      S=.bss     G=DGROUP   M=IdBaseComponent ACBP=A9
 0002:00004A48 00000004 C=BSS      S=.bss     G=DGROUP   M=IdCoder  ACBP=A9
 0002:00004A4C 00000004 C=BSS      S=.bss     G=DGROUP   M=IdCoder3to4 ACBP=A9
 0002:00004A50 00000084 C=BSS      S=.bss     G=DGROUP   M=IdCoderMIME ACBP=A9
 0002:00004AD4 00000004 C=BSS      S=.bss     G=DGROUP   M=IdAuthentication ACBP=A9
 0002:00004AD8 00000004 C=BSS      S=.bss     G=DGROUP   M=IdHTTPHeaderInfo ACBP=A9
 0002:00004ADC 00000004 C=BSS      S=.bss     G=DGROUP   M=IdAntiFreezeBase ACBP=A9
 0002:00004AE0 00000008 C=BSS      S=.bss     G=DGROUP   M=IdComponent ACBP=A9
 0002:00004AE8 00000004 C=BSS      S=.bss     G=DGROUP   M=IdSocketHandle ACBP=A9
 0002:00004AEC 00000004 C=BSS      S=.bss     G=DGROUP   M=IdSSLOpenSSLHeaders ACBP=A9
 0002:00004AF0 00000004 C=BSS      S=.bss     G=DGROUP   M=IdIOHandler ACBP=A9
 0002:00004AF4 00000004 C=BSS      S=.bss     G=DGROUP   M=IdIntercept ACBP=A9
 0002:00004AF8 00000004 C=BSS      S=.bss     G=DGROUP   M=IdRFCReply ACBP=A9
 0002:00004AFC 00000004 C=BSS      S=.bss     G=DGROUP   M=IdSocks  ACBP=A9
 0002:00004B00 00000004 C=BSS      S=.bss     G=DGROUP   M=IdTCPStream ACBP=A9
 0002:00004B04 00000004 C=BSS      S=.bss     G=DGROUP   M=IdStream ACBP=A9
 0002:00004B08 00000004 C=BSS      S=.bss     G=DGROUP   M=IdIOHandlerSocket ACBP=A9
 0002:00004B0C 00000004 C=BSS      S=.bss     G=DGROUP   M=IdTCPConnection ACBP=A9
 0002:00004B10 00000004 C=BSS      S=.bss     G=DGROUP   M=IdThread ACBP=A9
 0002:00004B14 00000004 C=BSS      S=.bss     G=DGROUP   M=IdThreadMgrDefault ACBP=A9
 0002:00004B18 00000004 C=BSS      S=.bss     G=DGROUP   M=IdServerIOHandler ACBP=A9
 0002:00004B1C 00000004 C=BSS      S=.bss     G=DGROUP   M=IdServerIOHandlerSocket ACBP=A9
 0002:00004B20 00000004 C=BSS      S=.bss     G=DGROUP   M=IdStrings ACBP=A9
 0002:00004B24 00000004 C=BSS      S=.bss     G=DGROUP   M=IdThreadSafe ACBP=A9
 0002:00004B28 00000004 C=BSS      S=.bss     G=DGROUP   M=IdThreadMgr ACBP=A9
 0002:00004B2C 00000004 C=BSS      S=.bss     G=DGROUP   M=IdTCPServer ACBP=A9
 0002:00004B30 00000010 C=BSS      S=.bss     G=DGROUP   M=IdSSLOpenSSL ACBP=A9
 0002:00004B40 00000004 C=BSS      S=.bss     G=DGROUP   M=IdTCPClient ACBP=A9
 0002:00004B44 00000004 C=BSS      S=.bss     G=DGROUP   M=IdCookie ACBP=A9
 0002:00004B48 00000004 C=BSS      S=.bss     G=DGROUP   M=IdCookieManager ACBP=A9
 0002:00004B4C 00000004 C=BSS      S=.bss     G=DGROUP   M=IdAuthenticationManager ACBP=A9
 0002:00004B50 00000004 C=BSS      S=.bss     G=DGROUP   M=IdHTTP   ACBP=A9
 0002:00004B54 00000005 C=BSS      S=.bss     G=DGROUP   M=TAMemManipulations ACBP=A9
 0002:00004B5C 00000004 C=BSS      S=.bss     G=DGROUP   M=PlayerDataU ACBP=A9
 0002:00004B60 00000004 C=BSS      S=.bss     G=DGROUP   M=DPLobbyWrapper ACBP=A9
 0002:00004B64 00000028 C=BSS      S=.bss     G=DGROUP   M=Dplayx_exports ACBP=A9
 0002:00004B8C 00000048 C=BSS      S=.bss     G=DGROUP   M=TlHelp32 ACBP=A9
 0002:00004BD4 00000004 C=BSS      S=.bss     G=DGROUP   M=ErrorLog_ExtraData ACBP=A9
 0002:00004BD8 00000004 C=BSS      S=.bss     G=DGROUP   M=Thread_marshaller ACBP=A9
 0002:00004BDC 00000008 C=BSS      S=.bss     G=DGROUP   M=RegPathFix ACBP=A9
 0002:00004BE4 00000004 C=BSS      S=.bss     G=DGROUP   M=PauseLock ACBP=A9
 0002:00004BE8 00000004 C=BSS      S=.bss     G=DGROUP   M=UnitLimit ACBP=A9
 0002:00004BEC 00000004 C=BSS      S=.bss     G=DGROUP   M=MultiAILimit ACBP=A9
 0002:00004BF0 00000048 C=BSS      S=.bss     G=DGROUP   M=WeaponsExtend ACBP=A9
 0002:00004C38 00000008 C=BSS      S=.bss     G=DGROUP   M=UnitsExtend ACBP=A9
 0002:00004C40 00000008 C=BSS      S=.bss     G=DGROUP   M=Builders ACBP=A9
 0002:00004C48 0000000C C=BSS      S=.bss     G=DGROUP   M=ScriptCallsExtend ACBP=A9
 0002:00004C54 00000014 C=BSS      S=.bss     G=DGROUP   M=ResurrectPatrol ACBP=A9
 0002:00004C68 00000008 C=BSS      S=.bss     G=DGROUP   M=UnitActions ACBP=A9
 0002:00004C70 00000008 C=BSS      S=.bss     G=DGROUP   M=WeaponAimNTrajectory ACBP=A9
 0002:00004C78 00000008 C=BSS      S=.bss     G=DGROUP   M=TAExceptionsLog ACBP=A9
 0002:00004C80 00000008 C=BSS      S=.bss     G=DGROUP   M=Colors   ACBP=A9
 0002:00004C88 00000008 C=BSS      S=.bss     G=DGROUP   M=ClockPosition ACBP=A9
 0002:00004C90 00000008 C=BSS      S=.bss     G=DGROUP   M=GUIEnhancements ACBP=A9
 0002:00004C98 00000008 C=BSS      S=.bss     G=DGROUP   M=BattlerRoomMemFix ACBP=A9
 0002:00004CA0 00000004 C=BSS      S=.bss     G=DGROUP   M=Plugins  ACBP=A9
 0002:00004CA4 00000008 C=BSS      S=.bss     G=DGROUP   M=InitCode ACBP=A9
 0002:00004CAC 00000014 C=BSS      S=.bss     G=DGROUP   M=InitCode_CoreExePatching ACBP=A9
 0002:00004CC0 00000004 C=BSS      S=.bss     G=DGROUP   M=threadlogging ACBP=A9
 0002:00004CC4 00000004 C=BSS      S=.bss     G=DGROUP   M=StartBuilding ACBP=A9
 0002:00004CC8 00000004 C=BSS      S=.bss     G=DGROUP   M=KillDamage ACBP=A9


  Address         Publics by Name

 0002:000028C8       .1
 0002:00002678       .1
 0002:00004AEC       .1
 0002:000028B8       .1
 0002:00002668       .1
 0002:00004C90       .1
 0002:00004B70       .1
 0002:00004A3C       .1
 0002:00004BD4       .1
 0002:000028B0       .1
 0002:00004BD8       .1
 0002:00004A10       .1
 0002:00004C98       .1
 0002:00004844       .1
 0002:00004CAC       .1
 0002:00004820       .1
 0002:00004818       .1
 0002:00004728       .1
 0002:00004724       .1
 0002:00004710       .1
 0002:0000267C       .1
 0002:000046FC       .1
 0002:00004B8C       .1
 0002:000040A8       .1
 0002:00004CC8       .1
 0002:0000283C       .1
 0002:00004C88       .1
 0002:000028E8       .1
 0002:000028EC       .1
 0002:00004C80       .1
 0002:00004CC4       .1
 0002:00004C78       .1
 0002:000028F4       .1
 0002:00004C70       .1
 0002:00004CC0       .1
 0002:00004CA0       .1
 0002:00004C68       .1
 0002:00002900       .1
 0002:00004B20       .1
 0002:00002670       .1
 0002:00004C54       .1
 0002:00004030       .1
 0002:00004034       .1
 0002:00002890       .1
 0002:00002894       .1
 0002:0000404C       .1
 0002:00004C48       .1
 0002:00004060       .1
 0002:00004064       .1
 0002:00004078       .1
 0002:0000407C       .1
 0002:00004C40       .1
 0002:00004C38       .1
 0002:00004BF0       .1
 0002:0000408C       .1
 0002:00004094       .1
 0002:0000409C       .1
 0002:000040A0       .1
 0002:000040A4       .1
 0002:00004BEC       .1
 0002:00004BE8       .1
 0002:00004BE4       .1
 0002:00004BDC       .1
 0002:00004B2C       .11
 0002:00004A2C       .11
 0002:00004ADC       .2
 0002:00004B48       .2
 0002:00004B60       .2
 0002:00004A44       .2
 0002:00004A40       .2
 0002:00004B40       .2
 0002:00004AF0       .2
 0002:00004838       .2
 0002:00004700       .2
 0002:00004AFC       .2
 0002:00004040       .2
 0002:00002908       .2
 0002:000028FC       .2
 0002:000028F8       .2
 0002:00004B1C       .2
 0002:000028E4       .2
 0002:000028D0       .2
 0002:000028C4       .2
 0002:00004B18       .2
 0002:00002898       .2
 0002:00004B00       .2
 0002:00004B14       .2
 0002:00004CA4       .2
 0002:00004B08       .2
 0002:0000289C       .21
 0002:00004B30       .22
 0002:00004AE0       .3
 0002:00004A4C       .3
 0002:00004A48       .3
 0002:00004A20       .3
 0002:00004A1C       .3
 0002:00004A08       .3
 0002:00004AF8       .3
 0002:00004044       .3
 0002:00002904       .3
 0002:000028F0       .3
 0002:00002674       .3
 0002:00004B04       .3
 0002:00002844       .3
 0002:00004B54       .3
 0002:00004AD0       .3
 0002:00004B0C       .31
 0002:00002790       .35
 0002:0000402C       .4
 0002:00004B5C       .4
 0002:00004AD4       .4
 0002:00004B4C       .4
 0002:00004B28       .4
 0002:00004AF4       .4
 0002:00002850       .45
 0002:00004B10       .5
 0002:00004A38       .5
 0002:000027F8       .5
 0002:0000403C       .5
 0002:00004AD8       .5
 0002:00004830       .5
 0002:0000288C       .5
 0002:000025B4       .5
 0002:00002840       .6
 0002:0000290C       .6
 0002:00004A18       .6
 0002:00004720       .6
 0002:00002888       .6
 0002:00004840       .64
 0002:000045A0       .66
 0002:00002884       .7
 0002:00004B24       .7
 0002:00004038       .8
 0002:00004B50       .8
 0002:0000281C       .81
 0002:00002880       .9
 0002:00004B44       .9
 0002:00004AE8       .9
 0001:00001B70       @AbstractError
 0001:00002D14       @AfterConstruction
 0001:00002B60       @AsClass
 0001:0000374C       @Assert
 0001:00001E54       @Assign
 0001:00001FCC       @AStrCmp
 0001:00002D24       @BeforeDestruction
 0001:000028E8       @BoundErr
 0001:00002BAC       @CallDynaInst
 0001:00002CBC       @ClassCreate
 0001:00002D0C       @ClassDestroy
 0001:00001F1C       @Close
 0001:000018CC       @Copy
 0001:00004490       @CopyArray
 0001:00004374       @CopyRecord
 0001:00001AE4       @COS
 0001:00004584       @DispCallByIDError
 0001:0000F830       @DispInvokeError
 0001:000031A0       @DoneExcept
 0001:0000488C       @DynArrayAsg
 0001:00004850       @DynArrayClear
 0001:00004690       @DynArrayHigh
 0001:00004688       @DynArrayLength
 0001:00004844       @DynArraySetLength
 0001:0000203C       @EofText
 0001:00003288       @ExceptionHandler
 0001:00001AF4       @EXP
 0001:00002074       @FillChar
 0001:00004350       @Finalize
 0001:00004264       @FinalizeArray
 0001:00004218       @FinalizeRecord
 0001:00001F10       @Flush
 0001:000028DC       @FpuInit
 0001:00002818       @FpuMaskInit
 0001:00001B1C       @FRAC
 0001:00001754       @FreeMem
 0001:00001734       @GetMem
 0001:0000567C       @GetTls
 0001:00003734       @Halt
 0001:0000365C       @Halt0
 0001:00002E38       @HandleAnyException
 0001:000030EC       @HandleFinally
 0001:00002F64       @HandleOnException
 0001:00004184       @InitializeArray
 0001:00004154       @InitializeRecord
 0001:00003520       @InitImports
 0001:000056C8       @InitLib
 0001:000034F8       @InitResStringImports
 0001:00004F38       @IntfAddRef
 0001:00004EF4       @IntfClear
 0001:00004F0C       @IntfCopy
 0001:000028F0       @IntOver
 0001:00002B3C       @IsClass
 0001:000027E8       @isNECWindows
 0001:00003CA0       @LStrAddRef
 0001:00003814       @LStrArrayClr
 0001:00003844       @LStrAsg
 0001:00003AB8       @LStrCat
 0001:00003AFC       @LStrCat3
 0001:00003B70       @LStrCatN
 0001:000037F0       @LStrClr
 0001:00003BFC       @LStrCmp
 0001:00003D10       @LStrCopy
 0001:00003D50       @LStrDelete
 0001:00003A60       @LStrFromArray
 0001:000039D8       @LStrFromChar
 0001:000039E8       @LStrFromPChar
 0001:000038E0       @LStrFromPCharLen
 0001:00003A18       @LStrFromPWChar
 0001:0000394C       @LStrFromPWCharLen
 0001:00003A54       @LStrFromString
 0001:00003A78       @LStrFromWStr
 0001:00003888       @LStrLAsg
 0001:00003AB0       @LStrLen
 0001:00003E44       @LStrOfChar
 0001:00003D98       @LStrPos
 0001:00003DE0       @LStrSetLength
 0001:00003CB0       @LStrToPChar
 0001:00003A8C       @LStrToString
 0001:000038B4       @NewAnsiString
 0001:00003EA0       @NewWideString
 0001:000024FC       @Pow10
 0001:00001FA4       @PStrCpy
 0001:00001F74       @PStrNCat
 0001:00001FB0       @PStrNCpy
 0001:0000314C       @RaiseAgain
 0001:00003124       @RaiseExcept
 0001:00002094       @RandInt
 0001:000020EC       @ReadChar
 0001:00002250       @ReadLn
 0001:000021E4       @ReadLString
 0001:000021D8       @ReadString
 0001:00001774       @ReallocMem
 0001:00001BE4       @ResetText
 0001:00001BF0       @RewritText
 0001:00001B40       @ROUND
 0001:00003740       @RunError
 0001:000024D4       @SetEq
 0001:000024E8       @SetUnion
 0001:00001B0C       @SIN
 0001:00003430       @StartLib
 0001:00000304       @strlen
 0001:00001B4C       @TRUNC
 0001:000031D0       @TryFinallyExit
 0001:00003D08       @UniqueStringA
 0001:00002280       @ValLong
 0001:00010F28       @VarAddRef
 0001:0000FB1C       @VarClear
 0001:0000424C       @VarClr
 0001:0000FB30       @VarClr
 0001:0000435C       @VarCopy
 0001:0000FE44       @VarCopy
 0001:00010E60       @VarFromBool
 0001:00010EB0       @VarFromCurr
 0001:00010DF8       @VarFromInt
 0001:00010E34       @VarFromInt64
 0001:00010EC4       @VarFromLStr
 0001:00010E88       @VarFromReal
 0001:00010E9C       @VarFromTDateTime
 0001:00010EF0       @VarFromWStr
 0001:0000F884       @VarNull
 0001:00010170       @VarToLStr
 0001:00010898       @VarToWStr
 0001:00003E70       @Write0LString
 0001:00002398       @WriteBytes
 0001:00002468       @WriteLn
 0001:00003E78       @WriteLString
 0001:000023EC       @WriteSpaces
 0001:00003EE0       @WStrArrayClr
 0001:00003F04       @WStrAsg
 0001:00003EC8       @WStrClr
 0001:00004040       @WStrCmp
 0001:000040C4       @WStrCopy
 0001:00004014       @WStrFromLStr
 0001:00003F28       @WStrFromPCharLen
 0001:00003FD8       @WStrFromPWChar
 0001:00003FB4       @WStrFromPWCharLen
 0001:00004034       @WStrLen
 0001:00004110       @WStrSetLength
 0001:00004024       @WStrToPWChar
 0001:000024B0       @_CLenToPasStr
 0001:0000189C       @_IOTest
 0001:000045D4       @_lldiv
 0001:00004650       @_lldivo
 0001:0000458C       @_llmul
 0001:000045B0       @_llmulo
 0001:0000BF9C       AbstractErrorHandler
 0002:00002028       AbstractErrorProc
 0002:0000484C       accept
 0002:000049FC       AcceptEx
 0002:00000154       AccessMode
 0002:000008B8       AccessMode
 0001:00001804       AcquireExceptionObject
 0001:0001233C       ActiveX
 0001:00000440       AddBlockAfter
 0001:00022BBC       AddCheatDescription
 0001:0001E350       AddLineNo
 0001:00004D88       AddModuleUnloadProc
 0001:00004D98       AddModuleUnloadProc
 0001:0001E19C       AddProcedure
 0001:000174B0       AddSubComponentsToLoaded
 0001:00019870       AddThread
 0001:0001DFB8       AddUnit
 0002:00001218       AIName
 0002:00004090       AlliedStateChanged
 0001:00006C44       AllocMem
 0002:000025AC       AllocMemCount
 0002:000025B0       AllocMemSize
 0001:000055AC       AllocTlsBuffer
 0002:00000A2C       AllowMemReadWrite
 0001:00006E4C       AnsiCompareStr
 0001:00006E98       AnsiCompareText
 0001:00006E04       AnsiLowerCase
 0001:0000CAC0       AnsiPos
 0001:00006EE4       AnsiSameText
 0001:0000CB0C       AnsiStrPos
 0001:0000CBE4       AnsiStrRScan
 0001:0000CC34       AnsiStrScan
 0001:00005338       AnsiToUtf8
 0001:00006DBC       AnsiUpperCase
 0001:000097C0       AppendChars
 0001:00009BE0       AppendFormat
 0001:00009844       AppendNumber
 0001:00009820       AppendString
 0001:0000BF64       AssertErrorHandler
 0002:00002020       AssertErrorProc
 0001:00011CE0       AssignLongStr
 0001:00012148       AssignVariant
 0002:00004A34       ATempPath
 0002:00001174       AuthList
 0002:00002604       avail
 0001:00007AC0       BackfillGetDiskFreeSpaceEx
 0001:0000E7E0       BackupVarBoolFromStr
 0001:0000E95C       BackupVarBStrFromBool
 0001:0000E864       BackupVarBStrFromCy
 0001:0000E8E0       BackupVarBStrFromDate
 0001:0000E76C       BackupVarCyFromStr
 0001:0000E6F8       BackupVarDateFromStr
 0001:0000E59C       BackupVarI4FromStr
 0001:0000E528       BackupVariantChangeTypeEx
 0001:0000E610       BackupVarR4FromStr
 0001:0000E684       BackupVarR8FromStr
 0001:0005ECB8       BattlerRoomMemFix
 0002:00004C9C       BattlerRoomMemFixPlugin
 0001:0005EC54       BattlerRoomMemFix_GetMemory
 0001:000037A4       BeginThread
 0001:00058CF8       BetterAIName
 0001:00058D80       BetterAINameStub
 0002:0000127C       BIGUNIT
 0002:00004850       bind
 0001:000196F4       BinToHex
 0001:0001D518       BinToInt
 0001:0000E574       BiUnimplemented
 0002:000025DC       blockDescBlockList
 0002:000025E0       blockDescFreeList
 0002:000003BC       BooleanIdents
 0002:00000338       BooleanToStringRule
 0001:00007474       BoolToStr
 0001:0000FEF8       BoolToWStrViaOS
 0002:00000B74       BoolValues
 0001:00059AFC       Builders
 0002:00004C44       BuildersPlugin
 0001:00059A30       Builders_MobileAddBuild
 0001:00059A84       Builders_PlantBuildNonMobile
 0001:0000C65C       ByteToCharIndex
 0001:0000C620       ByteToCharLen
 0001:0000C5BC       ByteType
 0001:0000C510       ByteTypeTest
 0002:00004834       CacheUsed
 0001:0001D640       CalcCRC
 0001:00005A80       CallNextHookEx
 0001:00059E78       CallWeaponHit
 0002:00000A1C       CanAttachAtGridSpot
 0002:00000A20       CanCloseOrOpenYard
 0002:00002814       ChangeAnyProc
 0001:0000788C       ChangeFileExt
 0001:00003910       CharFromWChar
 0001:0000C8D4       CharLength
 0001:00005A88       CharLowerBuff
 0001:0000026C       CharNext
 0001:00005A90       CharNext
 0001:0000C798       CharToByteIndex
 0001:0000C810       CharToByteLen
 0001:00005A98       CharToOemA
 0001:00005AA0       CharUpperBuff
 0002:00004718       chatview
 0001:00022B9C       CheatEnabled
 0002:00000918       Cheat_BuildAnywhere
 0002:00000914       Cheat_ControlMenu
 0002:00000934       Cheat_DoubleShot
 0002:00000928       Cheat_ExtraDamage
 0002:00000908       Cheat_FastBuild
 0002:0000090C       Cheat_InfiniteResources
 0002:0000092C       Cheat_InstantBuild
 0002:0000091C       Cheat_InstantCapture
 0002:00000904       Cheat_Invisible
 0002:00000900       Cheat_Invulnerability
 0002:00000924       Cheat_JamAll
 0002:00000910       Cheat_LosRadar
 0002:00000938       Cheat_ProhibitedTask
 0002:00000930       Cheat_ResourcesFreeze
 0002:00000920       Cheat_SpecialMove
 0001:000547AC       CheckForCheats
 0001:00002DB4       CheckJmp
 0001:000174FC       CheckSubComponents
 0001:00019890       CheckSynchronize
 0002:0000033C       CInvalidCustomVariantType
 0001:0001ACA4       Classes
 0001:000136E8       ClassNotFound
 0001:0001E718       CleanUpMapFile
 0002:00002810       ClearAnyProc
 0002:00000A14       ClearChat
 0001:00011264       ClearVariantTypeList
 0001:0005BDC0       ClockMove_LeftBottom
 0001:0005BE08       ClockMove_LeftTop
 0001:0005BDE0       ClockMove_RightBottom
 0001:0005BE28       ClockMove_RightTop
 0001:0005BE84       ClockPosition
 0002:00004C8C       ClockPositionPlugin
 0001:000057B0       CloseHandle
 0001:0000020C       CloseHandle
 0002:00004854       closesocket
 0002:0000203C       CmdLine
 0002:00002038       CmdShow
 0001:0000E588       CmpUnimplemented
 0001:0005B008       COBCallbackEmptyCOB_Message
 0001:0002DB64       COB_extensions
 0001:0002D9B8       COB_ExtensionsSetters_Handling
 0001:0002DADC       COB_Extensions_FreeMemory
 0001:0002D938       COB_Extensions_Handling
 0002:00004CB0       CodeInjectionData
 0001:0005BB28       Colors
 0002:00004C84       ColorsPlugin
 0001:00022680       CommandHandlerU
 0001:00000720       Commit
 0002:00002620       committedRoot
 0001:0003441C       compare
 0001:0001DD28       CompareHeaders
 0001:000057B8       CompareString
 0001:00006D44       CompareText
 0001:0005A7E4       CompareVTOLUnitWeight
 0001:00007378       CompareWith
 0001:0001760C       ComponentCreated
 0001:0001B648       Compress
 0001:0001FA10       Compress
 0001:00059FEC       ConfirmedKill
 0002:00004858       connect
 0001:00022B94       ConsoleTimer
 0001:0001D088       Consts
 0001:0001DB0C       Contnrs
 0002:000003D8       Convert
 0002:000003E8       Convert
 0001:0000B7F8       ConvertAddr
 0002:00004664       ConvertBase64ToBin
 0001:00009944       ConvertEraString
 0001:00006BF4       ConvertError
 0001:00006C14       ConvertErrorFmt
 0002:000043B4       ConvertHexToBin
 0001:00009AC8       ConvertYearString
 0001:0002AF94       CopyArray
 0001:00004698       CopyArray
 0001:000057C0       CopyFile
 0001:0000C6E0       CountChars
 0002:00000340       CRangeToType
 0001:0001D608       CRC32
 0002:0000047C       CRC32tab
 0001:0000BE9C       CreateAssertException
 0001:0000C098       CreateAVObject
 0001:000176A0       CreateComponent
 0001:00007B68       CreateDir
 0001:000057C8       CreateDirectory
 0001:000057D0       CreateEvent
 0001:000057D8       CreateFile
 0001:00000214       CreateFileA
 0001:000057E0       CreateFileMapping
 0001:0000BD88       CreateInOutError
 0002:00000A04       CreateMovementClass
 0002:00000A00       CreateMultiplayerMapsList
 0001:00000274       CreateThread
 0001:00057F48       CreateToolhelp32Snapshot
 0002:000003A8       CRelationshipToBoolean
 0002:00000324       CResult
 0002:0000014C       cSimpleBoolStrs
 0002:00000354       CText
 0001:0002EBF8       CtrlFDontSelectNotLabs
 0002:00002618       curAlloc
 0002:00002688       CurrencyDecimals
 0002:00002684       CurrencyFormat
 0002:00002680       CurrencyString
 0002:000040B0       CurrentAnsiConvert
 0001:000097A0       CurrentYear
 0001:000090F8       CurrToStr
 0001:0000FE88       CurrToWStrViaOS
 0001:0002B9B4       CustomGetters
 0001:0002D52C       CustomSetters
 0002:000046D0       CustomUnitFields
 0002:00004678       CustomUnitFieldsArr
 0002:000046F8       CustomUnitFieldsCount
 0002:0000467C       CustomUnitInfos
 0002:0000466C       CustomUnitInfosArray
 0002:000046EC       CustomUnitInfosCount
 0001:00007090       CvtInt
 0001:000070FC       CvtInt64
 0002:0000018C       CWNear
 0001:0001D090       DataToStr2
 0001:00025F4C       DataTypeToRegData
 0001:0000972C       Date
 0002:00002689       DateSeparator
 0001:0000A494       DateTimeToStr
 0001:0000A3E8       DateTimeToString
 0001:00009264       DateTimeToTimeStamp
 0001:0000A454       DateToStr
 0001:0000FEC0       DateToWStrViaOS
 0001:000226E0       DateUtils
 0001:000096FC       DayOfWeek
 0002:00000188       DCon10
 0002:0000002C       DebugHook
 0002:00002687       DecimalSeparator
 0001:000096CC       DecodeDate
 0001:00009550       DecodeDateFully
 0001:0000936C       DecodeTime
 0001:000007B4       Decommit
 0001:00000DD0       DecommitFree
 0002:000025F4       decommittedRoot
 0002:00000A74       DecompressionBufferSize
 0002:00000024       Default8087CW
 0002:00000A94       DefaultChar
 0002:00000038       DefaultTextLineBreakStyle
 0002:000025B8       DefaultUserCodePage
 0002:00000218       DefLongDayNames
 0002:000001CC       DefLongMonthNames
 0002:000001FC       DefShortDayNames
 0002:0000019C       DefShortMonthNames
 0002:00000884       Deities
 0001:000048DC       DelayLoadResourceModule
 0001:00000470       DeleteBlock
 0001:000057E8       DeleteCriticalSection
 0001:000003E0       DeleteCriticalSection
 0001:000057F0       DeleteFile
 0001:00000C18       DeleteFree
 0001:000057F8       DeviceIoControl
 0002:00000094       dig
 0001:000076E4       DirectoryExists
 0001:000574A0       DirectPlayCreate
 0002:00004B80       DirectPlayCreate_proc
 0001:000571A8       DirectPlayEnumerate
 0001:000572A0       DirectPlayEnumerateA
 0002:00004B78       DirectPlayEnumerateA_proc
 0001:000573A0       DirectPlayEnumerateW
 0002:00004B7C       DirectPlayEnumerateW_proc
 0002:00004B74       DirectPlayEnumerate_proc
 0001:00057848       DirectPlayLobbyCreateA
 0002:00004B88       DirectPlayLobbyCreateA_proc
 0001:00057708       DirectPlayLobbyCreateW
 0002:00004B84       DirectPlayLobbyCreateW_proc
 0001:0003C91C       DirectPlay_PlayerPoll
 0001:0005EE54       DisableThreadLibraryCalls
 0002:00002000       DispCallByIDProc
 0001:00006BD8       DivMod
 0001:00057A9C       DllCanUnloadNow
 0001:00057B3C       DllGetClassObject
 0002:00002664       DllProc
 0002:00004B68       DoFinalize
 0002:00004B64       DoInitialize
 0002:000009FC       DoInterpretCommand
 0001:0000C40C       DoneExceptions
 0001:00019810       DoneThreadSynchronization
 0001:00047500       DoReport
 0002:000003C4       DotSep
 0001:000145C4       DoWrite
 0001:0005ECC0       Do_LoadTime_CodeInjections
 0001:00021F40       DPlay
 0001:0005F9D4       dplayx
 0001:00057110       DPlayxHandleInvalid
 0002:000011FC       dplayxLibHandle
 0001:00057C54       Dplayx_exports
 0001:00022064       DPLobby
 0001:00057108       DPLobbyWrapper
 0002:000009D4       DrawBar
 0001:0005E538       DrawBuildSpotNanoframe
 0001:0005E838       DrawBuildSpotQueueNanoframe
 0001:0005E358       DrawBuildSpot_InitScript
 0001:0005E81C       DrawBuildSpot_NanoframeHook
 0001:0005EA5C       DrawBuildSpot_NanoframeShimmerHook
 0001:0005EA3C       DrawBuildSpot_QueueNanoframeHook
 0001:0005DEC8       DrawCircleUnitSelect
 0001:0005E2C0       DrawCircleUnitSelectHook
 0001:0005DDF0       DrawDevUnitStateProbes
 0002:000009DC       DrawDotteCircle
 0002:000009D8       DrawLine
 0002:000009E0       DrawText_Heavy
 0001:0005D8A8       DrawTrueIncome
 0002:00000A5C       DrawUnit
 0001:0005C24C       DrawUnitState
 0001:0002E254       DropUnitsWeaponsList
 0001:000046B0       DynArrayClear
 0001:000046B8       DynArraySetLength
 0001:0000BD4C       EHeapException.FreeInstance
 0001:0004DE14       EIdSocketError.CreateError
 0001:0004E100       EIdWS2StubError.Build
 0001:0001B7B4       Elapsed
 0002:000027FC       EmptyParam
 0002:000000D4       EmptyStr
 0002:000000D8       EmptyWideStr
 0001:00009514       EncodeDate
 0001:00009328       EncodeTime
 0001:000037E8       EndThread
 0001:000003D0       EnterCriticalSection
 0001:00005800       EnterCriticalSection
 0001:00005808       EnumCalendarInfoA
 0001:0000B3B8       EnumEraNames
 0001:0000B404       EnumEraYearOffsets
 0001:00016CAC       EnumValue
 0001:00005AA8       EnumWindows
 0001:00054284       EnumWindowsProc
 0002:00002750       EraNames
 0001:0000A7E4       EraToYear
 0002:0000276C       EraYearOffsets
 0002:0000006C       errCaption
 0001:00001890       Error
 0002:00000004       ErrorAddr
 0001:00001844       ErrorAt
 0001:0000BE2C       ErrorHandler
 0001:000585C8       ErrorLog_ExtraData
 0001:00058584       Errorlog_Thunk1
 0001:00058240       Errorlog_Thunk2
 0002:00000234       ErrorMap
 0002:00002008       ErrorProc
 0001:00020670       ErrorString
 0002:000023E0       ErrOutput
 0001:000017E4       ExceptAddr
 0002:0000200C       ExceptClsProc
 0001:0000C35C       ExceptHandler
 0001:0000BA9C       Exception.Create
 0001:0000BAE4       Exception.CreateFmt
 0001:0000BCB4       Exception.CreateFmtHelp
 0001:0000BC60       Exception.CreateHelp
 0001:0000BB74       Exception.CreateRes
 0001:0000BBBC       Exception.CreateResFmt
 0002:0000201C       ExceptionClass
 0001:0000B808       ExceptionErrorMessage
 0002:0000026C       ExceptMap
 0001:000017C4       ExceptObject
 0002:00002010       ExceptObjProc
 0002:00002004       ExceptProc
 0001:0000CA74       ExcludeTrailingPathDelimiter
 0002:0000457C       ExeVersion
 0002:00000000       ExitCode
 0001:000035A0       ExitDll
 0002:00002040       ExitProc
 0001:00000284       ExitProcess
 0002:00002024       ExitProcessProc
 0001:00005658       ExitProcessTLS
 0001:0000027C       ExitThread
 0001:00005630       ExitThreadTLS
 0001:00007A7C       ExpandFileName
 0002:00000B78       ExpectedData
 0001:0004738C       ExplodeBitmaps
 0002:00004824       ExplodeBitmapsPlugin
 0002:00002914       ExtraAnimations
 0001:0000796C       ExtractFileDir
 0001:00007A1C       ExtractFileExt
 0001:000079D8       ExtractFileName
 0001:0000792C       ExtractFilePath
 0002:00001284       EXTRALARGEUNIT
 0001:0005DE68       ExtraUnitBars_MainCall
 0002:00002958       ExtraUnitDefTags
 0002:00002954       ExtraWeaponDefTags
 0002:0000278C       FalseBoolStrs
 0002:0000017C       FCon1E18
 0002:00000994       Feature_Destroy
 0001:000513CC       Fetch
 0001:000512C4       FetchCaseInsensitive
 0002:00004A30       FIdPorts
 0001:00007654       FileAge
 0001:00007640       FileClose
 0001:00007574       FileCreate
 0001:00007540       FileCreate
 0001:000076C4       FileExists
 0002:000008C8       FileFlags
 0002:0000000C       FileMode
 0001:00001C38       FileNOPProc
 0001:000074D0       FileOpen
 0001:00007594       FileRead
 0001:00007604       FileSeek
 0001:00005810       FileTimeToDosDateTime
 0001:00005818       FileTimeToLocalFileTime
 0001:000075CC       FileWrite
 0002:0000045C       FILE_SHARING_ERRORS
 0001:00000D00       FillAfterGap
 0001:00000CAC       FillBeforeGap
 0001:0002A7E4       FillChar
 0001:0002A7DC       FillCharInvoke
 0001:0002A990       FillCharX87
 0001:00000D98       FillerSizeAfterGap
 0001:00000D28       FillerSizeBeforeGap
 0001:00025D1C       Finalization
 0001:00058634       Finalization
 0001:00024B84       Finalization
 0001:00024B4C       Finalization
 0001:00058598       Finalization
 0001:00053F14       Finalization
 0001:00057FE4       Finalization
 0001:00053F78       Finalization
 0001:00053FB0       Finalization
 0001:00054000       Finalization
 0001:0000E308       Finalization
 0001:00057C24       Finalization
 0001:000547D0       Finalization
 0001:00055B5C       Finalization
 0001:0004DE68       Finalization
 0001:000570D8       Finalization
 0001:0000ED4C       Finalization
 0001:00026B2C       Finalization
 0001:00024A54       Finalization
 0001:00053DF8       Finalization
 0001:00028310       Finalization
 0001:00058994       Finalization
 0001:00053DB4       Finalization
 0001:000284FC       Finalization
 0001:00028754       Finalization
 0001:000247E4       Finalization
 0001:00053D54       Finalization
 0001:000233DC       Finalization
 0001:00023054       Finalization
 0001:00058ACC       Finalization
 0001:00053D1C       Finalization
 0001:00058CA4       Finalization
 0001:00022FEC       Finalization
 0001:000289E0       Finalization
 0001:00053CE4       Finalization
 0001:00058E70       Finalization
 0001:00028AAC       Finalization
 0001:000591C4       Finalization
 0001:00053CAC       Finalization
 0001:00028BEC       Finalization
 0001:00059798       Finalization
 0001:00053C74       Finalization
 0001:00028D9C       Finalization
 0001:00059ACC       Finalization
 0001:00053C3C       Finalization
 0001:00053C04       Finalization
 0001:00053BCC       Finalization
 0001:00053B94       Finalization
 0001:00053B5C       Finalization
 0001:00022B64       Finalization
 0001:0005A104       Finalization
 0001:000228AC       Finalization
 0001:00053B24       Finalization
 0001:000226B0       Finalization
 0001:000290F0       Finalization
 0001:0005A494       Finalization
 0001:00053AEC       Finalization
 0001:00053AB4       Finalization
 0001:00022650       Finalization
 0001:0002926C       Finalization
 0001:00053A7C       Finalization
 0001:000116B0       Finalization
 0001:00053A44       Finalization
 0001:000118C4       Finalization
 0001:000293BC       Finalization
 0001:00022034       Finalization
 0001:0005A920       Finalization
 0001:00021F10       Finalization
 0001:0001D020       Finalization
 0001:00053A0C       Finalization
 0001:0005AE9C       Finalization
 0001:000539C8       Finalization
 0001:0002056C       Finalization
 0001:000295C4       Finalization
 0001:0005B5E4       Finalization
 0001:000295FC       Finalization
 0001:00029634       Finalization
 0001:0005BAF8       Finalization
 0001:00053938       Finalization
 0001:00020210       Finalization
 0001:000122B4       Finalization
 0001:000538C4       Finalization
 0001:0001230C       Finalization
 0001:00053840       Finalization
 0001:00053808       Finalization
 0001:00053768       Finalization
 0001:0005BE54       Finalization
 0001:00052E24       Finalization
 0001:0002B5F0       Finalization
 0001:00052C84       Finalization
 0001:00052548       Finalization
 0001:000522DC       Finalization
 0001:00005B9C       Finalization
 0001:00005454       Finalization
 0001:000521E0       Finalization
 0001:0002DAF4       Finalization
 0001:00051724       Finalization
 0001:0001ABF4       Finalization
 0001:0002E224       Finalization
 0001:00005BD4       Finalization
 0001:000516EC       Finalization
 0001:00051510       Finalization
 0001:0001F59C       Finalization
 0001:0002ED10       Finalization
 0001:00045160       Finalization
 0001:00045588       Finalization
 0001:00050F64       Finalization
 0001:00045638       Finalization
 0001:00050EF0       Finalization
 0001:0004FAD0       Finalization
 0001:00046C08       Finalization
 0001:00005F1C       Finalization
 0001:0005EAD0       Finalization
 0001:0001F548       Finalization
 0001:0001B0DC       Finalization
 0001:0004F208       Finalization
 0001:000472C0       Finalization
 0001:0004F1BC       Finalization
 0001:00005748       Finalization
 0001:0005EC88       Finalization
 0001:0001B12C       Finalization
 0001:0001EADC       Finalization
 0001:0001EA70       Finalization
 0001:0005EE1C       Finalization
 0001:0004CCC8       Finalization
 0001:0005F318       Finalization
 0001:0004DCBC       Finalization
 0001:0001B54C       Finalization
 0001:00005710       Finalization
 0001:0001DADC       Finalization
 0001:0005F424       Finalization
 0001:0005F4A4       Finalization
 0001:0001D900       Finalization
 0001:0005F4DC       Finalization
 0001:0001D798       Finalization
 0001:0005F514       Finalization
 0001:0001D058       Finalization
 0001:0005F54C       Finalization
 0001:0004E050       Finalization
 0001:000046A8       FinalizeArray
 0001:00003370       FinalizeUnits
 0001:0000494C       FindBS
 0001:00005820       FindClose
 0001:00000294       FindClose
 0001:00000C7C       FindCommitted
 0001:000115C0       FindCustomVariantType
 0001:00011508       FindCustomVariantType
 0001:00017854       FindExistingComponent
 0001:00005828       FindFirstFile
 0001:0000029C       FindFirstFile
 0002:00000A40       findfirst_HPI
 0001:00013890       FindGlobalComponent
 0002:0000285C       FindGlobalComponentProcs
 0001:000048B4       FindHInstance
 0001:00040D44       FindHostPlayer
 0001:00013800       FindIdentToInt
 0001:000543D8       FindMemoryCheats
 0001:000169F0       FindNestedComponent
 0002:00000A44       findnext_HPI
 0001:0000E9FC       FindProc
 0001:00054264       FindprohibitedProcesses
 0001:00004924       FindResourceHInstance
 0002:000009AC       fire_callback0
 0002:000009A0       fire_callback1
 0002:000009A4       fire_callback2
 0002:000009A8       fire_callback3
 0002:000028D4       fIsWin9x
 0001:0005A27C       FixFeaturePosition
 0001:000451A4       FixModsINI
 0002:0000279C       FLanguages
 0001:00008D88       FloatToDecimal
 0001:000090C8       FloatToStr
 0001:00009128       FloatToStrF
 0001:00008AB0       FloatToText
 0001:000087DC       FloatToText
 0001:00007DFC       FloatToTextEx
 0001:00001F04       Flush
 0001:00005830       FlushFileBuffers
 0001:00005838       FlushInstructionCache
 0002:00000190       FMSecsPerDay
 0001:000086B4       FmtStr
 0001:000085D8       FmtStr
 0001:0005188C       FoldWrapText
 0001:0000771C       ForceDirectories
 0002:00000198       Format
 0001:000085AC       Format
 0001:00008584       Format
 0001:00007E38       FormatBuf
 0001:000081B0       FormatBuf
 0001:00007DE8       FormatClearStr
 0001:0000A4B0       FormatDateTime
 0001:00007D48       FormatError
 0002:00000174       FormatErrorStrs
 0001:00005840       FormatMessage
 0001:00007DB0       FormatVarToStr
 0001:000024F4       FPower10
 0001:0000DF30       FreeAndNil
 0001:0005E458       FreeCob
 0001:000009E8       FreeCommitted
 0001:00000F08       FreeCurAlloc
 0001:0002DA2C       FreeExtensionsMemory
 0001:0001AB64       FreeIntConstList
 0001:000002A4       FreeLibrary
 0001:00005848       FreeLibrary
 0001:0001EB0C       FreeListU
 0002:00000984       FreeMoveClass
 0002:00000980       FreeObjectState
 0001:00000668       FreeSpace
 0001:0000D8D0       FreeTerminateProcs
 0001:0005E46C       FreeUnitMem
 0002:0000097C       FreeUnitOrders
 0002:00000988       free_MMwapper__
 0002:000008CC       fVersionLazyInited
 0001:00028A7C       GameUnit_LOS_MiniMap_UnitsProjectiles_IsOwner
 0001:00028BE0       GameUnit_LOS_PlayerSeeUnit_EpilogCode_Exit
 0001:00028B8C       GameUnit_LOS_PlayerSeeUnit_IsOwnerAllowedToSee
 0001:0002886C       GameUnit_LOS_Radar_CanDirectlySeeUnit
 0001:00028920       GameUnit_LOS_Radar_LoopCondition
 0001:000288C8       GameUnit_LOS_Radar_LoopStart
 0001:00028F2C       GameUnit_LOS_Update_1_Retry
 0001:00028F10       GameUnit_LOS_Update_1_Start
 0001:00029018       GameUnit_LOS_Update_2_Retry
 0001:00028FFC       GameUnit_LOS_Update_2_Start
 0002:00000954       Game_SetLOSState
 0002:0000459C       GarbageCollector
 0002:00001170       GBase64CodeTable
 0002:00004A50       GBase64DecodeTable
 0002:00004B6C       gdwDPlaySPRefCount
 0002:00004A00       GetAcceptExSockaddrs
 0001:00005868       GetACP
 0001:0002B56C       GetAddressFromCall
 0001:0001F71C       GetAppData
 0001:00005AB0       GetAsyncKeyState
 0001:000003E8       GetBlockDesc
 0001:0001D260       GetChar
 0001:00013758       GetClass
 0001:00000384       GetCmdShow
 0001:00028DD4       GetCodeInjections
 0001:00029128       GetCodeInjections
 0001:0002878C       GetCodeInjections
 0001:00028A18       GetCodeInjections
 0001:00028AE4       GetCodeInjections
 0001:00028C24       GetCodeInjections
 0001:000002AC       GetCommandLine
 0001:00000834       GetCommitted
 0001:000008C4       GetCommittedAt
 0001:00009894       GetCount
 0001:00005870       GetCPInfo
 0001:00005878       GetCurrentProcess
 0001:00000364       GetCurrentThreadId
 0001:00005880       GetCurrentThreadId
 0001:000098CC       GetDate
 0001:00005888       GetDateFormat
 0001:0000A6B0       GetDateOrder
 0001:00005890       GetDiskFreeSpaceA
 0002:00000148       GetDiskFreeSpaceEx
 0001:00002B7C       GetDynaMethod
 0001:0002ADE4       GetEnumName
 0001:00011934       GetEnumName
 0001:00011A3C       GetEnumNameValue
 0001:00011A88       GetEnumValue
 0001:0000B490       GetEraNamesAndYearOffsets
 0001:0000A780       GetEraYearOffset
 0001:0000C06C       GetExceptionClass
 0001:0000C27C       GetExceptionObject
 0001:00005898       GetExitCodeThread
 0001:000501CC       GetFDSet
 0002:00000990       GetFeatureTypeOfPos
 0001:000136DC       GetFieldClassTable
 0001:000058A0       GetFileAttributes
 0001:00000224       GetFileSize
 0001:000058A8       GetFileSize
 0001:0000021C       GetFileType
 0001:000200B0       GetFileVersion
 0001:00005A68       GetFileVersionInfo
 0001:00005A70       GetFileVersionInfoSize
 0001:0001FEA4       GetFileVersion_internal
 0001:0000CF54       GetFormatSettings
 0001:000058B0       GetFullPathName
 0002:00000950       GetGameingType
 0002:000048A8       gethostbyaddr
 0002:000048AC       gethostbyname
 0002:000048B0       gethostname
 0001:00045A90       GetINIFileName
 0001:000027E0       GetKeyboardType
 0001:000002B4       GetLastError
 0001:000058B8       GetLastError
 0001:0001E830       GetLineNumberFromAddress
 0001:0000B080       GetLocaleChar
 0001:0000D2E8       GetLocaleFormatSettings
 0001:000058C8       GetLocaleInfo
 0001:000002BC       GetLocaleInfo
 0001:0000B278       GetLocaleMonthDayNames
 0001:0000B024       GetLocaleStr
 0001:000058C0       GetLocalTime
 0001:0001EA24       GetMapAddressFromAddress
 0001:0001E92C       GetMapFileName
 0001:0005EB94       GetMemory
 0001:000002C4       GetModuleFileName
 0001:000058D0       GetModuleFileName
 0001:000002CC       GetModuleHandle
 0001:000058D8       GetModuleHandle
 0001:0001E744       GetModuleNameFromAddress
 0001:0000B100       GetMonthDayNames
 0001:0001F6BC       GetMyDocs
 0001:00011B80       GetOrdProp
 0001:00001970       GetParamStr
 0002:00004860       getpeername
 0001:00059820       GetPlugin
 0001:0004CE38       GetPlugin
 0001:00046D90       GetPlugin
 0001:00046B94       GetPlugin
 0001:00059B0C       GetPlugin
 0001:0002E2A8       GetPlugin
 0001:00058674       GetPlugin
 0001:000592F8       GetPlugin
 0001:00029304       GetPlugin
 0001:00058F60       GetPlugin
 0001:0005EB24       GetPlugin
 0001:0005A144       GetPlugin
 0001:00058D9C       GetPlugin
 0001:0002B87C       GetPlugin
 0001:0005A960       GetPlugin
 0001:000286F4       GetPlugin
 0001:00029418       GetPlugin
 0001:0005A4D4       GetPlugin
 0001:00058024       GetPlugin
 0001:0005BB38       GetPlugin
 0001:00058B0C       GetPlugin
 0001:000589D4       GetPlugin
 0001:0005BA90       GetPlugin
 0001:0005BF54       GetPlugin
 0001:0005AEDC       GetPlugin
 0001:000585D8       GetPlugin
 0002:00000968       GetPosHeight
 0001:000058E0       GetPrivateProfileString
 0001:000002D4       GetProcAddress
 0001:000058E8       GetProcAddress
 0001:0001E7C0       GetProcNameFromAddress
 0001:00011B10       GetPropInfo
 0002:000048C0       getprotobyname
 0002:000048BC       getprotobynumber
 0002:000048B8       getservbyname
 0002:000048B4       getservbyport
 0002:00004864       getsockname
 0002:00004868       getsockopt
 0001:0000058C       GetSpace
 0001:000005F0       GetSpaceAt
 0001:000002DC       GetStartupInfo
 0001:0000022C       GetStdHandle
 0001:000058F0       GetStdHandle
 0001:000058F8       GetStringTypeEx
 0001:0001F844       GetSysDir
 0001:00005900       GetSystemDirectory
 0001:00005908       GetSystemInfo
 0001:00005AB8       GetSystemMetrics
 0001:00020198       GetTADemoVersion
 0001:00005910       GetTempFileName
 0001:00005918       GetTempPath
 0001:000002E4       GetThreadLocale
 0001:00005920       GetThreadLocale
 0001:00005928       GetTickCount
 0001:0000037C       GetTickCount
 0001:00009904       GetTime
 0001:000055B8       GetTlsSize
 0002:00000A28       GetTPosition
 0001:00011928       GetTypeData
 0002:00000A24       GetUnitAtMouse
 0001:000594E4       GetUnitExtProperty
 0002:0000098C       GetUnit_BuildWeaponProgress
 0001:0000036C       GetVersion
 0001:0002ABCC       GetVersionEx
 0001:00005930       GetVersionEx
 0001:00005938       GetVolumeInformation
 0001:0001F984       GetVolumePathName
 0001:0005AB64       GetWeaponExtProperty
 0001:00005940       GlobalAlloc
 0001:00005B5C       GlobalAllocPtr
 0002:0000471C       GlobalDPlay
 0002:00002860       GlobalFixupList
 0001:00005948       GlobalFree
 0001:00005B88       GlobalFreePtr
 0001:00005958       GlobalHandle
 0001:00005950       GlobalLock
 0001:0005EB14       GlobalMemoryStatusEx
 0002:00002848       GlobalNameSpace
 0001:00005960       GlobalReAlloc
 0001:00005B6C       GlobalReAllocPtr
 0001:00005968       GlobalUnlock
 0001:0001D050       GPHugeF
 0002:000010CC       GServeFileProc
 0002:00004A14       GSocketListClass
 0002:000010C8       GStackClass
 0002:00004AE4       GStackCriticalSection
 0002:000010D0       GStarted
 0001:0005EB0C       GUIEnhancements
 0002:00004C94       GUIEnhancementsPlugin
 0001:0005DE4C       GUIEnhancements_DevUnitProbes
 0001:00018000       HandleException
 0002:00000028       HeapAllocFlags
 0002:000025C0       heapErrorCode
 0002:000025C4       heapLock
 0002:00000144       HexDisplayPrefix
 0001:0001975C       HexToBin
 0002:000011A0       hIdCrypto
 0002:000011A4       hIdIndySSL
 0002:0000119C       hIdSSL
 0002:00002660       HInstance
 0001:00005B20       HiWord
 0002:00004704       hKeyboardHook
 0002:0000486C       htonl
 0002:00004870       htons
 0002:00001280       HUGEUNIT
 0002:00000B84       hWS2Dll
 0001:0001D800       Hypot
 0001:00053870       IdAntiFreezeBase
 0001:00051754       IdAssignedNumbers
 0001:000537D8       IdAuthentication
 0001:00053FE0       IdAuthenticationManager
 0001:0005230C       IdBaseComponent
 0001:00052578       IdCoder
 0001:00052CB4       IdCoder3to4
 0001:00052E60       IdCoderMIME
 0001:0005390C       IdComponent
 0001:00053F70       IdCookie
 0001:00053FA8       IdCookieManager
 0001:0004DE98       IdException
 0001:000515CC       IdGlobal
 0001:00052210       IdHeaderList
 0001:00054048       IdHTTP
 0001:00053838       IdHTTPHeaderInfo
 0001:00053A74       IdIntercept
 0001:00053A3C       IdIOHandler
 0001:00053B8C       IdIOHandlerSocket
 0001:0005171C       IdMultipartFormData
 0001:0004519C       idplay
 0001:0004E080       IdResourceStrings
 0001:00053AAC       IdRFCReply
 0001:00053C6C       IdServerIOHandler
 0001:00053CA4       IdServerIOHandlerSocket
 0001:00053968       IdSocketHandle
 0001:00053AE4       IdSocks
 0001:00053DEC       IdSSLOpenSSL
 0001:00053A00       IdSSLOpenSSLHeaders
 0001:0004FB00       IdStack
 0001:0004F238       IdStackConsts
 0001:00050F34       IdStackWindows
 0002:00001178       IdStati
 0001:00053B54       IdStream
 0001:00053CDC       IdStrings
 0001:00053E28       IdTCPClient
 0001:00053BC4       IdTCPConnection
 0001:00053D84       IdTCPServer
 0001:00053B1C       IdTCPStream
 0001:00053BFC       IdThread
 0001:00053D4C       IdThreadMgr
 0001:00053C34       IdThreadMgrDefault
 0001:00053D14       IdThreadSafe
 0001:00050F94       IdURI
 0001:0004F1F4       IdWinSock2
 0002:000008E0       IID_IDirectPlay
 0002:000008D0       IID_IDirectPlay3
 0002:000008F0       IID_IDirectPlayLobby2
 0002:00000194       IMSecsPerDay
 0001:0000F898       InBounds
 0001:0000FB38       InBounds
 0001:0000CA20       IncludeTrailingPathDelimiter
 0001:00051144       IncludeTrailingSlash
 0001:0000F8C8       Increment
 0001:0000FB68       Increment
 0002:00004A24       IndyFalseBoolStrs
 0002:00001120       IndyPos
 0002:00004A28       IndyTrueBoolStrs
 0002:00004874       inet_addr
 0002:00004878       inet_ntoa
 0001:00047018       InGameChoseBitmap
 0001:00025D64       IniFiles
 0001:00046C54       IniOptions
 0002:0000481C       iniPath_cache
 0002:0000472C       IniSettings
 0001:00000A74       InitAllocator
 0001:0005F348       InitCode
 0001:0005F454       InitCode_CoreExePatching
 0002:00002630       InitContext
 0001:0000D904       InitDriveSpacePtr
 0001:0000C384       InitExceptions
 0001:00005970       InitializeCriticalSection
 0001:000003C8       InitializeCriticalSection
 0002:000025BC       initialized
 0001:000056BC       InitializeModule
 0001:0000EA40       InitializeVarUtils
 0001:0000CD04       InitLeadBytes
 0001:0000C490       InitPlatformId
 0001:00005604       InitProcessTLS
 0001:0002AA84       InitSynCommonsConversionTables
 0001:0000CDA8       InitSysLocale
 0001:000197D8       InitThreadSynchronization
 0001:000055C0       InitThreadTLS
 0001:0005F418       InitThunk_Stage1
 0001:0005F398       InitThunk_Stage2
 0001:00057C88       InitToolHelp
 0001:000033D0       InitUnits
 0002:00002048       Input
 0001:00028534       InputHandler
 0001:00028784       InputHook
 0001:00000E80       InsertFree
 0002:00000A38       InsertToHPIAry
 0001:000244BC       InstallPlugins
 0002:00002854       IntConstList
 0001:00005850       InterlockedDecrement
 0001:0000035C       InterlockedDecrement
 0001:0000D974       InterlockedDecrement
 0001:00005858       InterlockedExchange
 0001:0000D980       InterlockedExchange
 0001:0000D988       InterlockedExchangeAdd
 0001:00000354       InterlockedIncrement
 0001:00005860       InterlockedIncrement
 0001:0000D968       InterlockedIncrement
 0001:00001C78       InternalClose
 0001:00001EBC       InternalFlush
 0001:00000CDC       InternalFreeMem
 0001:00003CBC       InternalUniqueString
 0002:000009F8       InterpretCommand
 0001:00024AAC       InterpretInternalCommand
 0001:0001D7D0       IntPower
 0001:00007218       IntToHex
 0001:000071F0       IntToHex
 0001:000070DC       IntToStr
 0001:000071C8       IntToStr
 0002:00002798       InvalidPointer
 0001:00002A34       InvokeImplGetter
 0002:0000485C       ioctlsocket
 0001:00001910       IOResult
 0001:00005978       IsBadReadPtr
 0002:00002044       IsConsole
 0001:0000C9C4       IsDelimiter
 0001:00029B78       IsFixedWidthCodePage
 0001:000093CC       IsLeapYear
 0002:00002034       IsLibrary
 0002:00002045       IsMultiThread
 0001:0000C978       IsPathDelimiter
 0001:00025ED4       IsRelative
 0001:0001D1D4       IsStrBool
 0001:0001D144       IsStrByte
 0001:00022F28       IsTAHookRunning
 0001:000474E8       IsTAVersion31
 0002:00004835       IsTAVersion31_Cache
 0001:00007014       IsValidIdent
 0001:00005980       IsValidLocale
 0001:0000CD84       IsWesternGroup
 0001:0001F924       IsWin9x
 0002:000044B4       IsWow64
 0002:00000030       JITEnable
 0002:00004668       JSONCustomParsers
 0002:00000A88       JSON_BOOLEAN
 0002:00004B90       KernelHandle
 0002:000028CC       kernellib
 0001:0002ED40       KeyboardHook
 0001:0002E328       KeyboardHookFunction
 0002:00004708       keyboardHookLevel
 0001:0005F544       KillDamage
 0001:0000781C       LastDelimiter
 0002:0000470C       lastShareEnergyVal
 0002:0000483C       lastunit
 0001:0000CC8C       LCIDToCodePage
 0001:000053E0       LCIDToCodePage
 0002:00000124       LeadBytes
 0001:000003D8       LeaveCriticalSection
 0001:00005988       LeaveCriticalSection
 0001:0001D704       LeftPad
 0001:000455C0       LeftStr
 0002:0000003C       LibModuleList
 0001:0005F370       LibraryProc
 0002:000028A8       LineNumbers
 0001:00022C10       ListCheats
 0002:0000487C       listen
 0002:0000274E       ListSeparator
 0001:0001B10C       ListsU
 0001:0001E4C0       LoadAndParseMapFile
 0001:00046E7C       LoadExtraBitmaps
 0001:00005990       LoadLibrary
 0001:000002EC       LoadLibraryEx
 0001:00004B18       LoadResourceModule
 0001:00005388       LoadResString
 0001:0005889C       LoadSharedMaps
 0001:00058978       LoadSharedMapsHook
 0001:00005AC0       LoadString
 0001:000002F4       LoadString
 0001:0000557C       LocalAlloc
 0001:000003A8       LocalAlloc
 0001:000003B0       LocalFree
 0001:00005584       LocalFree
 0001:0000B0BC       LocalGetLocaleStr
 0001:0000B234       LocalGetLocaleStr
 0002:00004B34       LockInfoCB
 0002:00004B38       LockPassCB
 0002:00004B3C       LockVerifyCB
 0001:0002340C       log2
 0001:0005B4B8       LogAITooHighUnitInfo
 0002:00000880       logdir
 0001:0001EC94       LogError
 0001:0001EB84       LogException
 0002:000028BC       logFilename
 0001:0001F58C       logging
 0001:0005B240       LogMissingCob
 0002:00000B2C       logsave
 0002:000028C0       Log_
 0002:00002690       LongDateFormat
 0002:00002724       LongDayNames
 0002:000026D8       LongMonthNames
 0002:000026A4       LongTimeFormat
 0001:0002929C       LOS_AllyPlayer
 0001:000293EC       LOS_extensions
 0001:00028DCC       LOS_GUIText
 0001:00028D30       LOS_GUIText_SeeCommHealth
 0001:00028D68       LOS_GUIText_Unit_KillsNStuff
 0001:00028CF0       LOS_GUIText_Unit_Resources
 0001:00028ADC       LOS_MiniMapUnits
 0001:00028C1C       LOS_PlayerSeeUnit
 0001:00028A10       LOS_Radar
 0002:00004080       LOS_Updates_PTR
 0001:00029120       LOS_UpdateTables
 0001:00006CD8       LowerCase
 0002:00000A84       LowerLimit
 0001:000002FC       lstrcpyn
 0002:00002820       LVarTypes
 0002:00002824       LVarTypeSync
 0002:0000202C       MainInstance
 0002:00002030       MainThreadID
 0002:0000099C       MakeDamageToUnit
 0001:00000438       MakeEmpty
 0001:00003544       MakeErrorMessage
 0001:00005AF8       MakeLong
 0001:0001FE00       MakeTempFilename
 0001:0000BFB8       MapException
 0002:0000087C       MapFileName
 0002:000028AC       MapFileSetup
 0001:000031E8       MapToRunError
 0001:00005998       MapViewOfFile
 0001:0001D930       Math
 0002:00001278       MEDIUMUNIT
 0001:0002301C       MemMappedDataStructure
 0002:00000044       MemoryManager
 0001:00000488       MergeBlockAfter
 0001:00000F54       MergeCommit
 0001:00005AC8       MessageBox
 0001:0000028C       MessageBox
 0001:00005C04       Messages
 0001:00022688       MilliSecondOf
 0001:0001B15C       MMSystem
 0001:000455B8       ModsList
 0002:000000AC       Module
 0001:00057F7C       Module32First
 0001:00057FB0       Module32Next
 0001:000581F8       ModuleInfoComparer
 0002:0000265D       ModuleIsCpp
 0002:0000265C       ModuleIsLib
 0001:0001ABE0       ModuleUnload
 0002:00000040       ModuleUnloadList
 0002:000000F4       MonthDays
 0002:000010F0       monthnames
 0002:000011C4       monthnames
 0002:00001140       monthnames
 0001:00001930       Move
 0001:0002A890       Move
 0001:0002A888       MoveInvoke
 0001:00005AD0       MsgWaitForMultipleObjects
 0002:000009EC       Msg_Reminder
 0001:00058EAC       MultiAILimit
 0001:0000030C       MultiByteToWideChar
 0001:000059A0       MultiByteToWideChar
 0002:00000A98       n2u
 0002:00000958       Name2Sequence_Gaf
 0002:00002DDC       NanoSpotQueueUnitInfoSt
 0002:00002A78       NanoSpotQueueUnitSt
 0002:00002B90       NanoSpotUnitInfoSt
 0002:00002960       NanoSpotUnitSt
 0002:00001288       NanoUnitCreateInit
 0002:00002685       NegCurrFormat
 0001:00000FE0       NewCommit
 0001:0000100C       NewCommitAt
 0002:0000120C       NewUnitLimit
 0001:0000C924       NextCharIndex
 0002:000003D0       NilMethod
 0002:00000034       NoErrMsg
 0002:000041B4       NormToLower
 0002:000040B4       NormToUpper
 0002:000042B4       NormToUpperAnsi7
 0001:00002DA0       NotifyAnyExcept
 0001:00002D74       NotifyExcept
 0001:00002DD4       NotifyExceptFinally
 0001:00004E18       NotifyModuleUnload
 0001:00002D50       NotifyNonDelphiException
 0001:00002D8C       NotifyOnExcept
 0001:00002D34       NotifyReRaise
 0001:00002DFC       NotifyTerminate
 0001:00002E18       NotifyUnhandled
 0001:00009758       Now
 0002:00004880       ntohl
 0002:00004884       ntohs
 0001:000116A8       Null
 0002:00000330       NullAsStringValue
 0002:0000032C       NullStrictConvert
 0002:000028B4       ObjectsToFree
 0001:0001C8DC       OffsetPtr
 0001:0005F2E0       OnFinalize
 0001:0001EACC       OnFinalize
 0001:00057138       OnInit
 0001:0001EAB4       OnInitialize
 0001:0005EEE8       OnInitialize
 0001:000585D0       OnInstall
 0001:0005801C       OnInstall
 0001:000589CC       OnInstall
 0001:000286C4       OnInstall
 0001:00058CDC       OnInstall
 0001:0005EB1C       OnInstallBattlerRoomMemFix
 0001:00059818       OnInstallBuilders
 0001:0005BB30       OnInstallClockPosition
 0001:0002B748       OnInstallCobExtensions
 0001:0005B780       OnInstallColors
 0001:00046D88       OnInstallExplodeBitmaps
 0001:0005BEA4       OnInstallGUIEnhancements
 0001:00046B8C       OnInstallINI_Options
 0001:0002E25C       OnInstallKeyboardHook
 0001:0005866C       OnInstallRegPathFix
 0001:0005A13C       OnInstallResurrectPatrol
 0001:00059B04       OnInstallScriptCallsExtend
 0001:000292C0       OnInstallShareLOS
 0001:00029408       OnInstallSpeedHack
 0001:0004CE30       OnInstallStatsLogging
 0001:0005AED4       OnInstallTAExceptionsLog
 0001:0005A4CC       OnInstallUnitActions
 0001:00058B04       OnInstallUnitLimit
 0001:000592CC       OnInstallUnitsExtend
 0001:0005A958       OnInstallWeaponAimNTrajectory
 0001:00058F14       OnInstallWeaponsExtend
 0001:000585D4       OnUnInstall
 0001:000286E4       OnUnInstall
 0001:00058CE0       OnUninstall
 0001:000589D0       OnUninstall
 0001:00058020       OnUnInstall
 0001:0005EB20       OnUninstallBattlerRoomMemFix
 0001:0005981C       OnUninstallBuilders
 0001:0005BB34       OnUninstallClockPosition
 0001:0002B878       OnUninstallCobExtensions
 0001:0005BA8C       OnUninstallColors
 0001:00046D8C       OnUninstallExplodeBitmaps
 0001:0005BF50       OnUninstallGUIEnhancements
 0001:00046B90       OnUninstallINI_Options
 0001:0002E28C       OnUninstallKeyboardHook
 0001:00058670       OnUninstallRegPathFix
 0001:0005A140       OnUninstallResurrectPatrol
 0001:00059B08       OnUninstallScriptCallsExtend
 0001:000292CC       OnUninstallShareLOS
 0001:00029414       OnUninstallSpeedHack
 0001:0004CE34       OnUninstallStatsLogging
 0001:0005AED8       OnUninstallTAExceptionsLog
 0001:0005A4D0       OnUninstallUnitActions
 0001:00058B08       OnUninstallUnitLimit
 0001:000592F4       OnUninstallUnitsExtend
 0001:0005A95C       OnUninstallWeaponAimNTrajectory
 0001:00058F5C       OnUninstallWeaponsExtend
 0001:00022F78       OpenMemMap
 0001:00001B8C       OpenText
 0002:000009C8       Order2Unit
 0002:00004578       OSVersion
 0002:000044DC       OSVersionInfo
 0002:00002794       OutOfMemory
 0002:00002214       Output
 0001:0003E7E0       OutputInfo
 0001:0005A734       OverloadBugFix
 0001:00023084       PacketBufferU
 0001:00028340       packet_old
 0002:00000334       PackVarCreation
 0001:00001A5C       ParamStr
 0001:0001D2B8       ParseParams
 0001:0002AE08       PatchCode
 0001:0002373C       PatchNJump
 0001:00058AA4       PauseHandling
 0001:00058AFC       PauseLock
 0001:00005AD8       PeekMessage
 0001:00055B8C       PlayerDataU
 0001:0004CFE8       PlayerDied
 0002:0000482C       PlayerInfo
 0002:00004084       PlayerPtr
 0002:0000406C       PlayerPtr
 0002:00004058       PlayerPtr
 0001:0002923C       Player_SetAlliedState_JumpHook
 0001:00029254       Player_SetAlliedState_RetHook
 0002:000009F0       PlaySound_UnitSpeech
 0001:0002852C       PluginCommandHandlerU
 0002:00004048       PluginCommands
 0001:00024824       PluginEngine
 0001:0005EE4C       Plugins
 0002:00002910       Plugins
 0001:00013328       PointerInModule
 0001:0001D838       Power
 0001:0005E388       PrepareNanoUnit
 0002:000028D8       proc
 0002:00004CA8       proc
 0002:000028A4       Procedures
 0002:00004B58       ProhibitedFound
 0001:00016C78       PropertyNotFound
 0001:00018100       PropPathError
 0001:00016C68       PropValueError
 0002:000011F4       ProtocolVersionString
 0002:000000A8       PtrToNil
 0001:0001D4E4       PtrToStr
 0001:00008798       PutExponent
 0001:00000374       QueryPerformanceCounter
 0001:000059A8       QueryPerformanceCounter
 0001:000059B0       QueryPerformanceFrequency
 0001:00013DA0       QuickSort
 0001:0000BF54       RaiseAssertException
 0001:00015D98       RaiseException
 0001:00000234       RaiseException
 0002:00002014       RaiseExceptionProc
 0001:0000D800       RaiseLastOSError
 0001:00001ABC       Randomize
 0002:00000008       RandSeed
 0001:0002B270       RangeError
 0001:0002A67C       RawUnicodeToUtf8
 0001:000190C8       ReadCustomVariant
 0001:00016C48       ReadError
 0001:00025EA0       ReadError
 0001:000059B8       ReadFile
 0001:0000023C       ReadFile
 0001:00045BE8       ReadIniBool
 0001:0004607C       ReadINISettings
 0001:00045ED4       ReadIniString
 0001:00045D34       ReadIniValue
 0001:00002158       ReadLine
 0001:0004544C       ReadModsIniField
 0001:000059C0       ReadProcessMemory
 0002:000009F4       Receive_Sound
 0001:0004CF68       ReclaimFeatureFinished
 0001:00017634       Recover
 0002:00004888       recv
 0002:0000488C       recvfrom
 0001:0002AEC0       RedirectCode
 0002:00002818       RefAnyProc
 0001:00000314       RegCloseKey
 0001:00005780       RegCloseKey
 0001:00005788       RegCreateKeyEx
 0001:00025EFC       RegDataToDataType
 0001:00005790       RegFlushKey
 0002:00002858       RegGroups
 0001:000530F8       RegisterAuthenticationMethod
 0001:00004E74       RegisterModule
 0001:00024458       RegisterPlugin
 0001:00026B74       Registry
 0001:00005798       RegOpenKeyEx
 0001:0000031C       RegOpenKeyEx
 0001:000589C4       RegPathFix
 0002:00004BE0       RegPathFixPlugin
 0001:000057A0       RegQueryValueEx
 0001:00000324       RegQueryValueEx
 0001:000057A8       RegSetValueEx
 0002:00000050       reMap
 0002:00002614       remBytes
 0001:000004F8       RemoveBlock
 0001:00016AF8       RemoveFixupReferences
 0001:00016BB4       RemoveFixups
 0001:00016F50       RemoveGlobalFixup
 0001:0001D68C       RemoveInvalid
 0001:00004DB8       RemoveModuleUnloadProc
 0001:00004D90       RemoveModuleUnloadProc
 0001:00019880       RemoveThread
 0001:000059C8       ResetEvent
 0001:000293F4       ResetGameSpeedLimits
 0001:000292A4       ResetShareLosState
 0001:0001982C       ResetSyncEvent
 0001:00001494       ResizeInPlace
 0002:00004C5C       ResPosition
 0001:000059D0       ResumeThread
 0001:0005A4C4       ResurrectPatrol
 0002:00004C58       ResurrectPatrolPlugin
 0001:0005A328       ResurrectPatrol_AvoidEnergyAndRepair
 0001:0005A3F8       ResurrectPatrol_AvoidMetalCheck
 0001:0005A2D0       ResurrectPatrol_ReclaimToResurrect
 0001:0002ABD4       RetrieveSystemInfo
 0001:00013A20       ReturnAddr
 0001:00014748       ReturnAddr
 0002:00002610       rover
 0001:000118F4       RTLConsts
 0001:00000244       RtlUnwind
 0002:00002018       RTLUnwindProc
 0002:00000074       runErrMsg
 0001:00001838       RunErrorAt
 0001:0000E9DC       SafeArrayCreate
 0001:0000E9E4       SafeArrayGetLBound
 0001:0000E9EC       SafeArrayGetUBound
 0001:0000E9F4       SafeArrayPtrOfIndex
 0001:00006D98       SameText
 0001:0002DDCC       SaveUnitsWeaponsListToScriptorFile
 0002:00000B14       SBF_BOOL
 0001:000514A0       SBPos
 0001:0000A4D4       ScanBlanks
 0001:0000A660       ScanChar
 0001:0000A84C       ScanDate
 0001:0000A514       ScanNumber
 0001:0000A5C8       ScanString
 0001:0000ABE0       ScanTime
 0001:0000A718       ScanToNumber
 0001:0005A134       ScriptCallsExtend
 0002:00004C4C       ScriptCallsExtendPlugin
 0001:00059E30       ScriptCallsExtend_AimPrimaryBallistic
 0001:00059DF4       ScriptCallsExtend_AimPrimaryTurret_ExpCall
 0001:00059DC0       ScriptCallsExtend_AimPrimaryTurret_GetUnit
 0001:0005A0C4       ScriptCallsExtend_CallAirLoadScript
 0001:0005A0E4       ScriptCallsExtend_CallAirUnLoadScript
 0001:0005A038       ScriptCallsExtend_ConfirmedKill
 0001:00059FAC       ScriptCallsExtend_TookDamage
 0001:00059F08       ScriptCallsExtend_WeaponHitTest
 0002:000009D0       Script_ProcessCallback
 0002:000009CC       Script_RunScript
 0001:00001040       SearchSmallBlocks
 0002:00004890       select
 0001:0001FC90       SelfLocation
 0002:000028DC       SelfLocation_cache
 0002:00004894       send
 0001:00005AE0       SendMessage
 0002:00000A10       SendText
 0001:00024AFC       SendTextLocal
 0002:00004898       sendto
 0002:00000978       Send_UnitBuildFinished
 0001:00050934       ServeFile
 0001:00011234       SetClearVarToEmptyParam
 0001:0005B61C       SetColor
 0001:000177B4       SetCompName
 0001:00007B40       SetCurrentDir
 0001:000059D8       SetCurrentDirectory
 0002:00000A3C       SetCurrentDirectoryToTAPath
 0001:000059E0       SetEndOfFile
 0001:0000024C       SetEndOfFile
 0001:000059E8       SetEvent
 0001:00003328       SetExceptionHandler
 0001:00050228       SetFDSet
 0001:00000254       SetFilePointer
 0001:000059F0       SetFilePointer
 0001:00011EF8       SetFloatProp
 0002:000009E8       SetFontColor
 0001:000018BC       SetInOutRes
 0001:000121DC       SetInt64Prop
 0001:00012218       SetInterfaceProp
 0001:00018418       SetInterfaceReference
 0001:00018328       SetIntIdent
 0001:000059F8       SetLastError
 0001:00011CFC       SetLongStrProp
 0001:0005424C       SetLongword
 0002:00000A30       SetMemReadOnly
 0001:000121A4       SetMethodProp
 0001:00018374       SetObjectIdent
 0001:00011BF4       SetOrdProp
 0001:00058A74       SetPausedState
 0001:00011C50       SetShortStrProp
 0001:00011CA4       SetShortStrPropAsLongStr
 0002:0000489C       setsockopt
 0001:00011D9C       SetStrProp
 0001:00017584       SetSubComponentState
 0002:000045A4       SettingsUS
 0001:0004A8F4       SetUnitTypeMask
 0001:0001121C       SetVarAsError
 0001:00012164       SetVariantProp
 0001:000183BC       SetVariantReference
 0001:00011DF4       SetWideStrProp
 0001:00011D3C       SetWideStrPropAsLongStr
 0001:00005AE8       SetWindowsHookEx
 0001:00054230       SetWord
 0002:000008C0       ShareFlags
 0002:00000160       ShareMode
 0001:0001F5CC       SHFolder
 0001:0001F594       SHGetFolderPath
 0002:0000268C       ShortDateFormat
 0002:00002708       ShortDayNames
 0002:000026A8       ShortMonthNames
 0002:000026A0       ShortTimeFormat
 0001:0000B9C0       ShowException
 0002:0000095C       ShowExplodeGaf
 0002:000048A0       shutdown
 0001:00019860       SignalSyncEvent
 0001:000291F8       Signal_AlliedStateChange
 0001:0001D5C0       SimpleCrypt
 0001:00018B58       SkipBinary
 0001:00018B8C       SkipCollection
 0001:00018B2C       SkipList
 0001:0000D7F8       Sleep
 0001:00005A00       Sleep
 0002:0000261C       smallTab
 0002:000048A4       socket
 0002:000025E4       spaceRoot
 0002:000046B4       SpawnedMinions
 0002:00004674       SpawnedMinionsArr
 0002:000046F4       SpawnedMinionsCount
 0001:000295F4       SpeedHack
 0001:00029534       SpeedState_DecreaseSpeed_Check
 0001:0002956C       SpeedState_IncreaseSpeed_Check
 0001:0002959C       SpeedState_SetSpeed_Check
 0001:0002376C       SpliceInJump
 0002:00004C6C       squadnr
 0002:00001274       STANDARDUNIT
 0001:0005F50C       StartBuilding
 0002:00004714       StartedFrom
 0002:0000128C       State_BattlerRoomMemFix
 0002:00001250       State_Builders
 0002:0000126C       State_ClockPosition
 0002:00000B24       State_COB_extensions
 0002:00001268       State_Colors
 0002:00000B34       State_ExplodeBitmaps
 0002:00001270       State_GUIEnhancements
 0002:00000B30       State_INI_Options
 0002:00000B28       State_KeyboardHook
 0002:00001214       State_MultiAILimit
 0002:00001204       State_PauseLock
 0002:00001200       State_RegPathFix
 0002:00001258       State_ResurrectPatrol
 0002:00001254       State_ScriptCallsExtend
 0002:00000A7C       State_SpeedHack
 0002:00000B7C       State_StatsLogging
 0002:00001264       State_TAExceptionsLog
 0002:0000125C       State_UnitActions
 0002:00001210       State_UnitLimit
 0002:00001230       State_UnitsExtend
 0002:00001260       State_WeaponAimNTrajectory
 0002:0000121C       State_WeaponsExtend
 0001:0004CFB0       StatLog_PlayerDied
 0001:0004CF08       StatLog_ReclaimFeatureLocal
 0002:00000B80       statslog
 0001:0004DCEC       StatsLogging
 0001:000548DC       StatusToStr
 0002:00001208       StopPauseStateChange
 0001:000228DC       StopWatch
 0001:00007CDC       StrAlloc
 0001:0000C5F0       StrByteType
 0001:0000C884       StrCharLength
 0002:00000B4C       StrCustAnim1
 0002:00000B70       StrCustAnim10
 0002:00000B50       StrCustAnim2
 0002:00000B54       StrCustAnim3
 0002:00000B58       StrCustAnim4
 0002:00000B5C       StrCustAnim5
 0002:00000B60       StrCustAnim6
 0002:00000B64       StrCustAnim7
 0002:00000B68       StrCustAnim8
 0002:00000B6C       StrCustAnim9
 0002:00000B48       StrExplode10
 0002:00000B38       StrExplode6
 0002:00000B3C       StrExplode7
 0002:00000B40       StrExplode8
 0002:00000B44       StrExplode9
 0001:00015B9C       StringListCompareStrings
 0001:0000D69C       StringReplace
 0001:0001DC64       StripFromString
 0001:00007BD8       StrLCopy
 0001:0002AA2C       StrLen
 0001:00007B94       StrLen
 0001:0000852C       StrLFmt
 0001:00007C0C       StrLIComp
 0001:00007BAC       StrMove
 0001:00007D08       StrNew
 0001:0000C8B8       StrNextChar
 0001:00007C88       StrPos
 0001:00007C50       StrScan
 0001:0000ADFC       StrToDate
 0001:0000AEF4       StrToDateTime
 0001:00009164       StrToFloat
 0001:00007248       StrToInt
 0001:00007288       StrToIntDef
 0001:0000AE78       StrToTime
 0001:00045668       StrUtils
 0001:00057BE0       StubCall
 0002:000009E4       sub_4C13F0
 0001:0000DF54       Supports
 0001:0000DF90       Supports
 0001:0001FA88       SupportsCompression
 0002:00000B20       SupportsSSE2
 0002:0000093C       SwitchesMasks
 0001:0002EC0C       SwitchSetShareEnergy
 0002:00000A90       SynAnsiConvertList
 0002:0000284C       SyncEvent
 0001:0001DDB4       SyncHeaders
 0002:00000458       SyncList
 0001:0001B57C       SyncObjs
 0001:0002B6AC       SynCommons
 0002:00000B1C       SynLogExceptionEnabled
 0001:00029664       SynLZ
 0002:00000B10       SynVariantTypes
 0001:0000033C       SysAllocStringLen
 0001:00005F4C       SysConst
 0001:0000AFC0       SysErrorMessage
 0001:000012F0       SysFreeMem
 0001:0000034C       SysFreeString
 0001:00001160       SysGetMem
 0001:00005740       SysInit
 0002:00002740       SysLocale
 0001:00001670       SysReallocMem
 0001:00000344       SysReAllocStringLen
 0001:000054A8       System
 0002:000044B8       SystemInfo
 0001:0000E488       SysUtils
 0002:00004828       TAData
 0001:0002026C       TADemoConsts
 0002:000028E0       TADemoVersion_cache
 0001:0005B614       TAExceptionsLog
 0002:00004C7C       TAExceptionsLogPlugin
 0001:0005B5A8       TAExceptionsLog_AIBuildUnitInfoTooHigh
 0001:0005B1FC       TAExceptionsLog_COBCallbackEmptyCOB
 0001:0005B488       TAExceptionsLog_COBRunScriptEmptyCOB
 0001:00045980       TaFileExists
 0001:00047A20       TAMem.Crc32ToCrc24
 0001:00047AEC       TAMem.FeatureDefId2Ptr
 0001:00047794       TAMem.GetActualUnitLimit
 0001:0004773C       TAMem.GetDevMode
 0001:0004770C       TAMem.GetGameSpeed
 0001:000476E0       TAMem.GetGameTime
 0001:000477BC       TAMem.GetIsAlteredUnitLimit
 0001:00047808       TAMem.GetMainStructPtr
 0001:00047B30       TAMem.GetMaxUnitId
 0001:0004776C       TAMem.GetMaxUnitLimit
 0001:00047824       TAMem.GetPlayersStructPtr
 0001:000478D4       TAMem.GetSwitchesMask
 0001:000478B0       TAMem.GetUnitInfosCount
 0001:0004788C       TAMem.GetUnitInfosPtr
 0001:000477E4       TAMem.GetUnitsPtr
 0001:000476BC       TAMem.GetViewPlayer
 0001:00047848       TAMem.GetWeaponTypeDefArrayPtr
 0001:00047624       TAMem.IsTAVersion31
 0001:00047A40       TAMem.MovementClassId2Ptr
 0001:00047B84       TAMem.ProtectMemoryRegion
 0001:00047924       TAMem.SetPausedState
 0001:000478FC       TAMem.SetSwitchesMask
 0001:0004798C       TAMem.UnitInfoCrc2Ptr
 0001:00047950       TAMem.UnitInfoId2Ptr
 0001:00047A74       TAMem.WeaponId2Ptr
 0001:00054800       TAMemManipulations
 0001:00047DEC       TAPlayer.GetAlliedState
 0001:00047DC4       TAPlayer.GetIsWatcher
 0001:00047CF0       TAPlayer.GetPlayerByDPID
 0001:00047CA4       TAPlayer.GetPlayerByIndex
 0001:00047BE8       TAPlayer.GetShareEnergy
 0001:00047BC4       TAPlayer.GetShareEnergyVal
 0001:00047C14       TAPlayer.GetShootAll
 0001:00047D8C       TAPlayer.PlayerSide
 0001:00047D70       TAPlayer.PlayerType
 0001:00047C48       TAPlayer.SetShootAll
 0002:00004C50       TargetUnit_Turret
 0001:00049018       TAUnit.AtMouse
 0001:00049070       TAUnit.AtPosition
 0001:000488BC       TAUnit.AttachDetachUnit
 0001:000497A4       TAUnit.CallCobWithCallback
 0001:0004974C       TAUnit.CreateMainOrder
 0001:00049300       TAUnit.CreateUnit
 0001:00049700       TAUnit.EditCurrentOrderParams
 0001:00048DD0       TAUnit.FireWeapon
 0001:00048420       TAUnit.GetAttackerID
 0001:000493F0       TAUnit.GetBuildPercentLeft
 0001:00047FB0       TAUnit.GetCloak
 0001:00049604       TAUnit.GetCurrentOrderParams
 0001:00049678       TAUnit.GetCurrentOrderPos
 0001:00049648       TAUnit.GetCurrentOrderState
 0001:000496D0       TAUnit.GetCurrentOrderTargetUnit
 0001:000495D0       TAUnit.GetCurrentOrderType
 0001:00049190       TAUnit.GetCurrentSpeedVal
 0001:00047E54       TAUnit.GetHealth
 0001:0004989C       TAUnit.GetId
 0001:00047E30       TAUnit.GetKills
 0001:00048A58       TAUnit.GetLoadCurAmount
 0001:000489BC       TAUnit.GetLoadWeight
 0001:000498CC       TAUnit.GetLongId
 0001:0004986C       TAUnit.GetOwnerIndex
 0001:0004984C       TAUnit.GetOwnerPtr
 0001:000484C0       TAUnit.GetPriorUnit
 0001:0004850C       TAUnit.GetRandomFreePiece
 0001:00048460       TAUnit.GetTransporterUnit
 0001:00048490       TAUnit.GetTransportingUnit
 0001:00048218       TAUnit.GetTurnX
 0001:00048298       TAUnit.GetTurnY
 0001:00048258       TAUnit.GetTurnZ
 0001:00048940       TAUnit.GetUnitAttachedTo
 0001:000499CC       TAUnit.GetUnitInfoCrc
 0001:00049F58       TAUnit.GetUnitInfoField
 0001:000499A8       TAUnit.GetUnitInfoId
 0001:00049A0C       TAUnit.GetUnitInfoPtr
 0001:00048028       TAUnit.GetUnitX
 0001:000481D8       TAUnit.GetUnitY
 0001:00048100       TAUnit.GetUnitZ
 0001:00048330       TAUnit.GetWeapon
 0001:00049C54       TAUnit.GrantUnitInfo
 0001:00049954       TAUnit.Id2LongId
 0001:000498EC       TAUnit.Id2Ptr
 0001:00049AB8       TAUnit.IsAllied
 0001:00049A2C       TAUnit.IsOnThisComp
 0001:00049288       TAUnit.IsPlantYardOccupied
 0001:00049B20       TAUnit.IsRemoteIdLocal
 0001:00049B84       TAUnit.IsUnitTypeInCategory
 0001:00049450       TAUnit.Kill
 0001:00047E78       TAUnit.MakeDamage
 0001:00048B28       TAUnit.Play3DSound
 0001:00048B6C       TAUnit.PlayGafAnim
 0001:000490AC       TAUnit.Position2Grid
 0001:00049EB8       TAUnit.SearchCustomUnitInfos
 0001:00047FF0       TAUnit.SetCloak
 0001:000491BC       TAUnit.SetCurrentSpeed
 0001:000482D8       TAUnit.SetTemplate
 0001:00048238       TAUnit.SetTurnX
 0001:000482B8       TAUnit.SetTurnY
 0001:00048278       TAUnit.SetTurnZ
 0001:0004A9B8       TAUnit.SetUnitInfoField
 0001:00048048       TAUnit.SetUnitX
 0001:000481F8       TAUnit.SetUnitY
 0001:00048120       TAUnit.SetUnitZ
 0001:000483B8       TAUnit.SetWeapon
 0001:00048AFC       TAUnit.Speech
 0001:0004953C       TAUnit.SwapByKill
 0001:000492B4       TAUnit.TestAttachAtGridSpot
 0001:000491E4       TAUnit.TestBuildSpot
 0001:00048AC0       TAUnit.UpdateLos
 0001:0004CBDC       TAUnits.CircleCoords
 0001:0004C750       TAUnits.ClearSearchRec
 0001:0004B7EC       TAUnits.CreateMinions
 0001:0004BE7C       TAUnits.CreateSearchFilter
 0001:0004CB38       TAUnits.Distance
 0001:0004BF2C       TAUnits.GetRandomArrayId
 0001:0004BE3C       TAUnits.GiveUnit
 0001:0004C808       TAUnits.RandomizeSearchRec
 0001:0004BFFC       TAUnits.SearchUnits
 0001:0004C618       TAUnits.UnitsIntoGetterArray
 0002:00000A34       TA_Atan2
 0002:000009C4       TA_AttachDetachUnit
 0001:00024B7C       TA_FunctionsU
 0002:000009C0       TA_GiveUnit
 0001:00024BB4       TA_MemoryConstants
 0001:0004CCF8       TA_MemoryLocations
 0001:00024AA4       TA_MemoryStructures
 0001:0002962C       TA_NetworkingMessages
 0002:00000964       TA_UpdateLOS
 0002:00000960       TA_UpdateUnitLOS
 0001:000543F8       TCheckMemoryCheats.Execute
 0001:00013640       TClassFinder.GetClass
 0001:000238D8       TCodeInjection.Create
 0001:0002391C       TCodeInjection.RestoreProc
 0001:00023DC4       TCodeInjection_RelativeJmp.Create
 0001:00023E2C       TCodeInjection_RelativeJmp.WriteProc
 0001:00023A5C       TCodeInjection_Replacement.WriteProc
 0001:00023C10       TCodeInjection_StaticCall.WriteProc
 0001:00014308       TCollection.Add
 0001:00014334       TCollection.Clear
 0001:00022144       TCommandHandler.Create
 0001:00022518       TCommands.AddCommand
 0001:000223AC       TCommands.AddCommandAlias
 0001:00022304       TCommands.ClearCommands
 0001:000221F0       TCommands.Create
 0001:0002225C       TCommands.destroy
 0001:000222A0       TCommands.GetCount
 0001:000222D0       TCommands.GetItem
 0001:00022364       TCommands.LookUpCommand
 0001:0001A0F4       TComponent.BeforeDestruction
 0001:0001A87C       TComponent.ChangeName
 0001:00019FF4       TComponent.Create
 0001:0001A498       TComponent.DefineProperties
 0001:0001A050       TComponent.Destroy
 0001:0001A2D4       TComponent.DestroyComponents
 0001:0001A344       TComponent.Destroying
 0001:0001A9D4       TComponent.ExecuteAction
 0001:0001A758       TComponent.FindComponent
 0001:0001A568       TComponent.GetChildOwner
 0001:0001A580       TComponent.GetChildParent
 0001:0001A554       TComponent.GetChildren
 0001:0001A89C       TComponent.GetComponent
 0001:0001A8DC       TComponent.GetComponentCount
 0001:0001A598       TComponent.GetNamePath
 0001:0001A5B8       TComponent.GetOwner
 0001:0001A5E8       TComponent.GetParentComponent
 0001:0001A540       TComponent.HasParent
 0001:0001A190       TComponent.Insert
 0001:0001A21C       TComponent.InsertComponent
 0001:0001AB4C       TComponent.IntfGetComponent
 0001:0001A638       TComponent.Loaded
 0001:0001A410       TComponent.Notification
 0001:0001A64C       TComponent.PaletteCreated
 0001:0001AA9C       TComponent.QueryInterface
 0001:0001A110       TComponent.ReadLeft
 0001:0001A658       TComponent.ReadState
 0001:0001A130       TComponent.ReadTop
 0001:0001A1D4       TComponent.Remove
 0001:0001A28C       TComponent.RemoveComponent
 0001:0001A3E8       TComponent.RemoveFreeNotification
 0001:0001A3A0       TComponent.RemoveNotification
 0001:0001AA3C       TComponent.SafeCallException
 0001:0001A5D4       TComponent.SetChildOrder
 0001:0001A908       TComponent.SetDesigning
 0001:0001A7C4       TComponent.SetName
 0001:0001A600       TComponent.SetParentComponent
 0001:0001A970       TComponent.SetReference
 0001:0001AA08       TComponent.UpdateAction
 0001:0001A624       TComponent.Updated
 0001:0001AA84       TComponent.UpdateRegistry
 0001:0001A610       TComponent.Updating
 0001:0001A724       TComponent.ValidateContainer
 0001:0001A748       TComponent.ValidateInsert
 0001:0001A690       TComponent.ValidateRename
 0001:0001A150       TComponent.WriteLeft
 0001:0001A674       TComponent.WriteState
 0001:0001A170       TComponent.WriteTop
 0001:0001AAEC       TComponent._AddRef
 0001:0001AB1C       TComponent._Release
 0001:00022948       TConsoleTimer.Create
 0001:000229CC       TConsoleTimer.Destroy
 0001:00022A80       TConsoleTimer.Execute
 0001:00022A34       TConsoleTimer.SetEnabled
 0001:00022A64       TConsoleTimer.SetInterval
 0001:0001B51C       TCriticalSection.Acquire
 0001:0001B48C       TCriticalSection.Create
 0001:0001B4DC       TCriticalSection.Destroy
 0001:0001B534       TCriticalSection.Release
 0001:00024D94       TCustomIniFile.Create
 0001:000254FC       TCustomIniFile.ReadBinaryStream
 0001:00024F78       TCustomIniFile.ReadBool
 0001:00024FAC       TCustomIniFile.ReadDate
 0001:00025068       TCustomIniFile.ReadDateTime
 0001:00025124       TCustomIniFile.ReadFloat
 0001:00024E48       TCustomIniFile.ReadInteger
 0001:000251E0       TCustomIniFile.ReadTime
 0001:00024DDC       TCustomIniFile.SectionExists
 0001:0002548C       TCustomIniFile.ValueExists
 0001:00025670       TCustomIniFile.WriteBinaryStream
 0001:00025458       TCustomIniFile.WriteBool
 0001:0002529C       TCustomIniFile.WriteDate
 0001:00025304       TCustomIniFile.WriteDateTime
 0001:0002536C       TCustomIniFile.WriteFloat
 0001:00024F14       TCustomIniFile.WriteInteger
 0001:000253D8       TCustomIniFile.WriteTime
 0001:000163CC       TCustomMemoryStream.Read
 0001:0001643C       TCustomMemoryStream.Seek
 0001:000163A4       TCustomMemoryStream.SetPointer
 0001:000112D0       TCustomVariantType.BinaryOp
 0001:000112DC       TCustomVariantType.Cast
 0001:00011314       TCustomVariantType.CastTo
 0001:000113A0       TCustomVariantType.CastToOle
 0001:0001135C       TCustomVariantType.Compare
 0001:00011368       TCustomVariantType.CompareOp
 0001:000113DC       TCustomVariantType.Destroy
 0001:000114BC       TCustomVariantType.DispInvoke
 0001:00011468       TCustomVariantType.IsClear
 0001:0001146C       TCustomVariantType.LeftPromotion
 0001:00011480       TCustomVariantType.OlePromotion
 0001:000114E0       TCustomVariantType.QueryInterface
 0001:00011488       TCustomVariantType.RaiseCastError
 0001:00011498       TCustomVariantType.RaiseDispError
 0001:00011490       TCustomVariantType.RaiseInvalidOp
 0001:000114A0       TCustomVariantType.RightPromotion
 0001:000114B4       TCustomVariantType.UnaryOp
 0001:000114C8       TCustomVariantType._AddRef
 0001:000114D4       TCustomVariantType._Release
 0002:000009B8       TdfFile__GetInt
 0002:000009BC       TdfFile__GetStr
 0001:00039C64       TDPlay.AddGroupToGroup
 0001:00038CE0       TDPlay.AddPlayerToGroup
 0001:00031F60       TDPlay.ChatMsgHandler
 0001:00030490       TDPlay.checkForCheats
 0001:00040FE4       TDPlay.Close
 0001:00041D10       TDPlay.Create
 0001:00039644       TDPlay.CreateGroup
 0001:00038DE0       TDPlay.CreateGroup
 0001:00039CE0       TDPlay.CreateGroupInGroup
 0001:00032C30       TDPlay.createlogfile
 0001:0003A2F0       TDPlay.CreatePlayer
 0001:00038D5C       TDPlay.CreatePlayer
 0001:00039D6C       TDPlay.DeleteGroupFromGroup
 0001:00038E60       TDPlay.DeletePlayerFromGroup
 0001:00045088       TDPlay.Destroy
 0001:00038EDC       TDPlay.DestroyGroup
 0001:0003A5A4       TDPlay.DestroyPlayer
 0001:00031754       TDPlay.dobase
 0001:00038F54       TDPlay.EnableNewPlayers
 0001:0003A9C0       TDPlay.EnumConnections
 0001:00038FCC       TDPlay.EnumGroupPlayers
 0001:000396CC       TDPlay.EnumGroupPlayers
 0001:00039754       TDPlay.EnumGroups
 0001:00039050       TDPlay.EnumGroups
 0001:00039DE8       TDPlay.EnumGroupsInGroup
 0001:000390D4       TDPlay.EnumPlayers
 0001:0003A6C8       TDPlay.EnumPlayers
 0001:0003A788       TDPlay.EnumSessions
 0001:00039158       TDPlay.EnumSessions
 0001:00040A1C       TDPlay.ExceptMessage
 0001:00041820       TDPlay.Exiting
 0001:000341E0       TDPlay.facexpshandler
 0001:00033A10       TDPlay.fnRemoveInvalidChar
 0001:000391E0       TDPlay.GetCaps
 0001:000397D8       TDPlay.GetCaps
 0001:0003C014       TDPlay.GetFixFacExps
 0001:00040CA8       TDPlay.GetGoodSource
 0001:00039E70       TDPlay.GetGroupConnectionSettings
 0001:00039854       TDPlay.GetGroupData
 0001:0003A0F8       TDPlay.GetGroupFlags
 0001:000398D8       TDPlay.GetGroupName
 0001:0003A174       TDPlay.GetGroupParent
 0001:00039258       TDPlay.GetMessageCount
 0001:0003A1F0       TDPlay.GetPlayerAccount
 0001:0003A80C       TDPlay.GetPlayerAddress
 0001:000392D4       TDPlay.GetPlayerCaps
 0001:00039958       TDPlay.GetPlayerCaps
 0001:000399D8       TDPlay.GetPlayerData
 0001:0003A274       TDPlay.GetPlayerFlags
 0001:00039350       TDPlay.GetPlayerName
 0001:0003AAC0       TDPlay.GetPlayerName
 0001:0003C048       TDPlay.GetProtectDT
 0001:000304E4       TDPlay.GetRandomMap
 0001:00030A44       TDPlay.GetRandomMapEx
 0001:00031E50       TDPlay.getRecorderStatusString
 0001:00040DC0       TDPlay.GetServerPlayer
 0001:0003A8D0       TDPlay.GetSessionDesc
 0001:00033E48       TDPlay.Handleunitdata
 0001:00040DFC       TDPlay.ImServer
 0001:00030CB0       TDPlay.initbuilding
 0001:00030D44       TDPlay.initfastbase
 0001:000393D8       TDPlay.Initialize
 0001:0003AA44       TDPlay.InitializeConnection
 0001:000401C0       TDPlay.On3dta
 0001:0003F038       TDPlay.OnAbout
 0001:0003F89C       TDPlay.OnAddFilter
 0001:0003DF18       TDPlay.OnAutoPause
 0001:0003E5CC       TDPlay.OnBase
 0001:0003DEA0       TDPlay.OnBaseOff
 0001:0003E104       TDPlay.OnCmdwarp
 0001:0003EE84       TDPlay.OnCrash
 0001:0003ED00       TDPlay.OnCrashMe
 0001:00040468       TDPlay.OnCreatetxt
 0001:0003CF50       TDPlay.OnDate
 0001:0003F82C       TDPlay.OnDisableFilter
 0001:0003E680       TDPlay.OnDoBase
 0001:0003C300       TDPlay.OnEhaoff
 0001:0003C3CC       TDPlay.OnEhaOn
 0001:0003C560       TDPlay.Onehareport
 0001:000409FC       TDPlay.OnException
 0001:0003E054       TDPlay.Onf1off
 0001:0004071C       TDPlay.OnFakeWatch
 0001:000304A8       TDPlay.OnFinishedCheatsCheck
 0001:0003F184       TDPlay.OnFixall
 0001:0003C188       TDPlay.OnFixDisabled
 0001:0003C244       TDPlay.OnFixEnabled
 0001:0003F1EC       TDPlay.OnFixFactoryExplosions
 0001:000407A8       TDPlay.OnForceCd
 0001:0003D3B0       TDPlay.OnForceGo
 0001:0003D41C       TDPlay.OnGive
 0001:0003E908       TDPlay.OnHelp
 0001:0003DDB8       TDPlay.OnHookReport
 0001:0004050C       TDPlay.OnLockOn
 0001:0003ED44       TDPlay.OnLoggingVerbosity
 0001:000408BC       TDPlay.OnLookUpAddr
 0001:000303FC       TDPlay.OnMemoryCheckTick
 0001:000403C4       TDPlay.OnOnlyUnits
 0001:0003EF80       TDPlay.OnPanic
 0001:0003C6D8       TDPlay.OnPlayers
 0001:0003C9FC       TDPlay.Onpolldp
 0001:00030438       TDPlay.OnProcessCheckTick
 0001:0003F2D4       TDPlay.OnProtectDT
 0001:00040620       TDPlay.OnRandMap
 0001:000406EC       TDPlay.OnRandMapEx
 0001:0003FE9C       TDPlay.OnRecord
 0001:0003FB80       TDPlay.OnRemoveFilter
 0001:00040D20       TDPlay.OnRemovePlayer
 0001:0003CC24       TDPlay.OnReport
 0001:0003F690       TDPlay.OnReportFilter
 0001:0003CD54       TDPlay.OnReportMod
 0001:0003C07C       TDPlay.OnShareLos
 0001:0003F3AC       TDPlay.OnSharemapPos
 0001:0003EBD0       TDPlay.OnStatus
 0001:0003D550       TDPlay.OnStopGive
 0001:00040378       TDPlay.OnStopLog
 0001:0003E570       TDPlay.OnSyncOff
 0001:0003E1B4       TDPlay.OnSyncon
 0001:0003C494       TDPlay.OnTaHookOff
 0001:0003D9DC       TDPlay.OnTake
 0001:0003F4E4       TDPlay.OnTime
 0001:0003D630       TDPlay.OnUnits
 0001:0003D230       TDPlay.OnVoteGo
 0001:0003D05C       TDPlay.OnVoteReady
 0001:0003ECA8       TDPlay.OnYankspank
 0001:00040E30       TDPlay.Open
 0001:00039450       TDPlay.Open
 0001:00034564       TDPlay.PacketHandler
 0001:00032928       TDPlay.PacketLostHandler
 0001:000394C8       TDPlay.Receive
 0001:0003B50C       TDPlay.Receive
 0001:00041094       TDPlay.ResetRecorder
 0001:00039550       TDPlay.SaveSession
 0001:00039EF4       TDPlay.SecureOpen
 0001:0003B0C0       TDPlay.Send
 0001:0002FAA8       TDPlay.SendAlliedChat
 0001:0002F5D0       TDPlay.SendChat
 0001:0002F714       TDPlay.SendChatLocal
 0001:0002F844       TDPlay.SendChatLocal2
 0001:00039F78       TDPlay.SendChatMessage
 0001:0002FFC4       TDPlay.SendClipboard
 0001:0003008C       TDPlay.SendCobEventMessage
 0001:0002F908       TDPlay.SendLocal
 0001:0002F938       TDPlay.SendLocal
 0001:0002FE3C       TDPlay.SendRecorderToRecorderMsg
 0001:0002FB78       TDPlay.SendRecorderToRecorderMsg2
 0001:00034464       TDPlay.SetAutoPauseAtStart
 0001:00034484       TDPlay.SetCommanderWarp
 0001:000344C0       TDPlay.SetF1Disable
 0001:0003451C       TDPlay.SetFastSpeed
 0001:00039FFC       TDPlay.SetGroupConnectionSettings
 0001:00039A5C       TDPlay.SetGroupData
 0001:00039AE0       TDPlay.SetGroupName
 0001:00039B60       TDPlay.SetPlayerData
 0001:000395C4       TDPlay.SetPlayerName
 0001:00039BE4       TDPlay.SetPlayerName
 0001:0003A948       TDPlay.SetSessionDesc
 0001:00034540       TDPlay.SetSlowSpeed
 0001:000344FC       TDPlay.SetSpeedLock
 0001:00033BDC       TDPlay.SmartPak
 0001:0003A07C       TDPlay.StartSession
 0001:00032860       TDPlay.UnitCountChange
 0001:0002AFA4       TDynArray.Add
 0001:0002B0F0       TDynArray.Clear
 0001:0002B104       TDynArray.GetCount
 0001:0002B15C       TDynArray.Init
 0001:0002B01C       TDynArray.Insert
 0001:0002B2D0       TDynArray.InternalSetLength
 0001:0002B244       TDynArray.IsVoid
 0001:0002B528       TDynArray.SetCapacity
 0001:0002B44C       TDynArray.SetCount
 0001:0001FD60       TempPath
 0001:00051244       TempPath
 0002:00004BF8       TempString
 0001:0005433C       TEnumWindowsThread.Execute
 0002:00000320       TerminateProcList
 0002:00002046       Test8086
 0001:00054120       TestByte
 0001:00054158       TestByte
 0001:000541A4       TestBytes
 0002:00000A18       TestGridSpot
 0001:0002B5C4       TestIfSupportsSSE2
 0002:00004088       TestPlayer
 0002:00004070       TestPlayer
 0002:00004050       TestPlayerIndex
 0002:00004054       TestPlayerPtr
 0001:0001B3AC       TEvent.Create
 0001:0001B428       TEvent.ResetEvent
 0001:0001B410       TEvent.SetEvent
 0001:00001C88       TextClose
 0001:000292D8       TextCommand_View_Hook
 0001:0001D7C8       textdata
 0001:0002059C       TextFileU
 0001:00001BFC       TextIn
 0001:00001CA8       TextOpen
 0001:00001C3C       TextOut
 0001:00008FB4       TextToFloat
 0001:000166C8       TFiler.Create
 0001:00016724       TFiler.Destroy
 0001:00016764       TFiler.SetRoot
 0001:000161FC       TFileStream.Create
 0001:000161AC       TFileStream.Create
 0001:0001635C       TFileStream.Destroy
 0001:0001B830       TGpHugeFile.AccessFile
 0001:0001C6D4       TGpHugeFile.AllocBuffer
 0001:0001C044       TGpHugeFile.BlockWrite
 0001:0001CC30       TGpHugeFile.BlockWriteUnsafe
 0001:0001BE80       TGpHugeFile.CheckHandle
 0001:0001BDC8       TGpHugeFile.Close
 0001:0001B6C0       TGpHugeFile.CreateEx
 0001:0001B778       TGpHugeFile.Destroy
 0001:0001C570       TGpHugeFile.FilePos
 0001:0001CF70       TGpHugeFile.FileSize
 0001:0001BEEC       TGpHugeFile.FileSizeNoCache
 0001:0001C634       TGpHugeFile.Flush
 0001:0001CB6C       TGpHugeFile.FlushBuffer
 0001:0001C80C       TGpHugeFile.FreeBuffer
 0001:0001CFEC       TGpHugeFile.InitReadBuffer
 0001:0001CFB8       TGpHugeFile.InitWriteBuffer
 0001:0001CCEC       TGpHugeFile.IsOpen
 0001:0001CF08       TGpHugeFile.LoadedToTheEOF
 0001:0001BAD8       TGpHugeFile.ResetEx
 0001:0001BC64       TGpHugeFile.RewriteEx
 0001:0001C6A8       TGpHugeFile.RoundToPageSize
 0001:0001C400       TGpHugeFile.Seek
 0001:0001C8F8       TGpHugeFile.Transmit
 0001:0001C484       TGpHugeFile.Truncate
 0001:0001CEC0       TGpHugeFile.Win32Check
 0001:0001C19C       TGpHugeFile._Seek
 0001:0001B36C       THandleObject.Destroy
 0001:00016068       THandleStream.Create
 0001:000160B8       THandleStream.Read
 0001:00016128       THandleStream.Seek
 0001:0001615C       THandleStream.SetSize
 0001:0001617C       THandleStream.SetSize
 0001:000160F0       THandleStream.Write
 0002:00002686       ThousandSeparator
 0002:0000287C       ThreadCount
 0002:00002864       ThreadLock
 0001:0005F4D4       threadlogging
 0001:00019A34       ThreadProc
 0001:0000376C       ThreadWrapper
 0001:00058664       Thread_marshaller
 0001:0001CD08       ThrowCase1
 0001:0001CE00       ThrowCase2
 0001:00053224       TIdAuthentication.Create
 0001:00053280       TIdAuthentication.Destroy
 0001:00053398       TIdAuthentication.GetPassword
 0001:00053478       TIdAuthentication.GetSteps
 0001:000533D0       TIdAuthentication.GetUserName
 0001:000532C8       TIdAuthentication.ReadAuthInfo
 0001:0005338C       TIdAuthentication.Reset
 0001:00053408       TIdAuthentication.SetPassword
 0001:00053440       TIdAuthentication.SetUserName
 0001:000534DC       TIdBasicAuthentication.Authentication
 0001:00053490       TIdBasicAuthentication.Create
 0001:0005358C       TIdBasicAuthentication.DoNext
 0001:00053750       TIdBasicAuthentication.GetSteps
 0001:00053720       TIdBasicAuthentication.KeepAlive
 0001:00053734       TIdBasicAuthentication.Reset
 0001:0005277C       TIdDecoder4to3.ConstructDecodeTable
 0001:000527E4       TIdDecoder4to3.DecodeToStream
 0001:0005298C       TIdDecoder4to3.DecodeUnit
 0001:00052474       TIdEncoder.Encode
 0001:000524EC       TIdEncoder.EncodeString
 0001:00052A08       TIdEncoder3to4.Encode
 0001:00052BF8       TIdEncoder3to4.EncodeUnit
 0001:00052DC4       TIdEncoderMIME.Create
 0001:00051B04       TIdHeaderList.Create
 0001:00051B80       TIdHeaderList.DeleteFoldedLines
 0001:00051C2C       TIdHeaderList.FoldAndInsert
 0001:00051D18       TIdHeaderList.FoldLine
 0001:00051E30       TIdHeaderList.GetNameFromLine
 0001:00051EE8       TIdHeaderList.GetValue
 0001:00051F14       TIdHeaderList.GetValueFromLine
 0001:00052050       TIdHeaderList.IndexOfName
 0001:000520E0       TIdHeaderList.SetValue
 0001:000514C4       TIdReadMemoryStream.SetPointer
 0001:000514F4       TIdReadMemoryStream.Write
 0001:00050CA8       TIdSocketListWindows.Add
 0001:00050D28       TIdSocketListWindows.Count
 0001:00050D44       TIdSocketListWindows.GetItem
 0001:00050DC8       TIdSocketListWindows.Remove
 0001:0004F4C4       TIdStack.CheckForSocketError
 0001:0004F4EC       TIdStack.CheckForSocketError
 0001:0004F5C4       TIdStack.Create
 0001:0004FA38       TIdStack.Destroy
 0001:0004F55C       TIdStack.RaiseSocketError
 0001:0004FA74       TIdStack.StringToTInAddr
 0001:0004F5FC       TIdStack.WSTranslateSocketErrorMsg
 0001:0004FC5C       TIdStackWindows.Create
 0001:0004FD24       TIdStackWindows.Destroy
 0001:00050848       TIdStackWindows.PopulateLocalAddresses
 0001:0004FD58       TIdStackWindows.TInAddrToString
 0001:000509FC       TIdStackWindows.TranslateStringToTInAddr
 0001:0004FE18       TIdStackWindows.WSAccept
 0001:0004FEB0       TIdStackWindows.WSBind
 0001:0004FF20       TIdStackWindows.WSCloseSocket
 0001:0004FF44       TIdStackWindows.WSConnect
 0001:0005001C       TIdStackWindows.WSGetHostByAddr
 0001:0004FFA0       TIdStackWindows.WSGetHostByName
 0001:00050078       TIdStackWindows.WSGetHostName
 0001:00050520       TIdStackWindows.WSGetLastError
 0001:00050910       TIdStackWindows.WSGetLocalAddress
 0001:000504E4       TIdStackWindows.WSGetLocalAddresses
 0001:00050B20       TIdStackWindows.WSGetPeerName
 0001:000505BC       TIdStackWindows.WSGetServByName
 0001:000506D0       TIdStackWindows.WSGetServByPort
 0001:00050BC8       TIdStackWindows.WSGetSockName
 0001:00050C70       TIdStackWindows.WSGetSockOpt
 0001:00050800       TIdStackWindows.WSHToNL
 0001:0005056C       TIdStackWindows.WSHToNs
 0001:000500C8       TIdStackWindows.WSListen
 0001:00050824       TIdStackWindows.WSNToHL
 0001:00050594       TIdStackWindows.WSNToHs
 0001:000500F4       TIdStackWindows.WSRecv
 0001:00050128       TIdStackWindows.WSRecvFrom
 0001:000502D8       TIdStackWindows.WSSelect
 0001:00050400       TIdStackWindows.WSSend
 0001:00050434       TIdStackWindows.WSSendTo
 0001:000504AC       TIdStackWindows.WSSetSockOpt
 0001:00050AF4       TIdStackWindows.WSShutdown
 0001:0005053C       TIdStackWindows.WSSocket
 0001:00050E34       TIdStackWindows.WSTranslateSocketErrorMsg
 0002:00002698       TimeAMString
 0001:0001B114       timeBeginPeriod
 0001:0001B11C       timeGetDevCaps
 0001:0001B124       timeGetTime
 0002:0000269C       TimePMString
 0002:00002694       TimeSeparator
 0001:0000A474       TimeToStr
 0001:00025CC0       TIniFile.DeleteKey
 0001:000257E0       TIniFile.Destroy
 0001:00025C64       TIniFile.EraseSection
 0001:000259F8       TIniFile.ReadSection
 0001:000258EC       TIniFile.ReadSections
 0001:00025B10       TIniFile.ReadSectionValues
 0001:0002581C       TIniFile.ReadString
 0001:00025CF8       TIniFile.UpdateFile
 0001:0002587C       TIniFile.WriteString
 0001:00004F44       TInterfacedObject.AfterConstruction
 0001:00004F50       TInterfacedObject.BeforeDestruction
 0001:00004F60       TInterfacedObject.NewInstance
 0001:00004F70       TInterfacedObject.QueryInterface
 0001:00004F98       TInterfacedObject._AddRef
 0001:00004FAC       TInterfacedObject._Release
 0001:00058014       TlHelp32
 0001:00013914       TList.Add
 0001:0001396C       TList.Clear
 0001:0001398C       TList.Delete
 0001:000138E8       TList.Destroy
 0001:00013A68       TList.Error
 0001:00013A28       TList.Error
 0001:00013EAC       TList.Extract
 0001:00013AC8       TList.Get
 0001:00013B10       TList.Grow
 0001:00013B68       TList.IndexOf
 0001:00013BB4       TList.Last
 0001:00013F08       TList.Notify
 0001:00013BD8       TList.Put
 0001:00013C68       TList.Remove
 0001:00013C9C       TList.SetCapacity
 0001:00013CF8       TList.SetCount
 0001:00013E70       TList.Sort
 0001:00055DD8       TLobby.Connect
 0001:00056FBC       TLobby.Create
 0001:00055F88       TLobby.CreateAddress
 0001:00056F04       TLobby.CreateCompoundAddress
 0001:0005603C       TLobby.EnumAddress
 0001:000560E8       TLobby.EnumAddressTypes
 0001:00056198       TLobby.EnumLocalApplications
 0001:00056248       TLobby.GetConnectionSettings
 0001:000562F8       TLobby.ReceiveLobbyMessage
 0001:000564C0       TLobby.RunApplication
 0001:00056C2C       TLobby.SendLobbyMessage
 0001:00056DA4       TLobby.SetConnectionSettings
 0001:00056E54       TLobby.SetLobbyMessageEvent
 0001:0001F358       TLog.Add
 0001:0001F2D4       TLog.Add
 0001:0001F4CC       TLog.Add
 0001:0001F1B0       TLog.Add2
 0001:0001EDE4       TLog.Create
 0001:0001F0DC       TLog.Destroy
 0001:0001F184       TLog.Flush
 0001:000231E8       TLog2.Add
 0001:000230F0       TLog2.Create
 0001:000233A0       TLog2.Destroy
 0001:000231C0       TLog2.Flush
 0001:0000558C       TlsAlloc
 0002:0000266C       tlsBuffer
 0001:00005594       TlsFree
 0001:0000559C       TlsGetValue
 0002:000000A4       TlsIndex
 0002:FF89F00C       TlsLast
 0002:000000C4       TlsProc
 0001:000055A4       TlsSetValue
 0001:000164D0       TMemoryStream.Clear
 0001:00016494       TMemoryStream.Destroy
 0001:00016570       TMemoryStream.Realloc
 0001:000164F4       TMemoryStream.SetCapacity
 0001:00016528       TMemoryStream.SetSize
 0001:00016638       TMemoryStream.Write
 0001:00058118       TModuleInfo.Create
 0001:0000DE24       TMultiReadExclusiveWriteSynchronizer.BeginRead
 0001:0000DCDC       TMultiReadExclusiveWriteSynchronizer.BeginWrite
 0001:0000DC54       TMultiReadExclusiveWriteSynchronizer.BlockReaders
 0001:0000DB68       TMultiReadExclusiveWriteSynchronizer.Create
 0001:0000DBF8       TMultiReadExclusiveWriteSynchronizer.Destroy
 0001:0000DEAC       TMultiReadExclusiveWriteSynchronizer.EndRead
 0001:0000DDB8       TMultiReadExclusiveWriteSynchronizer.EndWrite
 0001:0000DC84       TMultiReadExclusiveWriteSynchronizer.UnblockOneWriter
 0001:0000DC6C       TMultiReadExclusiveWriteSynchronizer.UnblockReaders
 0001:0000DC9C       TMultiReadExclusiveWriteSynchronizer.WaitForReadSignal
 0001:0000DCBC       TMultiReadExclusiveWriteSynchronizer.WaitForWriteSignal
 0001:00002BEC       TObject.AfterConstruction
 0001:00002BF0       TObject.BeforeDestruction
 0001:00002BD8       TObject.ClassInfo
 0001:00002900       TObject.ClassName
 0001:00002914       TObject.ClassNameIs
 0001:0000293C       TObject.ClassParent
 0001:000028F8       TObject.ClassType
 0001:00002A14       TObject.CleanupInstance
 0001:00002980       TObject.Create
 0001:00002BE8       TObject.DefaultHandler
 0001:000029A0       TObject.Destroy
 0001:00002BF4       TObject.Dispatch
 0001:00002C6C       TObject.FieldAddress
 0001:000029B0       TObject.Free
 0001:00002964       TObject.FreeInstance
 0001:00002A64       TObject.GetInterface
 0001:00002AF8       TObject.GetInterfaceEntry
 0001:00002BC4       TObject.InheritsFrom
 0001:000029BC       TObject.InitInstance
 0001:00002978       TObject.InstanceSize
 0001:00002C1C       TObject.MethodAddress
 0001:00002948       TObject.NewInstance
 0001:00002BE0       TObject.SafeCallException
 0001:0001D9A0       TObjectList.Add
 0001:0001DA0C       TObjectList.Create
 0001:0001D9C4       TObjectList.Create
 0001:0001DA5C       TObjectList.Extract
 0001:0001DA80       TObjectList.GetItem
 0001:0001DAA4       TObjectList.Notify
 0001:00004960       ToLongPath
 0001:00059F60       TookDamage
 0001:00027D80       TPacket.Compress
 0001:00026BE4       TPacket.Create
 0001:000278C4       TPacket.Decompress
 0001:00027654       TPacket.Decrypt
 0001:0002779C       TPacket.Encrypt
 0001:00026D5C       TPacket.GetRawData2
 0001:00026D98       TPacket.GetTAData
 0001:00026D20       TPacket.GetTimestamp
 0001:00026DFC       TPacket.PacketLength
 0001:00026C90       TPacket.SJCreateNew
 0001:000272E4       TPacket.Split2
 0001:00014108       TPersistent.Assign
 0001:00014134       TPersistent.AssignError
 0001:0001420C       TPersistent.AssignTo
 0001:00014228       TPersistent.DefineProperties
 0001:000140CC       TPersistent.Destroy
 0001:00014238       TPersistent.GetNamePath
 0001:000142F0       TPersistent.GetOwner
 0001:0005496C       TPlayerData.Create
 0001:00054AB4       TPlayerData.IsSelf
 0001:00054B44       TPlayerData.IsServer
 0001:00054A3C       TPlayerData.OnPlayerRemoved
 0001:00054EB8       TPlayers.Add
 0001:00054DC8       TPlayers.Clear
 0001:00055870       TPlayers.Convert
 0001:000559EC       TPlayers.ConvertId
 0001:00054BDC       TPlayers.Create
 0001:00054D6C       TPlayers.Destroy
 0001:00055458       TPlayers.getCount
 0001:00055674       TPlayers.GetData_
 0001:00055474       TPlayers.Name
 0001:00055518       TPlayers.Name
 0001:00054F0C       TPlayers.Remove
 0001:0005541C       TPlayers.Remove
 0001:00028454       TPluginCommands.ClearCommands
 0001:000283A4       TPluginCommands.Create
 0001:00028410       TPluginCommands.destroy
 0001:000284B4       TPluginCommands.LookUpCommand
 0001:00024084       TPluginData.create
 0001:000241F0       TPluginData.MakeNOPReplacement
 0001:00024128       TPluginData.MakeRelativeJmp
 0001:00024294       TPluginData.MakeReplacement
 0001:0002419C       TPluginData.MakeStaticCall
 0001:0002434C       TPluginData.NewCodeInjection
 0001:00016858       TPropFixup.Create
 0001:000168CC       TPropFixup.MakeGlobalReference
 0001:00016938       TPropFixup.ResolveReference
 0001:0001695C       TPropIntfFixup.ResolveReference
 0002:000009B0       Trajectory3
 0001:0000B554       TranslateDateFormat
 0001:0000F59C       TranslateResult
 0002:000049F8       TransmitFile
 0001:00016D28       TReader.CheckValue
 0001:00016D9C       TReader.DefineBinaryProperty
 0001:00016D58       TReader.DefineProperty
 0001:00016CD8       TReader.Destroy
 0001:00016FEC       TReader.DoFixupReferences
 0001:00016E7C       TReader.EndOfList
 0001:00016EA0       TReader.Error
 0001:00018EA0       TReader.FindAncestorComponent
 0001:00018FD4       TReader.FindComponentClass
 0001:00016ED8       TReader.FindMethod
 0001:00017120       TReader.FlushBuffer
 0001:00017150       TReader.FreeFixups
 0001:000171B0       TReader.GetFieldClass
 0001:00017260       TReader.GetPosition
 0001:0001728C       TReader.NextValue
 0001:000172B0       TReader.PropertyError
 0001:000172D0       TReader.Read
 0001:0001731C       TReader.ReadBuffer
 0001:00017370       TReader.ReadChar
 0001:000173D4       TReader.ReadCollection
 0001:000178FC       TReader.ReadComponent
 0001:00017D18       TReader.ReadCurrency
 0001:00017B38       TReader.ReadData
 0001:00017BAC       TReader.ReadDataInner
 0001:00017D6C       TReader.ReadDate
 0001:00017C80       TReader.ReadFloat
 0001:00017DB8       TReader.ReadIdent
 0001:00017F34       TReader.ReadInt64
 0001:00017EC4       TReader.ReadInteger
 0001:00017F7C       TReader.ReadListBegin
 0001:00017F90       TReader.ReadListEnd
 0001:00017FA4       TReader.ReadPrefix
 0001:0001811C       TReader.ReadProperty
 0001:000184D8       TReader.ReadPropValue
 0001:000187F0       TReader.ReadSet
 0001:00017CCC       TReader.ReadSingle
 0001:000188B8       TReader.ReadStr
 0001:00018900       TReader.ReadString
 0001:00018ABC       TReader.ReadValue
 0001:00019294       TReader.ReadVariant
 0001:000189C4       TReader.ReadWideString
 0001:00018F68       TReader.ReferenceName
 0001:00018F94       TReader.SetName
 0001:0001906C       TReader.SkipBytes
 0001:00018DEC       TReader.SkipComponent
 0001:00018D9C       TReader.SkipProperty
 0001:00018ADC       TReader.SkipSetBody
 0001:00018C00       TReader.SkipValue
 0001:000131C8       TRegGroup.Create
 0001:00013250       TRegGroup.Destroy
 0001:000132A4       TRegGroup.GetClass
 0001:00013358       TRegGroup.UnregisterModuleClasses
 0001:00013434       TRegGroups.Create
 0001:000134C0       TRegGroups.Destroy
 0001:0001353C       TRegGroups.GetClass
 0001:000135A4       TRegGroups.Lock
 0001:000135BC       TRegGroups.Unlock
 0001:000135D4       TRegGroups.UnregisterModuleClasses
 0001:000266FC       TRegIniFile.Create
 0001:000266B0       TRegIniFile.Create
 0001:00026AE0       TRegIniFile.ReadBool
 0001:000268E0       TRegIniFile.ReadInteger
 0001:00026760       TRegIniFile.ReadString
 0001:000269EC       TRegIniFile.WriteInteger
 0001:00026830       TRegIniFile.WriteString
 0001:00026108       TRegistry.ChangeKey
 0001:00026074       TRegistry.CloseKey
 0001:00025FE8       TRegistry.Create
 0001:00025F90       TRegistry.Create
 0001:00026190       TRegistry.CreateKey
 0001:00026038       TRegistry.Destroy
 0001:0002613C       TRegistry.GetBaseKey
 0001:0002656C       TRegistry.GetData
 0001:000263AC       TRegistry.GetDataInfo
 0001:00026408       TRegistry.GetDataSize
 0001:00026610       TRegistry.GetKey
 0001:00026274       TRegistry.OpenKey
 0001:000264FC       TRegistry.PutData
 0001:00026470       TRegistry.ReadString
 0001:00026174       TRegistry.SetCurrentKey
 0001:000260C0       TRegistry.SetRootKey
 0001:000265EC       TRegistry.ValueExists
 0001:0002643C       TRegistry.WriteString
 0001:00006F08       Trim
 0001:00006F7C       TrimLeft
 0001:00006FCC       TrimRight
 0002:00002788       TrueBoolStrs
 0001:0005DE80       TrueIncomeHook
 0001:00009410       TryEncodeDate
 0001:000092A8       TryEncodeTime
 0001:0000106C       TryHarder
 0001:000020B0       TryOpenForInput
 0001:00002354       TryOpenForOutput
 0001:000073C8       TryStrToBool
 0001:0000923C       TryStrToCurr
 0001:0000AE34       TryStrToDate
 0001:0000AF2C       TryStrToDateTime
 0001:00009204       TryStrToFloat
 0001:000091CC       TryStrToFloat
 0001:000091A4       TryStrToFloat
 0001:000072B8       TryStrToInt
 0001:0000AEB0       TryStrToTime
 0001:0002DBD8       TScriptorFile.Create
 0001:0002DDB0       TScriptorFile.Save
 0001:0002DD20       TScriptorFile.WriteComment
 0001:0002DC68       TScriptorFile.WriteDefinition
 0001:0002DD98       TScriptorFile.WriteNewLine
 0001:0001B440       TSimpleEvent.Create
 0001:0004D05C       TStatsLogging.AddPlayer_StatEvent
 0001:0004D008       TStatsLogging.Create
 0001:0004D418       TStatsLogging.Damage_StatEvent
 0001:0004D580       TStatsLogging.FeatureDestroyed_StatEvent
 0001:0004DB6C       TStatsLogging.GameFinished_StatEvent
 0001:0004D050       TStatsLogging.Init_StatEvent
 0001:0004D750       TStatsLogging.Kill_StatEvent
 0001:0004D194       TStatsLogging.NewUnit_StatEvent
 0001:0004DC0C       TStatsLogging.PlayerDeadOrQuit_StatEevent
 0001:0004D8D8       TStatsLogging.ResourcesShare_StatEvent
 0001:0004D9E4       TStatsLogging.Stats_StatEvent
 0001:0004D284       TStatsLogging.UnitFinished_StatEvent
 0001:00022740       TStopWatch.Create
 0001:00022810       TStopWatch.GetElapsedMilliseconds
 0001:000227CC       TStopWatch.SetTickStamp
 0001:0002286C       TStopWatch.Start
 0001:0002288C       TStopWatch.Stop
 0001:00015F70       TStream.CopyFrom
 0001:00015C84       TStream.GetPosition
 0001:00015CC8       TStream.GetSize
 0001:00015EE0       TStream.ReadBuffer
 0001:00015DE4       TStream.Seek
 0001:00015E70       TStream.Seek
 0001:00015CAC       TStream.SetPosition
 0001:00015D14       TStream.SetSize
 0001:00015D40       TStream.SetSize
 0001:00015D24       TStream.SetSize64
 0001:00015F28       TStream.WriteBuffer
 0001:0001535C       TStringList.Add
 0001:00015384       TStringList.AddObject
 0001:000153FC       TStringList.Changed
 0001:00015428       TStringList.Changing
 0001:00015454       TStringList.Clear
 0001:00015C44       TStringList.CompareStrings
 0001:00015BF4       TStringList.CustomSort
 0001:000154A8       TStringList.Delete
 0001:000152E0       TStringList.Destroy
 0001:00015548       TStringList.Exchange
 0001:000155C4       TStringList.ExchangeItems
 0001:00015630       TStringList.Find
 0001:000156C8       TStringList.Get
 0001:00015714       TStringList.GetCapacity
 0001:00015730       TStringList.GetCount
 0001:0001574C       TStringList.GetObject
 0001:00015794       TStringList.Grow
 0001:000157EC       TStringList.IndexOf
 0001:00015838       TStringList.Insert
 0001:000158C8       TStringList.InsertItem
 0001:00015860       TStringList.InsertObject
 0001:00015970       TStringList.Put
 0001:000159E8       TStringList.PutObject
 0001:00015A44       TStringList.QuickSort
 0001:00015B08       TStringList.SetCapacity
 0001:00015B34       TStringList.SetSorted
 0001:00015B6C       TStringList.SetUpdateState
 0001:00015BD8       TStringList.Sort
 0001:0001AE34       TStringQueue.Clear
 0001:0001ADC4       TStringQueue.Create
 0001:0001AFEC       TStringQueue.DeQueue
 0001:0001AF68       TStringQueue.EnQueue
 0001:0001B094       TStringQueue.Examine
 0001:0001AE58       TStringQueue.Grow
 0001:000143D8       TStrings.Add
 0001:00014408       TStrings.AddObject
 0001:0001443C       TStrings.AddStrings
 0001:000144FC       TStrings.Assign
 0001:000145A0       TStrings.BeginUpdate
 0001:0001525C       TStrings.CompareStrings
 0001:00014624       TStrings.DefineProperties
 0001:0001439C       TStrings.Destroy
 0001:00014670       TStrings.EndUpdate
 0001:00014694       TStrings.Equals
 0001:00014750       TStrings.Error
 0001:00014790       TStrings.Error
 0001:000147F0       TStrings.Exchange
 0001:000148DC       TStrings.GetCapacity
 0001:00015280       TStrings.GetNameValueSeparator
 0001:000148F8       TStrings.GetObject
 0001:00014910       TStrings.GetText
 0001:0001496C       TStrings.GetTextStr
 0001:00014AB4       TStrings.IndexOf
 0001:00014B40       TStrings.IndexOfName
 0001:00014C1C       TStrings.IndexOfObject
 0001:00014C68       TStrings.InsertObject
 0001:00014C9C       TStrings.LoadFromFile
 0001:00014CF8       TStrings.LoadFromStream
 0001:00014DAC       TStrings.Move
 0001:00014E68       TStrings.Put
 0001:00014EA8       TStrings.PutObject
 0001:00014EBC       TStrings.ReadData
 0001:00014F6C       TStrings.SaveToFile
 0001:00014FCC       TStrings.SaveToStream
 0001:0001502C       TStrings.SetCapacity
 0001:000152AC       TStrings.SetNameValueSeparator
 0001:0001503C       TStrings.SetStringsAdapter
 0001:00015088       TStrings.SetText
 0001:000150E0       TStrings.SetTextStr
 0001:000151C0       TStrings.SetUpdateState
 0001:000151D0       TStrings.WriteData
 0001:000298BC       TSynAnsiConvert.AnsiBufferToUnicode
 0001:000299A4       TSynAnsiConvert.AnsiBufferToUTF8
 0001:00029ACC       TSynAnsiConvert.AnsiToRawUnicode
 0001:00029B34       TSynAnsiConvert.Create
 0001:00029BA4       TSynAnsiConvert.Engine
 0001:00029C60       TSynAnsiConvert.UnicodeBufferToAnsi
 0001:00029D2C       TSynAnsiConvert.UTF8BufferToAnsi
 0001:00029DB4       TSynAnsiFixedWidth.AnsiBufferToUnicode
 0001:00029E90       TSynAnsiFixedWidth.AnsiBufferToUTF8
 0001:0002A010       TSynAnsiFixedWidth.AnsiToRawUnicode
 0001:0002A060       TSynAnsiFixedWidth.Create
 0001:0002A29C       TSynAnsiFixedWidth.UnicodeBufferToAnsi
 0001:0002A3A8       TSynAnsiFixedWidth.UTF8BufferToAnsi
 0001:0001B354       TSynchroObject.Acquire
 0001:0001B360       TSynchroObject.Release
 0001:000202CC       TTextFile.Create_Append
 0001:000203A4       TTextFile.Create_Rewrite
 0001:00020464       TTextFile.Destroy
 0001:000204A0       TTextFile.Flush
 0001:000204C8       TTextFile.Writeln
 0001:00019C60       TThread.AfterConstruction
 0001:00019D28       TThread.CallOnTerminate
 0001:00019D00       TThread.CheckThreadError
 0001:00019C7C       TThread.CheckThreadError
 0001:00019AE8       TThread.Create
 0001:00019BD4       TThread.Destroy
 0001:00019D4C       TThread.DoTerminate
 0001:00019EF8       TThread.Resume
 0001:00019D74       TThread.Synchronize
 0001:00019EBC       TThread.Synchronize
 0001:00019F30       TThread.Terminate
 0001:00019F44       TThread.WaitFor
 0001:00014000       TThreadList.Add
 0001:00013F1C       TThreadList.Create
 0001:00013F84       TThreadList.Destroy
 0001:0001408C       TThreadList.LockList
 0001:000140B4       TThreadList.UnlockList
 0001:0000DAE0       TThreadLocalCounter.Delete
 0001:0000D990       TThreadLocalCounter.Destroy
 0001:0000DA0C       TThreadLocalCounter.HashIndex
 0001:0000DA30       TThreadLocalCounter.Open
 0001:0000DB04       TThreadLocalCounter.Recycle
 0002:000000F0       TwoDigitYearCenturyWindow
 0001:0005ACEC       TwoPhaseExtension
 0001:000194A8       TWriter.Write
 0001:000194F4       TWriter.WriteBuffer
 0001:00019520       TWriter.WriteInteger
 0001:000195A0       TWriter.WriteListBegin
 0001:000195B4       TWriter.WriteListEnd
 0001:000195C8       TWriter.WriteMinStr
 0001:00019678       TWriter.WriteString
 0001:000196D4       TWriter.WriteValue
 0001:00005778       Types
 0001:00012304       TypInfo
 0001:0001EAAC       uDebug
 0001:0000025C       UnhandledExceptionFilter
 0001:00005AF0       UnhookWindowsHookEx
 0001:00004FD4       UnicodeToUtf8
 0001:00000B38       UninitAllocator
 0001:0005EE10       UninstallCodeInjections
 0001:00024684       UnInstallPlugins
 0001:00003D00       UniqueString
 0001:0005A950       UnitActions
 0001:0005A8E8       UnitActions_AssignAISquad
 0001:0005A8A4       UnitActions_ExtraVTOLOrders
 0001:0005A778       UnitActions_TransportOverloadFix
 0001:0005A8CC       UnitActions_UnitBuildWeapons
 0001:0005A7A4       UnitActions_VTOLTransportCapacityCanLoadTest
 0001:0005A858       UnitActions_VTOLTransportSize
 0002:00000970       UnitAtPosition
 0002:000009B4       UnitAutoAim_CheckUnitWeapon
 0002:00000A4C       UnitBuilderProbe
 0002:00000998       UnitExplosion
 0002:0000124C       UnitInfo_AISquadNr
 0002:00001248       UnitInfo_DrawBuildSpotNanoFrame
 0002:0000123C       UnitInfo_ExtraVTOLOrders
 0002:00001240       UnitInfo_HideHPBar
 0002:00001234       UnitInfo_MultiAirTransport
 0002:00001244       UnitInfo_NotLab
 0002:00001238       UnitInfo_TransportWeightCapacity
 0002:0000096C       UnitInPlayerLOS
 0001:00058CD4       UnitLimit
 0002:00000A08       UnitName2ID
 0001:000593C4       UnitPropertyPutIntoArray
 0002:00004068       UnitPtr
 0002:000028A0       Units
 0002:00004670       UnitSearchArr
 0002:000046F0       UnitSearchCount
 0002:00004698       UnitSearchResults
 0001:00059810       UnitsExtend
 0002:00004C3C       UnitsExtendPlugin
 0001:000596B0       UnitsExtend_NewPropertiesLoadHook
 0002:00003028       UnitsSharedData
 0002:00000A48       UnitStateProbe
 0002:00000A60       UNITS_AllocateMovementClass
 0002:00000974       Unit_Create
 0002:00000A54       Unit_CreateModelAndCob
 0002:00000A50       Unit_CreateUnitsInGame
 0002:00000A58       Unit_FixPosY_Sea
 0001:0000E560       UniUnimplemented
 0001:00053970       Unload
 0001:00053D8C       UnLoadOpenSLLibrary
 0001:00004E84       UnregisterModule
 0001:000137B0       UnRegisterModuleClasses
 0001:00003348       UnsetExceptionHandler
 0001:00023844       UnSpliceJump
 0001:00006C6C       UpperCase
 0002:00000A80       Upperlimit
 0002:00000A78       UseCompression
 0001:00005294       UTF8Decode
 0001:000051E8       UTF8Encode
 0001:000050B0       Utf8ToUnicode
 0001:0002A4E8       UTF8ToWideChar
 0002:00000A6C       Values
 0002:00000A64       Values
 0002:000027AC       VarAdd
 0002:00000014       VarAddRefProc
 0002:000027C4       VarAnd
 0001:0000F924       VarArrayClear
 0001:0000FBC4       VarArrayCopyForEach
 0001:0000F548       VarArrayCreateError
 0002:000027E8       VarBoolFromStr
 0002:000027F4       VarBstrFromBool
 0002:000027EC       VarBstrFromCy
 0002:000027F0       VarBstrFromDate
 0001:0000F368       VarCastError
 0001:0000F3BC       VarCastError
 0001:0000FAA0       VarClearDeep
 0002:00000010       VarClearProc
 0002:000027D0       VarCmp
 0001:0000FD90       VarCopyCopyProc
 0001:0000FD98       VarCopyDeep
 0002:00000018       VarCopyProc
 0002:000027E4       VarCyFromStr
 0002:000027E0       VarDateFromStr
 0002:0000280C       VarDispProc
 0002:000027B8       VarDiv
 0002:000027D4       VarI4FromStr
 0001:0000E520       VariantChangeType
 0002:000027A0       VariantChangeTypeEx
 0001:0000E510       VariantClear
 0001:0000E518       VariantCopy
 0001:0000E508       VariantInit
 0001:00011728       Variants
 0002:000027BC       VarIDiv
 0001:0000F458       VarInvalidOp
 0002:000027C0       VarMod
 0002:000027B4       VarMul
 0002:000027A4       VarNeg
 0002:000027A8       VarNot
 0002:000027C8       VarOr
 0001:0000F4AC       VarOverflowError
 0002:000027D8       VarR4FromStr
 0002:000027DC       VarR8FromStr
 0001:0000F7F0       VarResultCheck
 0001:0000F7FC       VarResultCheck
 0002:000027B0       VarSub
 0001:00010088       VarToLStrAny
 0001:000100EC       VarToLStrCustom
 0002:0000001C       VarToLStrProc
 0001:0000FFBC       VarToLStrViaOS
 0001:0001076C       VarToWStrAny
 0001:000107D0       VarToWStrCustom
 0002:00000020       VarToWStrProc
 0001:000106B4       VarToWStrViaOS
 0001:000110AC       VarTypeAsText
 0001:0000ED7C       VarUtils
 0002:000027CC       VarXor
 0001:000072E4       VerifyBoolStrArray
 0001:00005A78       VerQueryValue
 0002:00004098       ViewPlayer
 0002:00004074       ViewPlayerPlSeeU
 0002:0000405C       ViewPlayerRadar
 0001:00005A08       VirtualAlloc
 0001:000003B8       VirtualAlloc
 0001:000003C0       VirtualFree
 0001:00005A10       VirtualFree
 0001:00005A18       VirtualLock
 0001:00005A20       VirtualProtect
 0001:00005A28       VirtualQuery
 0001:00000334       VirtualQuery
 0001:00005A30       VirtualUnlock
 0001:0005A058       VTOLLoadUnload
 0001:00005A38       WaitForMultipleObjects
 0001:00005A40       WaitForSingleObject
 0001:0001983C       WaitForSyncEvent
 0002:000003C8       WakeMainThread
 0001:00003930       WCharFromChar
 0002:000011A8       wdays
 0002:00001124       wdays
 0002:000010D4       wdays
 0002:00001220       WeapInfo_HighTrajectory
 0002:00001228       WeapInfo_NotAirWeapon
 0002:00001224       WeapInfo_PreserveAccuracy
 0002:0000122C       WeapInfo_WeaponType2
 0001:0005AECC       WeaponAimNTrajectory
 0002:00004C74       WeaponAimNTrajectoryPlugin
 0001:0005AC2C       WeaponAimNTrajectory_HighTrajectory
 0001:0005ADC0       WeaponAimNTrajectory_NoAirWeapon
 0001:0005AE0C       WeaponAimNTrajectory_NoAirWeapon_Cursor
 0001:0005ACBC       WeaponAimNTrajectory_PreserveAccuracy
 0001:0005ADA4       WeaponAimNTrajectory_WeaponType2
 0002:0000295C       WeaponLimitPatchArr
 0002:00000A0C       WeaponName2Ptr
 0001:00058FF4       WeaponPropertyPutIntoArray
 0001:0005921C       WeaponsExtend
 0002:00004BF4       WeaponsExtendPlugin
 0001:00059128       WeaponsExtend_NewPropertiesLoadHook
 0002:0000031C       WesternGroups
 0001:00005A48       WideCharToMultiByte
 0001:0000032C       WideCharToMultiByte
 0002:000000E8       Win32BuildNumber
 0001:0000D8AC       Win32Check
 0002:000000EC       Win32CSDVersion
 0002:000000E0       Win32MajorVersion
 0002:000000E4       Win32MinorVersion
 0002:000000DC       Win32Platform
 0002:000040AC       WinAnsiConvert
 0001:00005BCC       Windows
 0001:0005A368       WreckToUnitType
 0001:000035D0       WriteErrorMessage
 0001:00005A50       WriteFile
 0001:00000264       WriteFile
 0001:00005A58       WritePrivateProfileString
 0001:00005A60       WriteProcessMemory
 0001:0004EFAC       WS2Call
 0001:0004F074       WS2StubInit
 0002:00000B88       WS2StubTable
 0001:0004E22C       WS2Stub_accept
 0001:0004E8EC       WS2Stub_AcceptEx
 0001:0004E23C       WS2Stub_bind
 0001:0004E24C       WS2Stub_closesocket
 0001:0004E25C       WS2Stub_connect
 0001:0004E8FC       WS2Stub_GetAcceptExSockaddrs
 0001:0004E39C       WS2Stub_gethostbyaddr
 0001:0004E3AC       WS2Stub_gethostbyname
 0001:0004E3BC       WS2Stub_gethostname
 0001:0004E27C       WS2Stub_getpeername
 0001:0004E3FC       WS2Stub_getprotobyname
 0001:0004E3EC       WS2Stub_getprotobynumber
 0001:0004E3DC       WS2Stub_getservbyname
 0001:0004E3CC       WS2Stub_getservbyport
 0001:0004E28C       WS2Stub_getsockname
 0001:0004E29C       WS2Stub_getsockopt
 0001:0004E2AC       WS2Stub_htonl
 0001:0004E2BC       WS2Stub_htons
 0001:0004E2CC       WS2Stub_inet_addr
 0001:0004E2DC       WS2Stub_inet_ntoa
 0001:0004E26C       WS2Stub_ioctlsocket
 0001:0004E2EC       WS2Stub_listen
 0001:0004E2FC       WS2Stub_ntohl
 0001:0004E30C       WS2Stub_ntohs
 0001:0004E31C       WS2Stub_recv
 0001:0004E32C       WS2Stub_recvfrom
 0001:0004E33C       WS2Stub_select
 0001:0004E34C       WS2Stub_send
 0001:0004E35C       WS2Stub_sendto
 0001:0004E36C       WS2Stub_setsockopt
 0001:0004E37C       WS2Stub_shutdown
 0001:0004E38C       WS2Stub_socket
 0001:0004E8DC       WS2Stub_TransmitFile
 0001:0004E4FC       WS2Stub_WSAAccept
 0001:0004E84C       WS2Stub_WSAAddressToString
 0001:0004E6CC       WS2Stub_WSAAddressToStringA
 0001:0004E6DC       WS2Stub_WSAAddressToStringW
 0001:0004E4BC       WS2Stub_WSAAsyncGetHostByAddr
 0001:0004E4AC       WS2Stub_WSAAsyncGetHostByName
 0001:0004E48C       WS2Stub_WSAAsyncGetProtoByName
 0001:0004E49C       WS2Stub_WSAAsyncGetProtoByNumber
 0001:0004E46C       WS2Stub_WSAAsyncGetServByName
 0001:0004E47C       WS2Stub_WSAAsyncGetServByPort
 0001:0004E4DC       WS2Stub_WSAAsyncSelect
 0001:0004E4CC       WS2Stub_WSACancelAsyncRequest
 0001:0004E45C       WS2Stub_WSACancelBlockingCall
 0001:0004E21C       WS2Stub_WSACleanup
 0001:0004E50C       WS2Stub_WSACloseEvent
 0001:0004E51C       WS2Stub_WSAConnect
 0001:0004E52C       WS2Stub_WSACreateEvent
 0001:0004E81C       WS2Stub_WSADuplicateSocket
 0001:0004E53C       WS2Stub_WSADuplicateSocketA
 0001:0004E54C       WS2Stub_WSADuplicateSocketW
 0001:0004E8AC       WS2Stub_WSAEnumNameSpaceProviders
 0001:0004E7AC       WS2Stub_WSAEnumNameSpaceProvidersA
 0001:0004E7BC       WS2Stub_WSAEnumNameSpaceProvidersW
 0001:0004E55C       WS2Stub_WSAEnumNetworkEvents
 0001:0004E82C       WS2Stub_WSAEnumProtocols
 0001:0004E56C       WS2Stub_WSAEnumProtocolsA
 0001:0004E57C       WS2Stub_WSAEnumProtocolsW
 0001:0004E58C       WS2Stub_WSAEventSelect
 0001:0004E41C       WS2Stub_WSAGetLastError
 0001:0004E59C       WS2Stub_WSAGetOverlappedResult
 0001:0004E5AC       WS2Stub_WSAGetQosByName
 0001:0004E89C       WS2Stub_WSAGetServiceClassInfo
 0001:0004E78C       WS2Stub_WSAGetServiceClassInfoA
 0001:0004E79C       WS2Stub_WSAGetServiceClassInfoW
 0001:0004E8BC       WS2Stub_WSAGetServiceClassNameByClassId
 0001:0004E7CC       WS2Stub_WSAGetServiceClassNameByClassIdA
 0001:0004E7DC       WS2Stub_WSAGetServiceClassNameByClassIdW
 0001:0004E5BC       WS2Stub_WSAHtonl
 0001:0004E5CC       WS2Stub_WSAHtons
 0001:0004E88C       WS2Stub_WSAInstallServiceClass
 0001:0004E75C       WS2Stub_WSAInstallServiceClassA
 0001:0004E76C       WS2Stub_WSAInstallServiceClassW
 0001:0004E5DC       WS2Stub_WSAIoctl
 0001:0004E42C       WS2Stub_WSAIsBlocking
 0001:0004E5EC       WS2Stub_WSAJoinLeaf
 0001:0004E86C       WS2Stub_WSALookupServiceBegin
 0001:0004E70C       WS2Stub_WSALookupServiceBeginA
 0001:0004E71C       WS2Stub_WSALookupServiceBeginW
 0001:0004E74C       WS2Stub_WSALookupServiceEnd
 0001:0004E87C       WS2Stub_WSALookupServiceNext
 0001:0004E72C       WS2Stub_WSALookupServiceNextA
 0001:0004E73C       WS2Stub_WSALookupServiceNextW
 0001:0004E5FC       WS2Stub_WSANtohl
 0001:0004E60C       WS2Stub_WSANtohs
 0001:0004E80C       WS2Stub_WSAProviderConfigChange
 0001:0004E61C       WS2Stub_WSARecv
 0001:0004E62C       WS2Stub_WSARecvDisconnect
 0001:0004E90C       WS2Stub_WSARecvEx
 0001:0004E63C       WS2Stub_WSARecvFrom
 0001:0004E77C       WS2Stub_WSARemoveServiceClass
 0001:0004E64C       WS2Stub_WSAResetEvent
 0001:0004E65C       WS2Stub_WSASend
 0001:0004E66C       WS2Stub_WSASendDisconnect
 0001:0004E67C       WS2Stub_WSASendTo
 0001:0004E44C       WS2Stub_WSASetBlockingHook
 0001:0004E68C       WS2Stub_WSASetEvent
 0001:0004E40C       WS2Stub_WSASetLastError
 0001:0004E8CC       WS2Stub_WSASetService
 0001:0004E7EC       WS2Stub_WSASetServiceA
 0001:0004E7FC       WS2Stub_WSASetServiceW
 0001:0004E83C       WS2Stub_WSASocket
 0001:0004E69C       WS2Stub_WSASocketA
 0001:0004E6AC       WS2Stub_WSASocketW
 0001:0004E85C       WS2Stub_WSAStringToAddress
 0001:0004E6EC       WS2Stub_WSAStringToAddressA
 0001:0004E6FC       WS2Stub_WSAStringToAddressW
 0001:0004E43C       WS2Stub_WSAUnhookBlockingHook
 0001:0004E6BC       WS2Stub_WSAWaitForMultipleEvents
 0001:0004E4EC       WS2Stub___WSAFDIsSet
 0001:0004E1F0       WS2Unload
 0002:00004A0C       WS2_WSAStartup
 0002:00004900       WSAAccept
 0002:00004988       WSAAddressToString
 0002:00004980       WSAAddressToStringA
 0002:00004984       WSAAddressToStringW
 0002:000048F0       WSAAsyncGetHostByAddr
 0002:000048EC       WSAAsyncGetHostByName
 0002:000048E4       WSAAsyncGetProtoByName
 0002:000048E8       WSAAsyncGetProtoByNumber
 0002:000048DC       WSAAsyncGetServByName
 0002:000048E0       WSAAsyncGetServByPort
 0002:000048F8       WSAAsyncSelect
 0002:000048F4       WSACancelAsyncRequest
 0002:000048D8       WSACancelBlockingCall
 0002:00004848       WSACleanup
 0002:00004904       WSACloseEvent
 0002:00004908       WSAConnect
 0002:0000490C       WSACreateEvent
 0002:00004918       WSADuplicateSocket
 0002:00004910       WSADuplicateSocketA
 0002:00004914       WSADuplicateSocketW
 0002:000049D8       WSAEnumNameSpaceProviders
 0002:000049D0       WSAEnumNameSpaceProvidersA
 0002:000049D4       WSAEnumNameSpaceProvidersW
 0002:0000491C       WSAEnumNetworkEvents
 0002:00004928       WSAEnumProtocols
 0002:00004920       WSAEnumProtocolsA
 0002:00004924       WSAEnumProtocolsW
 0002:0000492C       WSAEventSelect
 0002:000048C8       WSAGetLastError
 0002:00004930       WSAGetOverlappedResult
 0002:00004934       WSAGetQosByName
 0002:000049CC       WSAGetServiceClassInfo
 0002:000049C4       WSAGetServiceClassInfoA
 0002:000049C8       WSAGetServiceClassInfoW
 0002:000049E4       WSAGetServiceClassNameByClassId
 0002:000049DC       WSAGetServiceClassNameByClassIdA
 0002:000049E0       WSAGetServiceClassNameByClassIdW
 0002:00004938       WSAHtonl
 0002:0000493C       WSAHtons
 0002:000049BC       WSAInstallServiceClass
 0002:000049B4       WSAInstallServiceClassA
 0002:000049B8       WSAInstallServiceClassW
 0002:00004940       WSAIoctl
 0002:000048CC       WSAIsBlocking
 0002:00004944       WSAJoinLeaf
 0002:000049A0       WSALookupServiceBegin
 0002:00004998       WSALookupServiceBeginA
 0002:0000499C       WSALookupServiceBeginW
 0002:000049B0       WSALookupServiceEnd
 0002:000049AC       WSALookupServiceNext
 0002:000049A4       WSALookupServiceNextA
 0002:000049A8       WSALookupServiceNextW
 0002:00004948       WSANtohl
 0002:0000494C       WSANtohs
 0002:000049F4       WSAProviderConfigChange
 0002:00004950       WSARecv
 0002:00004954       WSARecvDisconnect
 0002:00004A04       WSARecvEx
 0002:00004958       WSARecvFrom
 0002:000049C0       WSARemoveServiceClass
 0002:0000495C       WSAResetEvent
 0002:00004960       WSASend
 0002:00004964       WSASendDisconnect
 0002:00004968       WSASendTo
 0002:000048D4       WSASetBlockingHook
 0002:0000496C       WSASetEvent
 0002:000048C4       WSASetLastError
 0002:000049F0       WSASetService
 0002:000049E8       WSASetServiceA
 0002:000049EC       WSASetServiceW
 0002:00004978       WSASocket
 0002:00004970       WSASocketA
 0002:00004974       WSASocketW
 0001:0004F0B0       WSAStartup
 0002:00004994       WSAStringToAddress
 0002:0000498C       WSAStringToAddressA
 0002:00004990       WSAStringToAddressW
 0002:000048D0       WSAUnhookBlockingHook
 0002:0000497C       WSAWaitForMultipleEvents
 0001:00003E98       WStrError
 0001:00003EB8       WStrSet
 0001:00005B3C       ZeroMemory
 0002:00004B94       _CreateToolhelp32Snapshot
 0001:0002B260       _DynArrayClear
 0001:0002B268       _FinalizeArray
 0002:00004BA0       _Heap32First
 0002:00004B98       _Heap32ListFirst
 0002:00004B9C       _Heap32ListNext
 0002:00004BA4       _Heap32Next
 0002:00004BC4       _Module32First
 0002:00004BCC       _Module32FirstW
 0002:00004BC8       _Module32Next
 0002:00004BD0       _Module32NextW
 0002:00004BAC       _Process32First
 0002:00004BB4       _Process32FirstW
 0002:00004BB0       _Process32Next
 0002:00004BB8       _Process32NextW
 0002:00004BBC       _Thread32First
 0002:00004BC0       _Thread32Next
 0002:00004BA8       _Toolhelp32ReadProcessMemory
 0002:000048FC       __WSAFDIsSet


  Address         Publics by Value

 0002:FF89F00C       TlsLast
 0001:0000020C       CloseHandle
 0001:00000214       CreateFileA
 0001:0000021C       GetFileType
 0001:00000224       GetFileSize
 0001:0000022C       GetStdHandle
 0001:00000234       RaiseException
 0001:0000023C       ReadFile
 0001:00000244       RtlUnwind
 0001:0000024C       SetEndOfFile
 0001:00000254       SetFilePointer
 0001:0000025C       UnhandledExceptionFilter
 0001:00000264       WriteFile
 0001:0000026C       CharNext
 0001:00000274       CreateThread
 0001:0000027C       ExitThread
 0001:00000284       ExitProcess
 0001:0000028C       MessageBox
 0001:00000294       FindClose
 0001:0000029C       FindFirstFile
 0001:000002A4       FreeLibrary
 0001:000002AC       GetCommandLine
 0001:000002B4       GetLastError
 0001:000002BC       GetLocaleInfo
 0001:000002C4       GetModuleFileName
 0001:000002CC       GetModuleHandle
 0001:000002D4       GetProcAddress
 0001:000002DC       GetStartupInfo
 0001:000002E4       GetThreadLocale
 0001:000002EC       LoadLibraryEx
 0001:000002F4       LoadString
 0001:000002FC       lstrcpyn
 0001:00000304       @strlen
 0001:0000030C       MultiByteToWideChar
 0001:00000314       RegCloseKey
 0001:0000031C       RegOpenKeyEx
 0001:00000324       RegQueryValueEx
 0001:0000032C       WideCharToMultiByte
 0001:00000334       VirtualQuery
 0001:0000033C       SysAllocStringLen
 0001:00000344       SysReAllocStringLen
 0001:0000034C       SysFreeString
 0001:00000354       InterlockedIncrement
 0001:0000035C       InterlockedDecrement
 0001:00000364       GetCurrentThreadId
 0001:0000036C       GetVersion
 0001:00000374       QueryPerformanceCounter
 0001:0000037C       GetTickCount
 0001:00000384       GetCmdShow
 0001:000003A8       LocalAlloc
 0001:000003B0       LocalFree
 0001:000003B8       VirtualAlloc
 0001:000003C0       VirtualFree
 0001:000003C8       InitializeCriticalSection
 0001:000003D0       EnterCriticalSection
 0001:000003D8       LeaveCriticalSection
 0001:000003E0       DeleteCriticalSection
 0001:000003E8       GetBlockDesc
 0001:00000438       MakeEmpty
 0001:00000440       AddBlockAfter
 0001:00000470       DeleteBlock
 0001:00000488       MergeBlockAfter
 0001:000004F8       RemoveBlock
 0001:0000058C       GetSpace
 0001:000005F0       GetSpaceAt
 0001:00000668       FreeSpace
 0001:00000720       Commit
 0001:000007B4       Decommit
 0001:00000834       GetCommitted
 0001:000008C4       GetCommittedAt
 0001:000009E8       FreeCommitted
 0001:00000A74       InitAllocator
 0001:00000B38       UninitAllocator
 0001:00000C18       DeleteFree
 0001:00000C7C       FindCommitted
 0001:00000CAC       FillBeforeGap
 0001:00000CDC       InternalFreeMem
 0001:00000D00       FillAfterGap
 0001:00000D28       FillerSizeBeforeGap
 0001:00000D98       FillerSizeAfterGap
 0001:00000DD0       DecommitFree
 0001:00000E80       InsertFree
 0001:00000F08       FreeCurAlloc
 0001:00000F54       MergeCommit
 0001:00000FE0       NewCommit
 0001:0000100C       NewCommitAt
 0001:00001040       SearchSmallBlocks
 0001:0000106C       TryHarder
 0001:00001160       SysGetMem
 0001:000012F0       SysFreeMem
 0001:00001494       ResizeInPlace
 0001:00001670       SysReallocMem
 0001:00001734       @GetMem
 0001:00001754       @FreeMem
 0001:00001774       @ReallocMem
 0001:000017C4       ExceptObject
 0001:000017E4       ExceptAddr
 0001:00001804       AcquireExceptionObject
 0001:00001838       RunErrorAt
 0001:00001844       ErrorAt
 0001:00001890       Error
 0001:0000189C       @_IOTest
 0001:000018BC       SetInOutRes
 0001:000018CC       @Copy
 0001:00001910       IOResult
 0001:00001930       Move
 0001:00001970       GetParamStr
 0001:00001A5C       ParamStr
 0001:00001ABC       Randomize
 0001:00001AE4       @COS
 0001:00001AF4       @EXP
 0001:00001B0C       @SIN
 0001:00001B1C       @FRAC
 0001:00001B40       @ROUND
 0001:00001B4C       @TRUNC
 0001:00001B70       @AbstractError
 0001:00001B8C       OpenText
 0001:00001BE4       @ResetText
 0001:00001BF0       @RewritText
 0001:00001BFC       TextIn
 0001:00001C38       FileNOPProc
 0001:00001C3C       TextOut
 0001:00001C78       InternalClose
 0001:00001C88       TextClose
 0001:00001CA8       TextOpen
 0001:00001E54       @Assign
 0001:00001EBC       InternalFlush
 0001:00001F04       Flush
 0001:00001F10       @Flush
 0001:00001F1C       @Close
 0001:00001F74       @PStrNCat
 0001:00001FA4       @PStrCpy
 0001:00001FB0       @PStrNCpy
 0001:00001FCC       @AStrCmp
 0001:0000203C       @EofText
 0001:00002074       @FillChar
 0001:00002094       @RandInt
 0001:000020B0       TryOpenForInput
 0001:000020EC       @ReadChar
 0001:00002158       ReadLine
 0001:000021D8       @ReadString
 0001:000021E4       @ReadLString
 0001:00002250       @ReadLn
 0001:00002280       @ValLong
 0001:00002354       TryOpenForOutput
 0001:00002398       @WriteBytes
 0001:000023EC       @WriteSpaces
 0001:00002468       @WriteLn
 0001:000024B0       @_CLenToPasStr
 0001:000024D4       @SetEq
 0001:000024E8       @SetUnion
 0001:000024F4       FPower10
 0001:000024FC       @Pow10
 0001:000027E0       GetKeyboardType
 0001:000027E8       @isNECWindows
 0001:00002818       @FpuMaskInit
 0001:000028DC       @FpuInit
 0001:000028E8       @BoundErr
 0001:000028F0       @IntOver
 0001:000028F8       TObject.ClassType
 0001:00002900       TObject.ClassName
 0001:00002914       TObject.ClassNameIs
 0001:0000293C       TObject.ClassParent
 0001:00002948       TObject.NewInstance
 0001:00002964       TObject.FreeInstance
 0001:00002978       TObject.InstanceSize
 0001:00002980       TObject.Create
 0001:000029A0       TObject.Destroy
 0001:000029B0       TObject.Free
 0001:000029BC       TObject.InitInstance
 0001:00002A14       TObject.CleanupInstance
 0001:00002A34       InvokeImplGetter
 0001:00002A64       TObject.GetInterface
 0001:00002AF8       TObject.GetInterfaceEntry
 0001:00002B3C       @IsClass
 0001:00002B60       @AsClass
 0001:00002B7C       GetDynaMethod
 0001:00002BAC       @CallDynaInst
 0001:00002BC4       TObject.InheritsFrom
 0001:00002BD8       TObject.ClassInfo
 0001:00002BE0       TObject.SafeCallException
 0001:00002BE8       TObject.DefaultHandler
 0001:00002BEC       TObject.AfterConstruction
 0001:00002BF0       TObject.BeforeDestruction
 0001:00002BF4       TObject.Dispatch
 0001:00002C1C       TObject.MethodAddress
 0001:00002C6C       TObject.FieldAddress
 0001:00002CBC       @ClassCreate
 0001:00002D0C       @ClassDestroy
 0001:00002D14       @AfterConstruction
 0001:00002D24       @BeforeDestruction
 0001:00002D34       NotifyReRaise
 0001:00002D50       NotifyNonDelphiException
 0001:00002D74       NotifyExcept
 0001:00002D8C       NotifyOnExcept
 0001:00002DA0       NotifyAnyExcept
 0001:00002DB4       CheckJmp
 0001:00002DD4       NotifyExceptFinally
 0001:00002DFC       NotifyTerminate
 0001:00002E18       NotifyUnhandled
 0001:00002E38       @HandleAnyException
 0001:00002F64       @HandleOnException
 0001:000030EC       @HandleFinally
 0001:00003124       @RaiseExcept
 0001:0000314C       @RaiseAgain
 0001:000031A0       @DoneExcept
 0001:000031D0       @TryFinallyExit
 0001:000031E8       MapToRunError
 0001:00003288       @ExceptionHandler
 0001:00003328       SetExceptionHandler
 0001:00003348       UnsetExceptionHandler
 0001:00003370       FinalizeUnits
 0001:000033D0       InitUnits
 0001:00003430       @StartLib
 0001:000034F8       @InitResStringImports
 0001:00003520       @InitImports
 0001:00003544       MakeErrorMessage
 0001:000035A0       ExitDll
 0001:000035D0       WriteErrorMessage
 0001:0000365C       @Halt0
 0001:00003734       @Halt
 0001:00003740       @RunError
 0001:0000374C       @Assert
 0001:0000376C       ThreadWrapper
 0001:000037A4       BeginThread
 0001:000037E8       EndThread
 0001:000037F0       @LStrClr
 0001:00003814       @LStrArrayClr
 0001:00003844       @LStrAsg
 0001:00003888       @LStrLAsg
 0001:000038B4       @NewAnsiString
 0001:000038E0       @LStrFromPCharLen
 0001:00003910       CharFromWChar
 0001:00003930       WCharFromChar
 0001:0000394C       @LStrFromPWCharLen
 0001:000039D8       @LStrFromChar
 0001:000039E8       @LStrFromPChar
 0001:00003A18       @LStrFromPWChar
 0001:00003A54       @LStrFromString
 0001:00003A60       @LStrFromArray
 0001:00003A78       @LStrFromWStr
 0001:00003A8C       @LStrToString
 0001:00003AB0       @LStrLen
 0001:00003AB8       @LStrCat
 0001:00003AFC       @LStrCat3
 0001:00003B70       @LStrCatN
 0001:00003BFC       @LStrCmp
 0001:00003CA0       @LStrAddRef
 0001:00003CB0       @LStrToPChar
 0001:00003CBC       InternalUniqueString
 0001:00003D00       UniqueString
 0001:00003D08       @UniqueStringA
 0001:00003D10       @LStrCopy
 0001:00003D50       @LStrDelete
 0001:00003D98       @LStrPos
 0001:00003DE0       @LStrSetLength
 0001:00003E44       @LStrOfChar
 0001:00003E70       @Write0LString
 0001:00003E78       @WriteLString
 0001:00003E98       WStrError
 0001:00003EA0       @NewWideString
 0001:00003EB8       WStrSet
 0001:00003EC8       @WStrClr
 0001:00003EE0       @WStrArrayClr
 0001:00003F04       @WStrAsg
 0001:00003F28       @WStrFromPCharLen
 0001:00003FB4       @WStrFromPWCharLen
 0001:00003FD8       @WStrFromPWChar
 0001:00004014       @WStrFromLStr
 0001:00004024       @WStrToPWChar
 0001:00004034       @WStrLen
 0001:00004040       @WStrCmp
 0001:000040C4       @WStrCopy
 0001:00004110       @WStrSetLength
 0001:00004154       @InitializeRecord
 0001:00004184       @InitializeArray
 0001:00004218       @FinalizeRecord
 0001:0000424C       @VarClr
 0001:00004264       @FinalizeArray
 0001:00004350       @Finalize
 0001:0000435C       @VarCopy
 0001:00004374       @CopyRecord
 0001:00004490       @CopyArray
 0001:00004584       @DispCallByIDError
 0001:0000458C       @_llmul
 0001:000045B0       @_llmulo
 0001:000045D4       @_lldiv
 0001:00004650       @_lldivo
 0001:00004688       @DynArrayLength
 0001:00004690       @DynArrayHigh
 0001:00004698       CopyArray
 0001:000046A8       FinalizeArray
 0001:000046B0       DynArrayClear
 0001:000046B8       DynArraySetLength
 0001:00004844       @DynArraySetLength
 0001:00004850       @DynArrayClear
 0001:0000488C       @DynArrayAsg
 0001:000048B4       FindHInstance
 0001:000048DC       DelayLoadResourceModule
 0001:00004924       FindResourceHInstance
 0001:0000494C       FindBS
 0001:00004960       ToLongPath
 0001:00004B18       LoadResourceModule
 0001:00004D88       AddModuleUnloadProc
 0001:00004D90       RemoveModuleUnloadProc
 0001:00004D98       AddModuleUnloadProc
 0001:00004DB8       RemoveModuleUnloadProc
 0001:00004E18       NotifyModuleUnload
 0001:00004E74       RegisterModule
 0001:00004E84       UnregisterModule
 0001:00004EF4       @IntfClear
 0001:00004F0C       @IntfCopy
 0001:00004F38       @IntfAddRef
 0001:00004F44       TInterfacedObject.AfterConstruction
 0001:00004F50       TInterfacedObject.BeforeDestruction
 0001:00004F60       TInterfacedObject.NewInstance
 0001:00004F70       TInterfacedObject.QueryInterface
 0001:00004F98       TInterfacedObject._AddRef
 0001:00004FAC       TInterfacedObject._Release
 0001:00004FD4       UnicodeToUtf8
 0001:000050B0       Utf8ToUnicode
 0001:000051E8       UTF8Encode
 0001:00005294       UTF8Decode
 0001:00005338       AnsiToUtf8
 0001:00005388       LoadResString
 0001:000053E0       LCIDToCodePage
 0001:00005454       Finalization
 0001:000054A8       System
 0001:0000557C       LocalAlloc
 0001:00005584       LocalFree
 0001:0000558C       TlsAlloc
 0001:00005594       TlsFree
 0001:0000559C       TlsGetValue
 0001:000055A4       TlsSetValue
 0001:000055AC       AllocTlsBuffer
 0001:000055B8       GetTlsSize
 0001:000055C0       InitThreadTLS
 0001:00005604       InitProcessTLS
 0001:00005630       ExitThreadTLS
 0001:00005658       ExitProcessTLS
 0001:0000567C       @GetTls
 0001:000056BC       InitializeModule
 0001:000056C8       @InitLib
 0001:00005710       Finalization
 0001:00005740       SysInit
 0001:00005748       Finalization
 0001:00005778       Types
 0001:00005780       RegCloseKey
 0001:00005788       RegCreateKeyEx
 0001:00005790       RegFlushKey
 0001:00005798       RegOpenKeyEx
 0001:000057A0       RegQueryValueEx
 0001:000057A8       RegSetValueEx
 0001:000057B0       CloseHandle
 0001:000057B8       CompareString
 0001:000057C0       CopyFile
 0001:000057C8       CreateDirectory
 0001:000057D0       CreateEvent
 0001:000057D8       CreateFile
 0001:000057E0       CreateFileMapping
 0001:000057E8       DeleteCriticalSection
 0001:000057F0       DeleteFile
 0001:000057F8       DeviceIoControl
 0001:00005800       EnterCriticalSection
 0001:00005808       EnumCalendarInfoA
 0001:00005810       FileTimeToDosDateTime
 0001:00005818       FileTimeToLocalFileTime
 0001:00005820       FindClose
 0001:00005828       FindFirstFile
 0001:00005830       FlushFileBuffers
 0001:00005838       FlushInstructionCache
 0001:00005840       FormatMessage
 0001:00005848       FreeLibrary
 0001:00005850       InterlockedDecrement
 0001:00005858       InterlockedExchange
 0001:00005860       InterlockedIncrement
 0001:00005868       GetACP
 0001:00005870       GetCPInfo
 0001:00005878       GetCurrentProcess
 0001:00005880       GetCurrentThreadId
 0001:00005888       GetDateFormat
 0001:00005890       GetDiskFreeSpaceA
 0001:00005898       GetExitCodeThread
 0001:000058A0       GetFileAttributes
 0001:000058A8       GetFileSize
 0001:000058B0       GetFullPathName
 0001:000058B8       GetLastError
 0001:000058C0       GetLocalTime
 0001:000058C8       GetLocaleInfo
 0001:000058D0       GetModuleFileName
 0001:000058D8       GetModuleHandle
 0001:000058E0       GetPrivateProfileString
 0001:000058E8       GetProcAddress
 0001:000058F0       GetStdHandle
 0001:000058F8       GetStringTypeEx
 0001:00005900       GetSystemDirectory
 0001:00005908       GetSystemInfo
 0001:00005910       GetTempFileName
 0001:00005918       GetTempPath
 0001:00005920       GetThreadLocale
 0001:00005928       GetTickCount
 0001:00005930       GetVersionEx
 0001:00005938       GetVolumeInformation
 0001:00005940       GlobalAlloc
 0001:00005948       GlobalFree
 0001:00005950       GlobalLock
 0001:00005958       GlobalHandle
 0001:00005960       GlobalReAlloc
 0001:00005968       GlobalUnlock
 0001:00005970       InitializeCriticalSection
 0001:00005978       IsBadReadPtr
 0001:00005980       IsValidLocale
 0001:00005988       LeaveCriticalSection
 0001:00005990       LoadLibrary
 0001:00005998       MapViewOfFile
 0001:000059A0       MultiByteToWideChar
 0001:000059A8       QueryPerformanceCounter
 0001:000059B0       QueryPerformanceFrequency
 0001:000059B8       ReadFile
 0001:000059C0       ReadProcessMemory
 0001:000059C8       ResetEvent
 0001:000059D0       ResumeThread
 0001:000059D8       SetCurrentDirectory
 0001:000059E0       SetEndOfFile
 0001:000059E8       SetEvent
 0001:000059F0       SetFilePointer
 0001:000059F8       SetLastError
 0001:00005A00       Sleep
 0001:00005A08       VirtualAlloc
 0001:00005A10       VirtualFree
 0001:00005A18       VirtualLock
 0001:00005A20       VirtualProtect
 0001:00005A28       VirtualQuery
 0001:00005A30       VirtualUnlock
 0001:00005A38       WaitForMultipleObjects
 0001:00005A40       WaitForSingleObject
 0001:00005A48       WideCharToMultiByte
 0001:00005A50       WriteFile
 0001:00005A58       WritePrivateProfileString
 0001:00005A60       WriteProcessMemory
 0001:00005A68       GetFileVersionInfo
 0001:00005A70       GetFileVersionInfoSize
 0001:00005A78       VerQueryValue
 0001:00005A80       CallNextHookEx
 0001:00005A88       CharLowerBuff
 0001:00005A90       CharNext
 0001:00005A98       CharToOemA
 0001:00005AA0       CharUpperBuff
 0001:00005AA8       EnumWindows
 0001:00005AB0       GetAsyncKeyState
 0001:00005AB8       GetSystemMetrics
 0001:00005AC0       LoadString
 0001:00005AC8       MessageBox
 0001:00005AD0       MsgWaitForMultipleObjects
 0001:00005AD8       PeekMessage
 0001:00005AE0       SendMessage
 0001:00005AE8       SetWindowsHookEx
 0001:00005AF0       UnhookWindowsHookEx
 0001:00005AF8       MakeLong
 0001:00005B20       HiWord
 0001:00005B3C       ZeroMemory
 0001:00005B5C       GlobalAllocPtr
 0001:00005B6C       GlobalReAllocPtr
 0001:00005B88       GlobalFreePtr
 0001:00005B9C       Finalization
 0001:00005BCC       Windows
 0001:00005BD4       Finalization
 0001:00005C04       Messages
 0001:00005F1C       Finalization
 0001:00005F4C       SysConst
 0001:00006BD8       DivMod
 0001:00006BF4       ConvertError
 0001:00006C14       ConvertErrorFmt
 0001:00006C44       AllocMem
 0001:00006C6C       UpperCase
 0001:00006CD8       LowerCase
 0001:00006D44       CompareText
 0001:00006D98       SameText
 0001:00006DBC       AnsiUpperCase
 0001:00006E04       AnsiLowerCase
 0001:00006E4C       AnsiCompareStr
 0001:00006E98       AnsiCompareText
 0001:00006EE4       AnsiSameText
 0001:00006F08       Trim
 0001:00006F7C       TrimLeft
 0001:00006FCC       TrimRight
 0001:00007014       IsValidIdent
 0001:00007090       CvtInt
 0001:000070DC       IntToStr
 0001:000070FC       CvtInt64
 0001:000071C8       IntToStr
 0001:000071F0       IntToHex
 0001:00007218       IntToHex
 0001:00007248       StrToInt
 0001:00007288       StrToIntDef
 0001:000072B8       TryStrToInt
 0001:000072E4       VerifyBoolStrArray
 0001:00007378       CompareWith
 0001:000073C8       TryStrToBool
 0001:00007474       BoolToStr
 0001:000074D0       FileOpen
 0001:00007540       FileCreate
 0001:00007574       FileCreate
 0001:00007594       FileRead
 0001:000075CC       FileWrite
 0001:00007604       FileSeek
 0001:00007640       FileClose
 0001:00007654       FileAge
 0001:000076C4       FileExists
 0001:000076E4       DirectoryExists
 0001:0000771C       ForceDirectories
 0001:0000781C       LastDelimiter
 0001:0000788C       ChangeFileExt
 0001:0000792C       ExtractFilePath
 0001:0000796C       ExtractFileDir
 0001:000079D8       ExtractFileName
 0001:00007A1C       ExtractFileExt
 0001:00007A7C       ExpandFileName
 0001:00007AC0       BackfillGetDiskFreeSpaceEx
 0001:00007B40       SetCurrentDir
 0001:00007B68       CreateDir
 0001:00007B94       StrLen
 0001:00007BAC       StrMove
 0001:00007BD8       StrLCopy
 0001:00007C0C       StrLIComp
 0001:00007C50       StrScan
 0001:00007C88       StrPos
 0001:00007CDC       StrAlloc
 0001:00007D08       StrNew
 0001:00007D48       FormatError
 0001:00007DB0       FormatVarToStr
 0001:00007DE8       FormatClearStr
 0001:00007DFC       FloatToTextEx
 0001:00007E38       FormatBuf
 0001:000081B0       FormatBuf
 0001:0000852C       StrLFmt
 0001:00008584       Format
 0001:000085AC       Format
 0001:000085D8       FmtStr
 0001:000086B4       FmtStr
 0001:00008798       PutExponent
 0001:000087DC       FloatToText
 0001:00008AB0       FloatToText
 0001:00008D88       FloatToDecimal
 0001:00008FB4       TextToFloat
 0001:000090C8       FloatToStr
 0001:000090F8       CurrToStr
 0001:00009128       FloatToStrF
 0001:00009164       StrToFloat
 0001:000091A4       TryStrToFloat
 0001:000091CC       TryStrToFloat
 0001:00009204       TryStrToFloat
 0001:0000923C       TryStrToCurr
 0001:00009264       DateTimeToTimeStamp
 0001:000092A8       TryEncodeTime
 0001:00009328       EncodeTime
 0001:0000936C       DecodeTime
 0001:000093CC       IsLeapYear
 0001:00009410       TryEncodeDate
 0001:00009514       EncodeDate
 0001:00009550       DecodeDateFully
 0001:000096CC       DecodeDate
 0001:000096FC       DayOfWeek
 0001:0000972C       Date
 0001:00009758       Now
 0001:000097A0       CurrentYear
 0001:000097C0       AppendChars
 0001:00009820       AppendString
 0001:00009844       AppendNumber
 0001:00009894       GetCount
 0001:000098CC       GetDate
 0001:00009904       GetTime
 0001:00009944       ConvertEraString
 0001:00009AC8       ConvertYearString
 0001:00009BE0       AppendFormat
 0001:0000A3E8       DateTimeToString
 0001:0000A454       DateToStr
 0001:0000A474       TimeToStr
 0001:0000A494       DateTimeToStr
 0001:0000A4B0       FormatDateTime
 0001:0000A4D4       ScanBlanks
 0001:0000A514       ScanNumber
 0001:0000A5C8       ScanString
 0001:0000A660       ScanChar
 0001:0000A6B0       GetDateOrder
 0001:0000A718       ScanToNumber
 0001:0000A780       GetEraYearOffset
 0001:0000A7E4       EraToYear
 0001:0000A84C       ScanDate
 0001:0000ABE0       ScanTime
 0001:0000ADFC       StrToDate
 0001:0000AE34       TryStrToDate
 0001:0000AE78       StrToTime
 0001:0000AEB0       TryStrToTime
 0001:0000AEF4       StrToDateTime
 0001:0000AF2C       TryStrToDateTime
 0001:0000AFC0       SysErrorMessage
 0001:0000B024       GetLocaleStr
 0001:0000B080       GetLocaleChar
 0001:0000B0BC       LocalGetLocaleStr
 0001:0000B100       GetMonthDayNames
 0001:0000B234       LocalGetLocaleStr
 0001:0000B278       GetLocaleMonthDayNames
 0001:0000B3B8       EnumEraNames
 0001:0000B404       EnumEraYearOffsets
 0001:0000B490       GetEraNamesAndYearOffsets
 0001:0000B554       TranslateDateFormat
 0001:0000B7F8       ConvertAddr
 0001:0000B808       ExceptionErrorMessage
 0001:0000B9C0       ShowException
 0001:0000BA9C       Exception.Create
 0001:0000BAE4       Exception.CreateFmt
 0001:0000BB74       Exception.CreateRes
 0001:0000BBBC       Exception.CreateResFmt
 0001:0000BC60       Exception.CreateHelp
 0001:0000BCB4       Exception.CreateFmtHelp
 0001:0000BD4C       EHeapException.FreeInstance
 0001:0000BD88       CreateInOutError
 0001:0000BE2C       ErrorHandler
 0001:0000BE9C       CreateAssertException
 0001:0000BF54       RaiseAssertException
 0001:0000BF64       AssertErrorHandler
 0001:0000BF9C       AbstractErrorHandler
 0001:0000BFB8       MapException
 0001:0000C06C       GetExceptionClass
 0001:0000C098       CreateAVObject
 0001:0000C27C       GetExceptionObject
 0001:0000C35C       ExceptHandler
 0001:0000C384       InitExceptions
 0001:0000C40C       DoneExceptions
 0001:0000C490       InitPlatformId
 0001:0000C510       ByteTypeTest
 0001:0000C5BC       ByteType
 0001:0000C5F0       StrByteType
 0001:0000C620       ByteToCharLen
 0001:0000C65C       ByteToCharIndex
 0001:0000C6E0       CountChars
 0001:0000C798       CharToByteIndex
 0001:0000C810       CharToByteLen
 0001:0000C884       StrCharLength
 0001:0000C8B8       StrNextChar
 0001:0000C8D4       CharLength
 0001:0000C924       NextCharIndex
 0001:0000C978       IsPathDelimiter
 0001:0000C9C4       IsDelimiter
 0001:0000CA20       IncludeTrailingPathDelimiter
 0001:0000CA74       ExcludeTrailingPathDelimiter
 0001:0000CAC0       AnsiPos
 0001:0000CB0C       AnsiStrPos
 0001:0000CBE4       AnsiStrRScan
 0001:0000CC34       AnsiStrScan
 0001:0000CC8C       LCIDToCodePage
 0001:0000CD04       InitLeadBytes
 0001:0000CD84       IsWesternGroup
 0001:0000CDA8       InitSysLocale
 0001:0000CF54       GetFormatSettings
 0001:0000D2E8       GetLocaleFormatSettings
 0001:0000D69C       StringReplace
 0001:0000D7F8       Sleep
 0001:0000D800       RaiseLastOSError
 0001:0000D8AC       Win32Check
 0001:0000D8D0       FreeTerminateProcs
 0001:0000D904       InitDriveSpacePtr
 0001:0000D968       InterlockedIncrement
 0001:0000D974       InterlockedDecrement
 0001:0000D980       InterlockedExchange
 0001:0000D988       InterlockedExchangeAdd
 0001:0000D990       TThreadLocalCounter.Destroy
 0001:0000DA0C       TThreadLocalCounter.HashIndex
 0001:0000DA30       TThreadLocalCounter.Open
 0001:0000DAE0       TThreadLocalCounter.Delete
 0001:0000DB04       TThreadLocalCounter.Recycle
 0001:0000DB68       TMultiReadExclusiveWriteSynchronizer.Create
 0001:0000DBF8       TMultiReadExclusiveWriteSynchronizer.Destroy
 0001:0000DC54       TMultiReadExclusiveWriteSynchronizer.BlockReaders
 0001:0000DC6C       TMultiReadExclusiveWriteSynchronizer.UnblockReaders
 0001:0000DC84       TMultiReadExclusiveWriteSynchronizer.UnblockOneWriter
 0001:0000DC9C       TMultiReadExclusiveWriteSynchronizer.WaitForReadSignal
 0001:0000DCBC       TMultiReadExclusiveWriteSynchronizer.WaitForWriteSignal
 0001:0000DCDC       TMultiReadExclusiveWriteSynchronizer.BeginWrite
 0001:0000DDB8       TMultiReadExclusiveWriteSynchronizer.EndWrite
 0001:0000DE24       TMultiReadExclusiveWriteSynchronizer.BeginRead
 0001:0000DEAC       TMultiReadExclusiveWriteSynchronizer.EndRead
 0001:0000DF30       FreeAndNil
 0001:0000DF54       Supports
 0001:0000DF90       Supports
 0001:0000E308       Finalization
 0001:0000E488       SysUtils
 0001:0000E508       VariantInit
 0001:0000E510       VariantClear
 0001:0000E518       VariantCopy
 0001:0000E520       VariantChangeType
 0001:0000E528       BackupVariantChangeTypeEx
 0001:0000E560       UniUnimplemented
 0001:0000E574       BiUnimplemented
 0001:0000E588       CmpUnimplemented
 0001:0000E59C       BackupVarI4FromStr
 0001:0000E610       BackupVarR4FromStr
 0001:0000E684       BackupVarR8FromStr
 0001:0000E6F8       BackupVarDateFromStr
 0001:0000E76C       BackupVarCyFromStr
 0001:0000E7E0       BackupVarBoolFromStr
 0001:0000E864       BackupVarBStrFromCy
 0001:0000E8E0       BackupVarBStrFromDate
 0001:0000E95C       BackupVarBStrFromBool
 0001:0000E9DC       SafeArrayCreate
 0001:0000E9E4       SafeArrayGetLBound
 0001:0000E9EC       SafeArrayGetUBound
 0001:0000E9F4       SafeArrayPtrOfIndex
 0001:0000E9FC       FindProc
 0001:0000EA40       InitializeVarUtils
 0001:0000ED4C       Finalization
 0001:0000ED7C       VarUtils
 0001:0000F368       VarCastError
 0001:0000F3BC       VarCastError
 0001:0000F458       VarInvalidOp
 0001:0000F4AC       VarOverflowError
 0001:0000F548       VarArrayCreateError
 0001:0000F59C       TranslateResult
 0001:0000F7F0       VarResultCheck
 0001:0000F7FC       VarResultCheck
 0001:0000F830       @DispInvokeError
 0001:0000F884       @VarNull
 0001:0000F898       InBounds
 0001:0000F8C8       Increment
 0001:0000F924       VarArrayClear
 0001:0000FAA0       VarClearDeep
 0001:0000FB1C       @VarClear
 0001:0000FB30       @VarClr
 0001:0000FB38       InBounds
 0001:0000FB68       Increment
 0001:0000FBC4       VarArrayCopyForEach
 0001:0000FD90       VarCopyCopyProc
 0001:0000FD98       VarCopyDeep
 0001:0000FE44       @VarCopy
 0001:0000FE88       CurrToWStrViaOS
 0001:0000FEC0       DateToWStrViaOS
 0001:0000FEF8       BoolToWStrViaOS
 0001:0000FFBC       VarToLStrViaOS
 0001:00010088       VarToLStrAny
 0001:000100EC       VarToLStrCustom
 0001:00010170       @VarToLStr
 0001:000106B4       VarToWStrViaOS
 0001:0001076C       VarToWStrAny
 0001:000107D0       VarToWStrCustom
 0001:00010898       @VarToWStr
 0001:00010DF8       @VarFromInt
 0001:00010E34       @VarFromInt64
 0001:00010E60       @VarFromBool
 0001:00010E88       @VarFromReal
 0001:00010E9C       @VarFromTDateTime
 0001:00010EB0       @VarFromCurr
 0001:00010EC4       @VarFromLStr
 0001:00010EF0       @VarFromWStr
 0001:00010F28       @VarAddRef
 0001:000110AC       VarTypeAsText
 0001:0001121C       SetVarAsError
 0001:00011234       SetClearVarToEmptyParam
 0001:00011264       ClearVariantTypeList
 0001:000112D0       TCustomVariantType.BinaryOp
 0001:000112DC       TCustomVariantType.Cast
 0001:00011314       TCustomVariantType.CastTo
 0001:0001135C       TCustomVariantType.Compare
 0001:00011368       TCustomVariantType.CompareOp
 0001:000113A0       TCustomVariantType.CastToOle
 0001:000113DC       TCustomVariantType.Destroy
 0001:00011468       TCustomVariantType.IsClear
 0001:0001146C       TCustomVariantType.LeftPromotion
 0001:00011480       TCustomVariantType.OlePromotion
 0001:00011488       TCustomVariantType.RaiseCastError
 0001:00011490       TCustomVariantType.RaiseInvalidOp
 0001:00011498       TCustomVariantType.RaiseDispError
 0001:000114A0       TCustomVariantType.RightPromotion
 0001:000114B4       TCustomVariantType.UnaryOp
 0001:000114BC       TCustomVariantType.DispInvoke
 0001:000114C8       TCustomVariantType._AddRef
 0001:000114D4       TCustomVariantType._Release
 0001:000114E0       TCustomVariantType.QueryInterface
 0001:00011508       FindCustomVariantType
 0001:000115C0       FindCustomVariantType
 0001:000116A8       Null
 0001:000116B0       Finalization
 0001:00011728       Variants
 0001:000118C4       Finalization
 0001:000118F4       RTLConsts
 0001:00011928       GetTypeData
 0001:00011934       GetEnumName
 0001:00011A3C       GetEnumNameValue
 0001:00011A88       GetEnumValue
 0001:00011B10       GetPropInfo
 0001:00011B80       GetOrdProp
 0001:00011BF4       SetOrdProp
 0001:00011C50       SetShortStrProp
 0001:00011CA4       SetShortStrPropAsLongStr
 0001:00011CE0       AssignLongStr
 0001:00011CFC       SetLongStrProp
 0001:00011D3C       SetWideStrPropAsLongStr
 0001:00011D9C       SetStrProp
 0001:00011DF4       SetWideStrProp
 0001:00011EF8       SetFloatProp
 0001:00012148       AssignVariant
 0001:00012164       SetVariantProp
 0001:000121A4       SetMethodProp
 0001:000121DC       SetInt64Prop
 0001:00012218       SetInterfaceProp
 0001:000122B4       Finalization
 0001:00012304       TypInfo
 0001:0001230C       Finalization
 0001:0001233C       ActiveX
 0001:000131C8       TRegGroup.Create
 0001:00013250       TRegGroup.Destroy
 0001:000132A4       TRegGroup.GetClass
 0001:00013328       PointerInModule
 0001:00013358       TRegGroup.UnregisterModuleClasses
 0001:00013434       TRegGroups.Create
 0001:000134C0       TRegGroups.Destroy
 0001:0001353C       TRegGroups.GetClass
 0001:000135A4       TRegGroups.Lock
 0001:000135BC       TRegGroups.Unlock
 0001:000135D4       TRegGroups.UnregisterModuleClasses
 0001:00013640       TClassFinder.GetClass
 0001:000136DC       GetFieldClassTable
 0001:000136E8       ClassNotFound
 0001:00013758       GetClass
 0001:000137B0       UnRegisterModuleClasses
 0001:00013800       FindIdentToInt
 0001:00013890       FindGlobalComponent
 0001:000138E8       TList.Destroy
 0001:00013914       TList.Add
 0001:0001396C       TList.Clear
 0001:0001398C       TList.Delete
 0001:00013A20       ReturnAddr
 0001:00013A28       TList.Error
 0001:00013A68       TList.Error
 0001:00013AC8       TList.Get
 0001:00013B10       TList.Grow
 0001:00013B68       TList.IndexOf
 0001:00013BB4       TList.Last
 0001:00013BD8       TList.Put
 0001:00013C68       TList.Remove
 0001:00013C9C       TList.SetCapacity
 0001:00013CF8       TList.SetCount
 0001:00013DA0       QuickSort
 0001:00013E70       TList.Sort
 0001:00013EAC       TList.Extract
 0001:00013F08       TList.Notify
 0001:00013F1C       TThreadList.Create
 0001:00013F84       TThreadList.Destroy
 0001:00014000       TThreadList.Add
 0001:0001408C       TThreadList.LockList
 0001:000140B4       TThreadList.UnlockList
 0001:000140CC       TPersistent.Destroy
 0001:00014108       TPersistent.Assign
 0001:00014134       TPersistent.AssignError
 0001:0001420C       TPersistent.AssignTo
 0001:00014228       TPersistent.DefineProperties
 0001:00014238       TPersistent.GetNamePath
 0001:000142F0       TPersistent.GetOwner
 0001:00014308       TCollection.Add
 0001:00014334       TCollection.Clear
 0001:0001439C       TStrings.Destroy
 0001:000143D8       TStrings.Add
 0001:00014408       TStrings.AddObject
 0001:0001443C       TStrings.AddStrings
 0001:000144FC       TStrings.Assign
 0001:000145A0       TStrings.BeginUpdate
 0001:000145C4       DoWrite
 0001:00014624       TStrings.DefineProperties
 0001:00014670       TStrings.EndUpdate
 0001:00014694       TStrings.Equals
 0001:00014748       ReturnAddr
 0001:00014750       TStrings.Error
 0001:00014790       TStrings.Error
 0001:000147F0       TStrings.Exchange
 0001:000148DC       TStrings.GetCapacity
 0001:000148F8       TStrings.GetObject
 0001:00014910       TStrings.GetText
 0001:0001496C       TStrings.GetTextStr
 0001:00014AB4       TStrings.IndexOf
 0001:00014B40       TStrings.IndexOfName
 0001:00014C1C       TStrings.IndexOfObject
 0001:00014C68       TStrings.InsertObject
 0001:00014C9C       TStrings.LoadFromFile
 0001:00014CF8       TStrings.LoadFromStream
 0001:00014DAC       TStrings.Move
 0001:00014E68       TStrings.Put
 0001:00014EA8       TStrings.PutObject
 0001:00014EBC       TStrings.ReadData
 0001:00014F6C       TStrings.SaveToFile
 0001:00014FCC       TStrings.SaveToStream
 0001:0001502C       TStrings.SetCapacity
 0001:0001503C       TStrings.SetStringsAdapter
 0001:00015088       TStrings.SetText
 0001:000150E0       TStrings.SetTextStr
 0001:000151C0       TStrings.SetUpdateState
 0001:000151D0       TStrings.WriteData
 0001:0001525C       TStrings.CompareStrings
 0001:00015280       TStrings.GetNameValueSeparator
 0001:000152AC       TStrings.SetNameValueSeparator
 0001:000152E0       TStringList.Destroy
 0001:0001535C       TStringList.Add
 0001:00015384       TStringList.AddObject
 0001:000153FC       TStringList.Changed
 0001:00015428       TStringList.Changing
 0001:00015454       TStringList.Clear
 0001:000154A8       TStringList.Delete
 0001:00015548       TStringList.Exchange
 0001:000155C4       TStringList.ExchangeItems
 0001:00015630       TStringList.Find
 0001:000156C8       TStringList.Get
 0001:00015714       TStringList.GetCapacity
 0001:00015730       TStringList.GetCount
 0001:0001574C       TStringList.GetObject
 0001:00015794       TStringList.Grow
 0001:000157EC       TStringList.IndexOf
 0001:00015838       TStringList.Insert
 0001:00015860       TStringList.InsertObject
 0001:000158C8       TStringList.InsertItem
 0001:00015970       TStringList.Put
 0001:000159E8       TStringList.PutObject
 0001:00015A44       TStringList.QuickSort
 0001:00015B08       TStringList.SetCapacity
 0001:00015B34       TStringList.SetSorted
 0001:00015B6C       TStringList.SetUpdateState
 0001:00015B9C       StringListCompareStrings
 0001:00015BD8       TStringList.Sort
 0001:00015BF4       TStringList.CustomSort
 0001:00015C44       TStringList.CompareStrings
 0001:00015C84       TStream.GetPosition
 0001:00015CAC       TStream.SetPosition
 0001:00015CC8       TStream.GetSize
 0001:00015D14       TStream.SetSize
 0001:00015D24       TStream.SetSize64
 0001:00015D40       TStream.SetSize
 0001:00015D98       RaiseException
 0001:00015DE4       TStream.Seek
 0001:00015E70       TStream.Seek
 0001:00015EE0       TStream.ReadBuffer
 0001:00015F28       TStream.WriteBuffer
 0001:00015F70       TStream.CopyFrom
 0001:00016068       THandleStream.Create
 0001:000160B8       THandleStream.Read
 0001:000160F0       THandleStream.Write
 0001:00016128       THandleStream.Seek
 0001:0001615C       THandleStream.SetSize
 0001:0001617C       THandleStream.SetSize
 0001:000161AC       TFileStream.Create
 0001:000161FC       TFileStream.Create
 0001:0001635C       TFileStream.Destroy
 0001:000163A4       TCustomMemoryStream.SetPointer
 0001:000163CC       TCustomMemoryStream.Read
 0001:0001643C       TCustomMemoryStream.Seek
 0001:00016494       TMemoryStream.Destroy
 0001:000164D0       TMemoryStream.Clear
 0001:000164F4       TMemoryStream.SetCapacity
 0001:00016528       TMemoryStream.SetSize
 0001:00016570       TMemoryStream.Realloc
 0001:00016638       TMemoryStream.Write
 0001:000166C8       TFiler.Create
 0001:00016724       TFiler.Destroy
 0001:00016764       TFiler.SetRoot
 0001:00016858       TPropFixup.Create
 0001:000168CC       TPropFixup.MakeGlobalReference
 0001:00016938       TPropFixup.ResolveReference
 0001:0001695C       TPropIntfFixup.ResolveReference
 0001:000169F0       FindNestedComponent
 0001:00016AF8       RemoveFixupReferences
 0001:00016BB4       RemoveFixups
 0001:00016C48       ReadError
 0001:00016C68       PropValueError
 0001:00016C78       PropertyNotFound
 0001:00016CAC       EnumValue
 0001:00016CD8       TReader.Destroy
 0001:00016D28       TReader.CheckValue
 0001:00016D58       TReader.DefineProperty
 0001:00016D9C       TReader.DefineBinaryProperty
 0001:00016E7C       TReader.EndOfList
 0001:00016EA0       TReader.Error
 0001:00016ED8       TReader.FindMethod
 0001:00016F50       RemoveGlobalFixup
 0001:00016FEC       TReader.DoFixupReferences
 0001:00017120       TReader.FlushBuffer
 0001:00017150       TReader.FreeFixups
 0001:000171B0       TReader.GetFieldClass
 0001:00017260       TReader.GetPosition
 0001:0001728C       TReader.NextValue
 0001:000172B0       TReader.PropertyError
 0001:000172D0       TReader.Read
 0001:0001731C       TReader.ReadBuffer
 0001:00017370       TReader.ReadChar
 0001:000173D4       TReader.ReadCollection
 0001:000174B0       AddSubComponentsToLoaded
 0001:000174FC       CheckSubComponents
 0001:00017584       SetSubComponentState
 0001:0001760C       ComponentCreated
 0001:00017634       Recover
 0001:000176A0       CreateComponent
 0001:000177B4       SetCompName
 0001:00017854       FindExistingComponent
 0001:000178FC       TReader.ReadComponent
 0001:00017B38       TReader.ReadData
 0001:00017BAC       TReader.ReadDataInner
 0001:00017C80       TReader.ReadFloat
 0001:00017CCC       TReader.ReadSingle
 0001:00017D18       TReader.ReadCurrency
 0001:00017D6C       TReader.ReadDate
 0001:00017DB8       TReader.ReadIdent
 0001:00017EC4       TReader.ReadInteger
 0001:00017F34       TReader.ReadInt64
 0001:00017F7C       TReader.ReadListBegin
 0001:00017F90       TReader.ReadListEnd
 0001:00017FA4       TReader.ReadPrefix
 0001:00018000       HandleException
 0001:00018100       PropPathError
 0001:0001811C       TReader.ReadProperty
 0001:00018328       SetIntIdent
 0001:00018374       SetObjectIdent
 0001:000183BC       SetVariantReference
 0001:00018418       SetInterfaceReference
 0001:000184D8       TReader.ReadPropValue
 0001:000187F0       TReader.ReadSet
 0001:000188B8       TReader.ReadStr
 0001:00018900       TReader.ReadString
 0001:000189C4       TReader.ReadWideString
 0001:00018ABC       TReader.ReadValue
 0001:00018ADC       TReader.SkipSetBody
 0001:00018B2C       SkipList
 0001:00018B58       SkipBinary
 0001:00018B8C       SkipCollection
 0001:00018C00       TReader.SkipValue
 0001:00018D9C       TReader.SkipProperty
 0001:00018DEC       TReader.SkipComponent
 0001:00018EA0       TReader.FindAncestorComponent
 0001:00018F68       TReader.ReferenceName
 0001:00018F94       TReader.SetName
 0001:00018FD4       TReader.FindComponentClass
 0001:0001906C       TReader.SkipBytes
 0001:000190C8       ReadCustomVariant
 0001:00019294       TReader.ReadVariant
 0001:000194A8       TWriter.Write
 0001:000194F4       TWriter.WriteBuffer
 0001:00019520       TWriter.WriteInteger
 0001:000195A0       TWriter.WriteListBegin
 0001:000195B4       TWriter.WriteListEnd
 0001:000195C8       TWriter.WriteMinStr
 0001:00019678       TWriter.WriteString
 0001:000196D4       TWriter.WriteValue
 0001:000196F4       BinToHex
 0001:0001975C       HexToBin
 0001:000197D8       InitThreadSynchronization
 0001:00019810       DoneThreadSynchronization
 0001:0001982C       ResetSyncEvent
 0001:0001983C       WaitForSyncEvent
 0001:00019860       SignalSyncEvent
 0001:00019870       AddThread
 0001:00019880       RemoveThread
 0001:00019890       CheckSynchronize
 0001:00019A34       ThreadProc
 0001:00019AE8       TThread.Create
 0001:00019BD4       TThread.Destroy
 0001:00019C60       TThread.AfterConstruction
 0001:00019C7C       TThread.CheckThreadError
 0001:00019D00       TThread.CheckThreadError
 0001:00019D28       TThread.CallOnTerminate
 0001:00019D4C       TThread.DoTerminate
 0001:00019D74       TThread.Synchronize
 0001:00019EBC       TThread.Synchronize
 0001:00019EF8       TThread.Resume
 0001:00019F30       TThread.Terminate
 0001:00019F44       TThread.WaitFor
 0001:00019FF4       TComponent.Create
 0001:0001A050       TComponent.Destroy
 0001:0001A0F4       TComponent.BeforeDestruction
 0001:0001A110       TComponent.ReadLeft
 0001:0001A130       TComponent.ReadTop
 0001:0001A150       TComponent.WriteLeft
 0001:0001A170       TComponent.WriteTop
 0001:0001A190       TComponent.Insert
 0001:0001A1D4       TComponent.Remove
 0001:0001A21C       TComponent.InsertComponent
 0001:0001A28C       TComponent.RemoveComponent
 0001:0001A2D4       TComponent.DestroyComponents
 0001:0001A344       TComponent.Destroying
 0001:0001A3A0       TComponent.RemoveNotification
 0001:0001A3E8       TComponent.RemoveFreeNotification
 0001:0001A410       TComponent.Notification
 0001:0001A498       TComponent.DefineProperties
 0001:0001A540       TComponent.HasParent
 0001:0001A554       TComponent.GetChildren
 0001:0001A568       TComponent.GetChildOwner
 0001:0001A580       TComponent.GetChildParent
 0001:0001A598       TComponent.GetNamePath
 0001:0001A5B8       TComponent.GetOwner
 0001:0001A5D4       TComponent.SetChildOrder
 0001:0001A5E8       TComponent.GetParentComponent
 0001:0001A600       TComponent.SetParentComponent
 0001:0001A610       TComponent.Updating
 0001:0001A624       TComponent.Updated
 0001:0001A638       TComponent.Loaded
 0001:0001A64C       TComponent.PaletteCreated
 0001:0001A658       TComponent.ReadState
 0001:0001A674       TComponent.WriteState
 0001:0001A690       TComponent.ValidateRename
 0001:0001A724       TComponent.ValidateContainer
 0001:0001A748       TComponent.ValidateInsert
 0001:0001A758       TComponent.FindComponent
 0001:0001A7C4       TComponent.SetName
 0001:0001A87C       TComponent.ChangeName
 0001:0001A89C       TComponent.GetComponent
 0001:0001A8DC       TComponent.GetComponentCount
 0001:0001A908       TComponent.SetDesigning
 0001:0001A970       TComponent.SetReference
 0001:0001A9D4       TComponent.ExecuteAction
 0001:0001AA08       TComponent.UpdateAction
 0001:0001AA3C       TComponent.SafeCallException
 0001:0001AA84       TComponent.UpdateRegistry
 0001:0001AA9C       TComponent.QueryInterface
 0001:0001AAEC       TComponent._AddRef
 0001:0001AB1C       TComponent._Release
 0001:0001AB4C       TComponent.IntfGetComponent
 0001:0001AB64       FreeIntConstList
 0001:0001ABE0       ModuleUnload
 0001:0001ABF4       Finalization
 0001:0001ACA4       Classes
 0001:0001ADC4       TStringQueue.Create
 0001:0001AE34       TStringQueue.Clear
 0001:0001AE58       TStringQueue.Grow
 0001:0001AF68       TStringQueue.EnQueue
 0001:0001AFEC       TStringQueue.DeQueue
 0001:0001B094       TStringQueue.Examine
 0001:0001B0DC       Finalization
 0001:0001B10C       ListsU
 0001:0001B114       timeBeginPeriod
 0001:0001B11C       timeGetDevCaps
 0001:0001B124       timeGetTime
 0001:0001B12C       Finalization
 0001:0001B15C       MMSystem
 0001:0001B354       TSynchroObject.Acquire
 0001:0001B360       TSynchroObject.Release
 0001:0001B36C       THandleObject.Destroy
 0001:0001B3AC       TEvent.Create
 0001:0001B410       TEvent.SetEvent
 0001:0001B428       TEvent.ResetEvent
 0001:0001B440       TSimpleEvent.Create
 0001:0001B48C       TCriticalSection.Create
 0001:0001B4DC       TCriticalSection.Destroy
 0001:0001B51C       TCriticalSection.Acquire
 0001:0001B534       TCriticalSection.Release
 0001:0001B54C       Finalization
 0001:0001B57C       SyncObjs
 0001:0001B648       Compress
 0001:0001B6C0       TGpHugeFile.CreateEx
 0001:0001B778       TGpHugeFile.Destroy
 0001:0001B7B4       Elapsed
 0001:0001B830       TGpHugeFile.AccessFile
 0001:0001BAD8       TGpHugeFile.ResetEx
 0001:0001BC64       TGpHugeFile.RewriteEx
 0001:0001BDC8       TGpHugeFile.Close
 0001:0001BE80       TGpHugeFile.CheckHandle
 0001:0001BEEC       TGpHugeFile.FileSizeNoCache
 0001:0001C044       TGpHugeFile.BlockWrite
 0001:0001C19C       TGpHugeFile._Seek
 0001:0001C400       TGpHugeFile.Seek
 0001:0001C484       TGpHugeFile.Truncate
 0001:0001C570       TGpHugeFile.FilePos
 0001:0001C634       TGpHugeFile.Flush
 0001:0001C6A8       TGpHugeFile.RoundToPageSize
 0001:0001C6D4       TGpHugeFile.AllocBuffer
 0001:0001C80C       TGpHugeFile.FreeBuffer
 0001:0001C8DC       OffsetPtr
 0001:0001C8F8       TGpHugeFile.Transmit
 0001:0001CB6C       TGpHugeFile.FlushBuffer
 0001:0001CC30       TGpHugeFile.BlockWriteUnsafe
 0001:0001CCEC       TGpHugeFile.IsOpen
 0001:0001CD08       ThrowCase1
 0001:0001CE00       ThrowCase2
 0001:0001CEC0       TGpHugeFile.Win32Check
 0001:0001CF08       TGpHugeFile.LoadedToTheEOF
 0001:0001CF70       TGpHugeFile.FileSize
 0001:0001CFB8       TGpHugeFile.InitWriteBuffer
 0001:0001CFEC       TGpHugeFile.InitReadBuffer
 0001:0001D020       Finalization
 0001:0001D050       GPHugeF
 0001:0001D058       Finalization
 0001:0001D088       Consts
 0001:0001D090       DataToStr2
 0001:0001D144       IsStrByte
 0001:0001D1D4       IsStrBool
 0001:0001D260       GetChar
 0001:0001D2B8       ParseParams
 0001:0001D4E4       PtrToStr
 0001:0001D518       BinToInt
 0001:0001D5C0       SimpleCrypt
 0001:0001D608       CRC32
 0001:0001D640       CalcCRC
 0001:0001D68C       RemoveInvalid
 0001:0001D704       LeftPad
 0001:0001D798       Finalization
 0001:0001D7C8       textdata
 0001:0001D7D0       IntPower
 0001:0001D800       Hypot
 0001:0001D838       Power
 0001:0001D900       Finalization
 0001:0001D930       Math
 0001:0001D9A0       TObjectList.Add
 0001:0001D9C4       TObjectList.Create
 0001:0001DA0C       TObjectList.Create
 0001:0001DA5C       TObjectList.Extract
 0001:0001DA80       TObjectList.GetItem
 0001:0001DAA4       TObjectList.Notify
 0001:0001DADC       Finalization
 0001:0001DB0C       Contnrs
 0001:0001DC64       StripFromString
 0001:0001DD28       CompareHeaders
 0001:0001DDB4       SyncHeaders
 0001:0001DFB8       AddUnit
 0001:0001E19C       AddProcedure
 0001:0001E350       AddLineNo
 0001:0001E4C0       LoadAndParseMapFile
 0001:0001E718       CleanUpMapFile
 0001:0001E744       GetModuleNameFromAddress
 0001:0001E7C0       GetProcNameFromAddress
 0001:0001E830       GetLineNumberFromAddress
 0001:0001E92C       GetMapFileName
 0001:0001EA24       GetMapAddressFromAddress
 0001:0001EA70       Finalization
 0001:0001EAAC       uDebug
 0001:0001EAB4       OnInitialize
 0001:0001EACC       OnFinalize
 0001:0001EADC       Finalization
 0001:0001EB0C       FreeListU
 0001:0001EB84       LogException
 0001:0001EC94       LogError
 0001:0001EDE4       TLog.Create
 0001:0001F0DC       TLog.Destroy
 0001:0001F184       TLog.Flush
 0001:0001F1B0       TLog.Add2
 0001:0001F2D4       TLog.Add
 0001:0001F358       TLog.Add
 0001:0001F4CC       TLog.Add
 0001:0001F548       Finalization
 0001:0001F58C       logging
 0001:0001F594       SHGetFolderPath
 0001:0001F59C       Finalization
 0001:0001F5CC       SHFolder
 0001:0001F6BC       GetMyDocs
 0001:0001F71C       GetAppData
 0001:0001F844       GetSysDir
 0001:0001F924       IsWin9x
 0001:0001F984       GetVolumePathName
 0001:0001FA10       Compress
 0001:0001FA88       SupportsCompression
 0001:0001FC90       SelfLocation
 0001:0001FD60       TempPath
 0001:0001FE00       MakeTempFilename
 0001:0001FEA4       GetFileVersion_internal
 0001:000200B0       GetFileVersion
 0001:00020198       GetTADemoVersion
 0001:00020210       Finalization
 0001:0002026C       TADemoConsts
 0001:000202CC       TTextFile.Create_Append
 0001:000203A4       TTextFile.Create_Rewrite
 0001:00020464       TTextFile.Destroy
 0001:000204A0       TTextFile.Flush
 0001:000204C8       TTextFile.Writeln
 0001:0002056C       Finalization
 0001:0002059C       TextFileU
 0001:00020670       ErrorString
 0001:00021F10       Finalization
 0001:00021F40       DPlay
 0001:00022034       Finalization
 0001:00022064       DPLobby
 0001:00022144       TCommandHandler.Create
 0001:000221F0       TCommands.Create
 0001:0002225C       TCommands.destroy
 0001:000222A0       TCommands.GetCount
 0001:000222D0       TCommands.GetItem
 0001:00022304       TCommands.ClearCommands
 0001:00022364       TCommands.LookUpCommand
 0001:000223AC       TCommands.AddCommandAlias
 0001:00022518       TCommands.AddCommand
 0001:00022650       Finalization
 0001:00022680       CommandHandlerU
 0001:00022688       MilliSecondOf
 0001:000226B0       Finalization
 0001:000226E0       DateUtils
 0001:00022740       TStopWatch.Create
 0001:000227CC       TStopWatch.SetTickStamp
 0001:00022810       TStopWatch.GetElapsedMilliseconds
 0001:0002286C       TStopWatch.Start
 0001:0002288C       TStopWatch.Stop
 0001:000228AC       Finalization
 0001:000228DC       StopWatch
 0001:00022948       TConsoleTimer.Create
 0001:000229CC       TConsoleTimer.Destroy
 0001:00022A34       TConsoleTimer.SetEnabled
 0001:00022A64       TConsoleTimer.SetInterval
 0001:00022A80       TConsoleTimer.Execute
 0001:00022B64       Finalization
 0001:00022B94       ConsoleTimer
 0001:00022B9C       CheatEnabled
 0001:00022BBC       AddCheatDescription
 0001:00022C10       ListCheats
 0001:00022F28       IsTAHookRunning
 0001:00022F78       OpenMemMap
 0001:00022FEC       Finalization
 0001:0002301C       MemMappedDataStructure
 0001:00023054       Finalization
 0001:00023084       PacketBufferU
 0001:000230F0       TLog2.Create
 0001:000231C0       TLog2.Flush
 0001:000231E8       TLog2.Add
 0001:000233A0       TLog2.Destroy
 0001:000233DC       Finalization
 0001:0002340C       log2
 0001:0002373C       PatchNJump
 0001:0002376C       SpliceInJump
 0001:00023844       UnSpliceJump
 0001:000238D8       TCodeInjection.Create
 0001:0002391C       TCodeInjection.RestoreProc
 0001:00023A5C       TCodeInjection_Replacement.WriteProc
 0001:00023C10       TCodeInjection_StaticCall.WriteProc
 0001:00023DC4       TCodeInjection_RelativeJmp.Create
 0001:00023E2C       TCodeInjection_RelativeJmp.WriteProc
 0001:00024084       TPluginData.create
 0001:00024128       TPluginData.MakeRelativeJmp
 0001:0002419C       TPluginData.MakeStaticCall
 0001:000241F0       TPluginData.MakeNOPReplacement
 0001:00024294       TPluginData.MakeReplacement
 0001:0002434C       TPluginData.NewCodeInjection
 0001:00024458       RegisterPlugin
 0001:000244BC       InstallPlugins
 0001:00024684       UnInstallPlugins
 0001:000247E4       Finalization
 0001:00024824       PluginEngine
 0001:00024A54       Finalization
 0001:00024AA4       TA_MemoryStructures
 0001:00024AAC       InterpretInternalCommand
 0001:00024AFC       SendTextLocal
 0001:00024B4C       Finalization
 0001:00024B7C       TA_FunctionsU
 0001:00024B84       Finalization
 0001:00024BB4       TA_MemoryConstants
 0001:00024D94       TCustomIniFile.Create
 0001:00024DDC       TCustomIniFile.SectionExists
 0001:00024E48       TCustomIniFile.ReadInteger
 0001:00024F14       TCustomIniFile.WriteInteger
 0001:00024F78       TCustomIniFile.ReadBool
 0001:00024FAC       TCustomIniFile.ReadDate
 0001:00025068       TCustomIniFile.ReadDateTime
 0001:00025124       TCustomIniFile.ReadFloat
 0001:000251E0       TCustomIniFile.ReadTime
 0001:0002529C       TCustomIniFile.WriteDate
 0001:00025304       TCustomIniFile.WriteDateTime
 0001:0002536C       TCustomIniFile.WriteFloat
 0001:000253D8       TCustomIniFile.WriteTime
 0001:00025458       TCustomIniFile.WriteBool
 0001:0002548C       TCustomIniFile.ValueExists
 0001:000254FC       TCustomIniFile.ReadBinaryStream
 0001:00025670       TCustomIniFile.WriteBinaryStream
 0001:000257E0       TIniFile.Destroy
 0001:0002581C       TIniFile.ReadString
 0001:0002587C       TIniFile.WriteString
 0001:000258EC       TIniFile.ReadSections
 0001:000259F8       TIniFile.ReadSection
 0001:00025B10       TIniFile.ReadSectionValues
 0001:00025C64       TIniFile.EraseSection
 0001:00025CC0       TIniFile.DeleteKey
 0001:00025CF8       TIniFile.UpdateFile
 0001:00025D1C       Finalization
 0001:00025D64       IniFiles
 0001:00025EA0       ReadError
 0001:00025ED4       IsRelative
 0001:00025EFC       RegDataToDataType
 0001:00025F4C       DataTypeToRegData
 0001:00025F90       TRegistry.Create
 0001:00025FE8       TRegistry.Create
 0001:00026038       TRegistry.Destroy
 0001:00026074       TRegistry.CloseKey
 0001:000260C0       TRegistry.SetRootKey
 0001:00026108       TRegistry.ChangeKey
 0001:0002613C       TRegistry.GetBaseKey
 0001:00026174       TRegistry.SetCurrentKey
 0001:00026190       TRegistry.CreateKey
 0001:00026274       TRegistry.OpenKey
 0001:000263AC       TRegistry.GetDataInfo
 0001:00026408       TRegistry.GetDataSize
 0001:0002643C       TRegistry.WriteString
 0001:00026470       TRegistry.ReadString
 0001:000264FC       TRegistry.PutData
 0001:0002656C       TRegistry.GetData
 0001:000265EC       TRegistry.ValueExists
 0001:00026610       TRegistry.GetKey
 0001:000266B0       TRegIniFile.Create
 0001:000266FC       TRegIniFile.Create
 0001:00026760       TRegIniFile.ReadString
 0001:00026830       TRegIniFile.WriteString
 0001:000268E0       TRegIniFile.ReadInteger
 0001:000269EC       TRegIniFile.WriteInteger
 0001:00026AE0       TRegIniFile.ReadBool
 0001:00026B2C       Finalization
 0001:00026B74       Registry
 0001:00026BE4       TPacket.Create
 0001:00026C90       TPacket.SJCreateNew
 0001:00026D20       TPacket.GetTimestamp
 0001:00026D5C       TPacket.GetRawData2
 0001:00026D98       TPacket.GetTAData
 0001:00026DFC       TPacket.PacketLength
 0001:000272E4       TPacket.Split2
 0001:00027654       TPacket.Decrypt
 0001:0002779C       TPacket.Encrypt
 0001:000278C4       TPacket.Decompress
 0001:00027D80       TPacket.Compress
 0001:00028310       Finalization
 0001:00028340       packet_old
 0001:000283A4       TPluginCommands.Create
 0001:00028410       TPluginCommands.destroy
 0001:00028454       TPluginCommands.ClearCommands
 0001:000284B4       TPluginCommands.LookUpCommand
 0001:000284FC       Finalization
 0001:0002852C       PluginCommandHandlerU
 0001:00028534       InputHandler
 0001:000286C4       OnInstall
 0001:000286E4       OnUnInstall
 0001:000286F4       GetPlugin
 0001:00028754       Finalization
 0001:00028784       InputHook
 0001:0002878C       GetCodeInjections
 0001:0002886C       GameUnit_LOS_Radar_CanDirectlySeeUnit
 0001:000288C8       GameUnit_LOS_Radar_LoopStart
 0001:00028920       GameUnit_LOS_Radar_LoopCondition
 0001:000289E0       Finalization
 0001:00028A10       LOS_Radar
 0001:00028A18       GetCodeInjections
 0001:00028A7C       GameUnit_LOS_MiniMap_UnitsProjectiles_IsOwner
 0001:00028AAC       Finalization
 0001:00028ADC       LOS_MiniMapUnits
 0001:00028AE4       GetCodeInjections
 0001:00028B8C       GameUnit_LOS_PlayerSeeUnit_IsOwnerAllowedToSee
 0001:00028BE0       GameUnit_LOS_PlayerSeeUnit_EpilogCode_Exit
 0001:00028BEC       Finalization
 0001:00028C1C       LOS_PlayerSeeUnit
 0001:00028C24       GetCodeInjections
 0001:00028CF0       LOS_GUIText_Unit_Resources
 0001:00028D30       LOS_GUIText_SeeCommHealth
 0001:00028D68       LOS_GUIText_Unit_KillsNStuff
 0001:00028D9C       Finalization
 0001:00028DCC       LOS_GUIText
 0001:00028DD4       GetCodeInjections
 0001:00028F10       GameUnit_LOS_Update_1_Start
 0001:00028F2C       GameUnit_LOS_Update_1_Retry
 0001:00028FFC       GameUnit_LOS_Update_2_Start
 0001:00029018       GameUnit_LOS_Update_2_Retry
 0001:000290F0       Finalization
 0001:00029120       LOS_UpdateTables
 0001:00029128       GetCodeInjections
 0001:000291F8       Signal_AlliedStateChange
 0001:0002923C       Player_SetAlliedState_JumpHook
 0001:00029254       Player_SetAlliedState_RetHook
 0001:0002926C       Finalization
 0001:0002929C       LOS_AllyPlayer
 0001:000292A4       ResetShareLosState
 0001:000292C0       OnInstallShareLOS
 0001:000292CC       OnUninstallShareLOS
 0001:000292D8       TextCommand_View_Hook
 0001:00029304       GetPlugin
 0001:000293BC       Finalization
 0001:000293EC       LOS_extensions
 0001:000293F4       ResetGameSpeedLimits
 0001:00029408       OnInstallSpeedHack
 0001:00029414       OnUninstallSpeedHack
 0001:00029418       GetPlugin
 0001:00029534       SpeedState_DecreaseSpeed_Check
 0001:0002956C       SpeedState_IncreaseSpeed_Check
 0001:0002959C       SpeedState_SetSpeed_Check
 0001:000295C4       Finalization
 0001:000295F4       SpeedHack
 0001:000295FC       Finalization
 0001:0002962C       TA_NetworkingMessages
 0001:00029634       Finalization
 0001:00029664       SynLZ
 0001:000298BC       TSynAnsiConvert.AnsiBufferToUnicode
 0001:000299A4       TSynAnsiConvert.AnsiBufferToUTF8
 0001:00029ACC       TSynAnsiConvert.AnsiToRawUnicode
 0001:00029B34       TSynAnsiConvert.Create
 0001:00029B78       IsFixedWidthCodePage
 0001:00029BA4       TSynAnsiConvert.Engine
 0001:00029C60       TSynAnsiConvert.UnicodeBufferToAnsi
 0001:00029D2C       TSynAnsiConvert.UTF8BufferToAnsi
 0001:00029DB4       TSynAnsiFixedWidth.AnsiBufferToUnicode
 0001:00029E90       TSynAnsiFixedWidth.AnsiBufferToUTF8
 0001:0002A010       TSynAnsiFixedWidth.AnsiToRawUnicode
 0001:0002A060       TSynAnsiFixedWidth.Create
 0001:0002A29C       TSynAnsiFixedWidth.UnicodeBufferToAnsi
 0001:0002A3A8       TSynAnsiFixedWidth.UTF8BufferToAnsi
 0001:0002A4E8       UTF8ToWideChar
 0001:0002A67C       RawUnicodeToUtf8
 0001:0002A7DC       FillCharInvoke
 0001:0002A7E4       FillChar
 0001:0002A888       MoveInvoke
 0001:0002A890       Move
 0001:0002A990       FillCharX87
 0001:0002AA2C       StrLen
 0001:0002AA84       InitSynCommonsConversionTables
 0001:0002ABCC       GetVersionEx
 0001:0002ABD4       RetrieveSystemInfo
 0001:0002ADE4       GetEnumName
 0001:0002AE08       PatchCode
 0001:0002AEC0       RedirectCode
 0001:0002AF94       CopyArray
 0001:0002AFA4       TDynArray.Add
 0001:0002B01C       TDynArray.Insert
 0001:0002B0F0       TDynArray.Clear
 0001:0002B104       TDynArray.GetCount
 0001:0002B15C       TDynArray.Init
 0001:0002B244       TDynArray.IsVoid
 0001:0002B260       _DynArrayClear
 0001:0002B268       _FinalizeArray
 0001:0002B270       RangeError
 0001:0002B2D0       TDynArray.InternalSetLength
 0001:0002B44C       TDynArray.SetCount
 0001:0002B528       TDynArray.SetCapacity
 0001:0002B56C       GetAddressFromCall
 0001:0002B5C4       TestIfSupportsSSE2
 0001:0002B5F0       Finalization
 0001:0002B6AC       SynCommons
 0001:0002B748       OnInstallCobExtensions
 0001:0002B878       OnUninstallCobExtensions
 0001:0002B87C       GetPlugin
 0001:0002B9B4       CustomGetters
 0001:0002D52C       CustomSetters
 0001:0002D938       COB_Extensions_Handling
 0001:0002D9B8       COB_ExtensionsSetters_Handling
 0001:0002DA2C       FreeExtensionsMemory
 0001:0002DADC       COB_Extensions_FreeMemory
 0001:0002DAF4       Finalization
 0001:0002DB64       COB_extensions
 0001:0002DBD8       TScriptorFile.Create
 0001:0002DC68       TScriptorFile.WriteDefinition
 0001:0002DD20       TScriptorFile.WriteComment
 0001:0002DD98       TScriptorFile.WriteNewLine
 0001:0002DDB0       TScriptorFile.Save
 0001:0002DDCC       SaveUnitsWeaponsListToScriptorFile
 0001:0002E224       Finalization
 0001:0002E254       DropUnitsWeaponsList
 0001:0002E25C       OnInstallKeyboardHook
 0001:0002E28C       OnUninstallKeyboardHook
 0001:0002E2A8       GetPlugin
 0001:0002E328       KeyboardHookFunction
 0001:0002EBF8       CtrlFDontSelectNotLabs
 0001:0002EC0C       SwitchSetShareEnergy
 0001:0002ED10       Finalization
 0001:0002ED40       KeyboardHook
 0001:0002F5D0       TDPlay.SendChat
 0001:0002F714       TDPlay.SendChatLocal
 0001:0002F844       TDPlay.SendChatLocal2
 0001:0002F908       TDPlay.SendLocal
 0001:0002F938       TDPlay.SendLocal
 0001:0002FAA8       TDPlay.SendAlliedChat
 0001:0002FB78       TDPlay.SendRecorderToRecorderMsg2
 0001:0002FE3C       TDPlay.SendRecorderToRecorderMsg
 0001:0002FFC4       TDPlay.SendClipboard
 0001:0003008C       TDPlay.SendCobEventMessage
 0001:000303FC       TDPlay.OnMemoryCheckTick
 0001:00030438       TDPlay.OnProcessCheckTick
 0001:00030490       TDPlay.checkForCheats
 0001:000304A8       TDPlay.OnFinishedCheatsCheck
 0001:000304E4       TDPlay.GetRandomMap
 0001:00030A44       TDPlay.GetRandomMapEx
 0001:00030CB0       TDPlay.initbuilding
 0001:00030D44       TDPlay.initfastbase
 0001:00031754       TDPlay.dobase
 0001:00031E50       TDPlay.getRecorderStatusString
 0001:00031F60       TDPlay.ChatMsgHandler
 0001:00032860       TDPlay.UnitCountChange
 0001:00032928       TDPlay.PacketLostHandler
 0001:00032C30       TDPlay.createlogfile
 0001:00033A10       TDPlay.fnRemoveInvalidChar
 0001:00033BDC       TDPlay.SmartPak
 0001:00033E48       TDPlay.Handleunitdata
 0001:000341E0       TDPlay.facexpshandler
 0001:0003441C       compare
 0001:00034464       TDPlay.SetAutoPauseAtStart
 0001:00034484       TDPlay.SetCommanderWarp
 0001:000344C0       TDPlay.SetF1Disable
 0001:000344FC       TDPlay.SetSpeedLock
 0001:0003451C       TDPlay.SetFastSpeed
 0001:00034540       TDPlay.SetSlowSpeed
 0001:00034564       TDPlay.PacketHandler
 0001:00038CE0       TDPlay.AddPlayerToGroup
 0001:00038D5C       TDPlay.CreatePlayer
 0001:00038DE0       TDPlay.CreateGroup
 0001:00038E60       TDPlay.DeletePlayerFromGroup
 0001:00038EDC       TDPlay.DestroyGroup
 0001:00038F54       TDPlay.EnableNewPlayers
 0001:00038FCC       TDPlay.EnumGroupPlayers
 0001:00039050       TDPlay.EnumGroups
 0001:000390D4       TDPlay.EnumPlayers
 0001:00039158       TDPlay.EnumSessions
 0001:000391E0       TDPlay.GetCaps
 0001:00039258       TDPlay.GetMessageCount
 0001:000392D4       TDPlay.GetPlayerCaps
 0001:00039350       TDPlay.GetPlayerName
 0001:000393D8       TDPlay.Initialize
 0001:00039450       TDPlay.Open
 0001:000394C8       TDPlay.Receive
 0001:00039550       TDPlay.SaveSession
 0001:000395C4       TDPlay.SetPlayerName
 0001:00039644       TDPlay.CreateGroup
 0001:000396CC       TDPlay.EnumGroupPlayers
 0001:00039754       TDPlay.EnumGroups
 0001:000397D8       TDPlay.GetCaps
 0001:00039854       TDPlay.GetGroupData
 0001:000398D8       TDPlay.GetGroupName
 0001:00039958       TDPlay.GetPlayerCaps
 0001:000399D8       TDPlay.GetPlayerData
 0001:00039A5C       TDPlay.SetGroupData
 0001:00039AE0       TDPlay.SetGroupName
 0001:00039B60       TDPlay.SetPlayerData
 0001:00039BE4       TDPlay.SetPlayerName
 0001:00039C64       TDPlay.AddGroupToGroup
 0001:00039CE0       TDPlay.CreateGroupInGroup
 0001:00039D6C       TDPlay.DeleteGroupFromGroup
 0001:00039DE8       TDPlay.EnumGroupsInGroup
 0001:00039E70       TDPlay.GetGroupConnectionSettings
 0001:00039EF4       TDPlay.SecureOpen
 0001:00039F78       TDPlay.SendChatMessage
 0001:00039FFC       TDPlay.SetGroupConnectionSettings
 0001:0003A07C       TDPlay.StartSession
 0001:0003A0F8       TDPlay.GetGroupFlags
 0001:0003A174       TDPlay.GetGroupParent
 0001:0003A1F0       TDPlay.GetPlayerAccount
 0001:0003A274       TDPlay.GetPlayerFlags
 0001:0003A2F0       TDPlay.CreatePlayer
 0001:0003A5A4       TDPlay.DestroyPlayer
 0001:0003A6C8       TDPlay.EnumPlayers
 0001:0003A788       TDPlay.EnumSessions
 0001:0003A80C       TDPlay.GetPlayerAddress
 0001:0003A8D0       TDPlay.GetSessionDesc
 0001:0003A948       TDPlay.SetSessionDesc
 0001:0003A9C0       TDPlay.EnumConnections
 0001:0003AA44       TDPlay.InitializeConnection
 0001:0003AAC0       TDPlay.GetPlayerName
 0001:0003B0C0       TDPlay.Send
 0001:0003B50C       TDPlay.Receive
 0001:0003C014       TDPlay.GetFixFacExps
 0001:0003C048       TDPlay.GetProtectDT
 0001:0003C07C       TDPlay.OnShareLos
 0001:0003C188       TDPlay.OnFixDisabled
 0001:0003C244       TDPlay.OnFixEnabled
 0001:0003C300       TDPlay.OnEhaoff
 0001:0003C3CC       TDPlay.OnEhaOn
 0001:0003C494       TDPlay.OnTaHookOff
 0001:0003C560       TDPlay.Onehareport
 0001:0003C6D8       TDPlay.OnPlayers
 0001:0003C91C       DirectPlay_PlayerPoll
 0001:0003C9FC       TDPlay.Onpolldp
 0001:0003CC24       TDPlay.OnReport
 0001:0003CD54       TDPlay.OnReportMod
 0001:0003CF50       TDPlay.OnDate
 0001:0003D05C       TDPlay.OnVoteReady
 0001:0003D230       TDPlay.OnVoteGo
 0001:0003D3B0       TDPlay.OnForceGo
 0001:0003D41C       TDPlay.OnGive
 0001:0003D550       TDPlay.OnStopGive
 0001:0003D630       TDPlay.OnUnits
 0001:0003D9DC       TDPlay.OnTake
 0001:0003DDB8       TDPlay.OnHookReport
 0001:0003DEA0       TDPlay.OnBaseOff
 0001:0003DF18       TDPlay.OnAutoPause
 0001:0003E054       TDPlay.Onf1off
 0001:0003E104       TDPlay.OnCmdwarp
 0001:0003E1B4       TDPlay.OnSyncon
 0001:0003E570       TDPlay.OnSyncOff
 0001:0003E5CC       TDPlay.OnBase
 0001:0003E680       TDPlay.OnDoBase
 0001:0003E7E0       OutputInfo
 0001:0003E908       TDPlay.OnHelp
 0001:0003EBD0       TDPlay.OnStatus
 0001:0003ECA8       TDPlay.OnYankspank
 0001:0003ED00       TDPlay.OnCrashMe
 0001:0003ED44       TDPlay.OnLoggingVerbosity
 0001:0003EE84       TDPlay.OnCrash
 0001:0003EF80       TDPlay.OnPanic
 0001:0003F038       TDPlay.OnAbout
 0001:0003F184       TDPlay.OnFixall
 0001:0003F1EC       TDPlay.OnFixFactoryExplosions
 0001:0003F2D4       TDPlay.OnProtectDT
 0001:0003F3AC       TDPlay.OnSharemapPos
 0001:0003F4E4       TDPlay.OnTime
 0001:0003F690       TDPlay.OnReportFilter
 0001:0003F82C       TDPlay.OnDisableFilter
 0001:0003F89C       TDPlay.OnAddFilter
 0001:0003FB80       TDPlay.OnRemoveFilter
 0001:0003FE9C       TDPlay.OnRecord
 0001:000401C0       TDPlay.On3dta
 0001:00040378       TDPlay.OnStopLog
 0001:000403C4       TDPlay.OnOnlyUnits
 0001:00040468       TDPlay.OnCreatetxt
 0001:0004050C       TDPlay.OnLockOn
 0001:00040620       TDPlay.OnRandMap
 0001:000406EC       TDPlay.OnRandMapEx
 0001:0004071C       TDPlay.OnFakeWatch
 0001:000407A8       TDPlay.OnForceCd
 0001:000408BC       TDPlay.OnLookUpAddr
 0001:000409FC       TDPlay.OnException
 0001:00040A1C       TDPlay.ExceptMessage
 0001:00040CA8       TDPlay.GetGoodSource
 0001:00040D20       TDPlay.OnRemovePlayer
 0001:00040D44       FindHostPlayer
 0001:00040DC0       TDPlay.GetServerPlayer
 0001:00040DFC       TDPlay.ImServer
 0001:00040E30       TDPlay.Open
 0001:00040FE4       TDPlay.Close
 0001:00041094       TDPlay.ResetRecorder
 0001:00041820       TDPlay.Exiting
 0001:00041D10       TDPlay.Create
 0001:00045088       TDPlay.Destroy
 0001:00045160       Finalization
 0001:0004519C       idplay
 0001:000451A4       FixModsINI
 0001:0004544C       ReadModsIniField
 0001:00045588       Finalization
 0001:000455B8       ModsList
 0001:000455C0       LeftStr
 0001:00045638       Finalization
 0001:00045668       StrUtils
 0001:00045980       TaFileExists
 0001:00045A90       GetINIFileName
 0001:00045BE8       ReadIniBool
 0001:00045D34       ReadIniValue
 0001:00045ED4       ReadIniString
 0001:0004607C       ReadINISettings
 0001:00046B8C       OnInstallINI_Options
 0001:00046B90       OnUninstallINI_Options
 0001:00046B94       GetPlugin
 0001:00046C08       Finalization
 0001:00046C54       IniOptions
 0001:00046D88       OnInstallExplodeBitmaps
 0001:00046D8C       OnUninstallExplodeBitmaps
 0001:00046D90       GetPlugin
 0001:00046E7C       LoadExtraBitmaps
 0001:00047018       InGameChoseBitmap
 0001:000472C0       Finalization
 0001:0004738C       ExplodeBitmaps
 0001:000474E8       IsTAVersion31
 0001:00047500       DoReport
 0001:00047624       TAMem.IsTAVersion31
 0001:000476BC       TAMem.GetViewPlayer
 0001:000476E0       TAMem.GetGameTime
 0001:0004770C       TAMem.GetGameSpeed
 0001:0004773C       TAMem.GetDevMode
 0001:0004776C       TAMem.GetMaxUnitLimit
 0001:00047794       TAMem.GetActualUnitLimit
 0001:000477BC       TAMem.GetIsAlteredUnitLimit
 0001:000477E4       TAMem.GetUnitsPtr
 0001:00047808       TAMem.GetMainStructPtr
 0001:00047824       TAMem.GetPlayersStructPtr
 0001:00047848       TAMem.GetWeaponTypeDefArrayPtr
 0001:0004788C       TAMem.GetUnitInfosPtr
 0001:000478B0       TAMem.GetUnitInfosCount
 0001:000478D4       TAMem.GetSwitchesMask
 0001:000478FC       TAMem.SetSwitchesMask
 0001:00047924       TAMem.SetPausedState
 0001:00047950       TAMem.UnitInfoId2Ptr
 0001:0004798C       TAMem.UnitInfoCrc2Ptr
 0001:00047A20       TAMem.Crc32ToCrc24
 0001:00047A40       TAMem.MovementClassId2Ptr
 0001:00047A74       TAMem.WeaponId2Ptr
 0001:00047AEC       TAMem.FeatureDefId2Ptr
 0001:00047B30       TAMem.GetMaxUnitId
 0001:00047B84       TAMem.ProtectMemoryRegion
 0001:00047BC4       TAPlayer.GetShareEnergyVal
 0001:00047BE8       TAPlayer.GetShareEnergy
 0001:00047C14       TAPlayer.GetShootAll
 0001:00047C48       TAPlayer.SetShootAll
 0001:00047CA4       TAPlayer.GetPlayerByIndex
 0001:00047CF0       TAPlayer.GetPlayerByDPID
 0001:00047D70       TAPlayer.PlayerType
 0001:00047D8C       TAPlayer.PlayerSide
 0001:00047DC4       TAPlayer.GetIsWatcher
 0001:00047DEC       TAPlayer.GetAlliedState
 0001:00047E30       TAUnit.GetKills
 0001:00047E54       TAUnit.GetHealth
 0001:00047E78       TAUnit.MakeDamage
 0001:00047FB0       TAUnit.GetCloak
 0001:00047FF0       TAUnit.SetCloak
 0001:00048028       TAUnit.GetUnitX
 0001:00048048       TAUnit.SetUnitX
 0001:00048100       TAUnit.GetUnitZ
 0001:00048120       TAUnit.SetUnitZ
 0001:000481D8       TAUnit.GetUnitY
 0001:000481F8       TAUnit.SetUnitY
 0001:00048218       TAUnit.GetTurnX
 0001:00048238       TAUnit.SetTurnX
 0001:00048258       TAUnit.GetTurnZ
 0001:00048278       TAUnit.SetTurnZ
 0001:00048298       TAUnit.GetTurnY
 0001:000482B8       TAUnit.SetTurnY
 0001:000482D8       TAUnit.SetTemplate
 0001:00048330       TAUnit.GetWeapon
 0001:000483B8       TAUnit.SetWeapon
 0001:00048420       TAUnit.GetAttackerID
 0001:00048460       TAUnit.GetTransporterUnit
 0001:00048490       TAUnit.GetTransportingUnit
 0001:000484C0       TAUnit.GetPriorUnit
 0001:0004850C       TAUnit.GetRandomFreePiece
 0001:000488BC       TAUnit.AttachDetachUnit
 0001:00048940       TAUnit.GetUnitAttachedTo
 0001:000489BC       TAUnit.GetLoadWeight
 0001:00048A58       TAUnit.GetLoadCurAmount
 0001:00048AC0       TAUnit.UpdateLos
 0001:00048AFC       TAUnit.Speech
 0001:00048B28       TAUnit.Play3DSound
 0001:00048B6C       TAUnit.PlayGafAnim
 0001:00048DD0       TAUnit.FireWeapon
 0001:00049018       TAUnit.AtMouse
 0001:00049070       TAUnit.AtPosition
 0001:000490AC       TAUnit.Position2Grid
 0001:00049190       TAUnit.GetCurrentSpeedVal
 0001:000491BC       TAUnit.SetCurrentSpeed
 0001:000491E4       TAUnit.TestBuildSpot
 0001:00049288       TAUnit.IsPlantYardOccupied
 0001:000492B4       TAUnit.TestAttachAtGridSpot
 0001:00049300       TAUnit.CreateUnit
 0001:000493F0       TAUnit.GetBuildPercentLeft
 0001:00049450       TAUnit.Kill
 0001:0004953C       TAUnit.SwapByKill
 0001:000495D0       TAUnit.GetCurrentOrderType
 0001:00049604       TAUnit.GetCurrentOrderParams
 0001:00049648       TAUnit.GetCurrentOrderState
 0001:00049678       TAUnit.GetCurrentOrderPos
 0001:000496D0       TAUnit.GetCurrentOrderTargetUnit
 0001:00049700       TAUnit.EditCurrentOrderParams
 0001:0004974C       TAUnit.CreateMainOrder
 0001:000497A4       TAUnit.CallCobWithCallback
 0001:0004984C       TAUnit.GetOwnerPtr
 0001:0004986C       TAUnit.GetOwnerIndex
 0001:0004989C       TAUnit.GetId
 0001:000498CC       TAUnit.GetLongId
 0001:000498EC       TAUnit.Id2Ptr
 0001:00049954       TAUnit.Id2LongId
 0001:000499A8       TAUnit.GetUnitInfoId
 0001:000499CC       TAUnit.GetUnitInfoCrc
 0001:00049A0C       TAUnit.GetUnitInfoPtr
 0001:00049A2C       TAUnit.IsOnThisComp
 0001:00049AB8       TAUnit.IsAllied
 0001:00049B20       TAUnit.IsRemoteIdLocal
 0001:00049B84       TAUnit.IsUnitTypeInCategory
 0001:00049C54       TAUnit.GrantUnitInfo
 0001:00049EB8       TAUnit.SearchCustomUnitInfos
 0001:00049F58       TAUnit.GetUnitInfoField
 0001:0004A8F4       SetUnitTypeMask
 0001:0004A9B8       TAUnit.SetUnitInfoField
 0001:0004B7EC       TAUnits.CreateMinions
 0001:0004BE3C       TAUnits.GiveUnit
 0001:0004BE7C       TAUnits.CreateSearchFilter
 0001:0004BF2C       TAUnits.GetRandomArrayId
 0001:0004BFFC       TAUnits.SearchUnits
 0001:0004C618       TAUnits.UnitsIntoGetterArray
 0001:0004C750       TAUnits.ClearSearchRec
 0001:0004C808       TAUnits.RandomizeSearchRec
 0001:0004CB38       TAUnits.Distance
 0001:0004CBDC       TAUnits.CircleCoords
 0001:0004CCC8       Finalization
 0001:0004CCF8       TA_MemoryLocations
 0001:0004CE30       OnInstallStatsLogging
 0001:0004CE34       OnUninstallStatsLogging
 0001:0004CE38       GetPlugin
 0001:0004CF08       StatLog_ReclaimFeatureLocal
 0001:0004CF68       ReclaimFeatureFinished
 0001:0004CFB0       StatLog_PlayerDied
 0001:0004CFE8       PlayerDied
 0001:0004D008       TStatsLogging.Create
 0001:0004D050       TStatsLogging.Init_StatEvent
 0001:0004D05C       TStatsLogging.AddPlayer_StatEvent
 0001:0004D194       TStatsLogging.NewUnit_StatEvent
 0001:0004D284       TStatsLogging.UnitFinished_StatEvent
 0001:0004D418       TStatsLogging.Damage_StatEvent
 0001:0004D580       TStatsLogging.FeatureDestroyed_StatEvent
 0001:0004D750       TStatsLogging.Kill_StatEvent
 0001:0004D8D8       TStatsLogging.ResourcesShare_StatEvent
 0001:0004D9E4       TStatsLogging.Stats_StatEvent
 0001:0004DB6C       TStatsLogging.GameFinished_StatEvent
 0001:0004DC0C       TStatsLogging.PlayerDeadOrQuit_StatEevent
 0001:0004DCBC       Finalization
 0001:0004DCEC       StatsLogging
 0001:0004DE14       EIdSocketError.CreateError
 0001:0004DE68       Finalization
 0001:0004DE98       IdException
 0001:0004E050       Finalization
 0001:0004E080       IdResourceStrings
 0001:0004E100       EIdWS2StubError.Build
 0001:0004E1F0       WS2Unload
 0001:0004E21C       WS2Stub_WSACleanup
 0001:0004E22C       WS2Stub_accept
 0001:0004E23C       WS2Stub_bind
 0001:0004E24C       WS2Stub_closesocket
 0001:0004E25C       WS2Stub_connect
 0001:0004E26C       WS2Stub_ioctlsocket
 0001:0004E27C       WS2Stub_getpeername
 0001:0004E28C       WS2Stub_getsockname
 0001:0004E29C       WS2Stub_getsockopt
 0001:0004E2AC       WS2Stub_htonl
 0001:0004E2BC       WS2Stub_htons
 0001:0004E2CC       WS2Stub_inet_addr
 0001:0004E2DC       WS2Stub_inet_ntoa
 0001:0004E2EC       WS2Stub_listen
 0001:0004E2FC       WS2Stub_ntohl
 0001:0004E30C       WS2Stub_ntohs
 0001:0004E31C       WS2Stub_recv
 0001:0004E32C       WS2Stub_recvfrom
 0001:0004E33C       WS2Stub_select
 0001:0004E34C       WS2Stub_send
 0001:0004E35C       WS2Stub_sendto
 0001:0004E36C       WS2Stub_setsockopt
 0001:0004E37C       WS2Stub_shutdown
 0001:0004E38C       WS2Stub_socket
 0001:0004E39C       WS2Stub_gethostbyaddr
 0001:0004E3AC       WS2Stub_gethostbyname
 0001:0004E3BC       WS2Stub_gethostname
 0001:0004E3CC       WS2Stub_getservbyport
 0001:0004E3DC       WS2Stub_getservbyname
 0001:0004E3EC       WS2Stub_getprotobynumber
 0001:0004E3FC       WS2Stub_getprotobyname
 0001:0004E40C       WS2Stub_WSASetLastError
 0001:0004E41C       WS2Stub_WSAGetLastError
 0001:0004E42C       WS2Stub_WSAIsBlocking
 0001:0004E43C       WS2Stub_WSAUnhookBlockingHook
 0001:0004E44C       WS2Stub_WSASetBlockingHook
 0001:0004E45C       WS2Stub_WSACancelBlockingCall
 0001:0004E46C       WS2Stub_WSAAsyncGetServByName
 0001:0004E47C       WS2Stub_WSAAsyncGetServByPort
 0001:0004E48C       WS2Stub_WSAAsyncGetProtoByName
 0001:0004E49C       WS2Stub_WSAAsyncGetProtoByNumber
 0001:0004E4AC       WS2Stub_WSAAsyncGetHostByName
 0001:0004E4BC       WS2Stub_WSAAsyncGetHostByAddr
 0001:0004E4CC       WS2Stub_WSACancelAsyncRequest
 0001:0004E4DC       WS2Stub_WSAAsyncSelect
 0001:0004E4EC       WS2Stub___WSAFDIsSet
 0001:0004E4FC       WS2Stub_WSAAccept
 0001:0004E50C       WS2Stub_WSACloseEvent
 0001:0004E51C       WS2Stub_WSAConnect
 0001:0004E52C       WS2Stub_WSACreateEvent
 0001:0004E53C       WS2Stub_WSADuplicateSocketA
 0001:0004E54C       WS2Stub_WSADuplicateSocketW
 0001:0004E55C       WS2Stub_WSAEnumNetworkEvents
 0001:0004E56C       WS2Stub_WSAEnumProtocolsA
 0001:0004E57C       WS2Stub_WSAEnumProtocolsW
 0001:0004E58C       WS2Stub_WSAEventSelect
 0001:0004E59C       WS2Stub_WSAGetOverlappedResult
 0001:0004E5AC       WS2Stub_WSAGetQosByName
 0001:0004E5BC       WS2Stub_WSAHtonl
 0001:0004E5CC       WS2Stub_WSAHtons
 0001:0004E5DC       WS2Stub_WSAIoctl
 0001:0004E5EC       WS2Stub_WSAJoinLeaf
 0001:0004E5FC       WS2Stub_WSANtohl
 0001:0004E60C       WS2Stub_WSANtohs
 0001:0004E61C       WS2Stub_WSARecv
 0001:0004E62C       WS2Stub_WSARecvDisconnect
 0001:0004E63C       WS2Stub_WSARecvFrom
 0001:0004E64C       WS2Stub_WSAResetEvent
 0001:0004E65C       WS2Stub_WSASend
 0001:0004E66C       WS2Stub_WSASendDisconnect
 0001:0004E67C       WS2Stub_WSASendTo
 0001:0004E68C       WS2Stub_WSASetEvent
 0001:0004E69C       WS2Stub_WSASocketA
 0001:0004E6AC       WS2Stub_WSASocketW
 0001:0004E6BC       WS2Stub_WSAWaitForMultipleEvents
 0001:0004E6CC       WS2Stub_WSAAddressToStringA
 0001:0004E6DC       WS2Stub_WSAAddressToStringW
 0001:0004E6EC       WS2Stub_WSAStringToAddressA
 0001:0004E6FC       WS2Stub_WSAStringToAddressW
 0001:0004E70C       WS2Stub_WSALookupServiceBeginA
 0001:0004E71C       WS2Stub_WSALookupServiceBeginW
 0001:0004E72C       WS2Stub_WSALookupServiceNextA
 0001:0004E73C       WS2Stub_WSALookupServiceNextW
 0001:0004E74C       WS2Stub_WSALookupServiceEnd
 0001:0004E75C       WS2Stub_WSAInstallServiceClassA
 0001:0004E76C       WS2Stub_WSAInstallServiceClassW
 0001:0004E77C       WS2Stub_WSARemoveServiceClass
 0001:0004E78C       WS2Stub_WSAGetServiceClassInfoA
 0001:0004E79C       WS2Stub_WSAGetServiceClassInfoW
 0001:0004E7AC       WS2Stub_WSAEnumNameSpaceProvidersA
 0001:0004E7BC       WS2Stub_WSAEnumNameSpaceProvidersW
 0001:0004E7CC       WS2Stub_WSAGetServiceClassNameByClassIdA
 0001:0004E7DC       WS2Stub_WSAGetServiceClassNameByClassIdW
 0001:0004E7EC       WS2Stub_WSASetServiceA
 0001:0004E7FC       WS2Stub_WSASetServiceW
 0001:0004E80C       WS2Stub_WSAProviderConfigChange
 0001:0004E81C       WS2Stub_WSADuplicateSocket
 0001:0004E82C       WS2Stub_WSAEnumProtocols
 0001:0004E83C       WS2Stub_WSASocket
 0001:0004E84C       WS2Stub_WSAAddressToString
 0001:0004E85C       WS2Stub_WSAStringToAddress
 0001:0004E86C       WS2Stub_WSALookupServiceBegin
 0001:0004E87C       WS2Stub_WSALookupServiceNext
 0001:0004E88C       WS2Stub_WSAInstallServiceClass
 0001:0004E89C       WS2Stub_WSAGetServiceClassInfo
 0001:0004E8AC       WS2Stub_WSAEnumNameSpaceProviders
 0001:0004E8BC       WS2Stub_WSAGetServiceClassNameByClassId
 0001:0004E8CC       WS2Stub_WSASetService
 0001:0004E8DC       WS2Stub_TransmitFile
 0001:0004E8EC       WS2Stub_AcceptEx
 0001:0004E8FC       WS2Stub_GetAcceptExSockaddrs
 0001:0004E90C       WS2Stub_WSARecvEx
 0001:0004EFAC       WS2Call
 0001:0004F074       WS2StubInit
 0001:0004F0B0       WSAStartup
 0001:0004F1BC       Finalization
 0001:0004F1F4       IdWinSock2
 0001:0004F208       Finalization
 0001:0004F238       IdStackConsts
 0001:0004F4C4       TIdStack.CheckForSocketError
 0001:0004F4EC       TIdStack.CheckForSocketError
 0001:0004F55C       TIdStack.RaiseSocketError
 0001:0004F5C4       TIdStack.Create
 0001:0004F5FC       TIdStack.WSTranslateSocketErrorMsg
 0001:0004FA38       TIdStack.Destroy
 0001:0004FA74       TIdStack.StringToTInAddr
 0001:0004FAD0       Finalization
 0001:0004FB00       IdStack
 0001:0004FC5C       TIdStackWindows.Create
 0001:0004FD24       TIdStackWindows.Destroy
 0001:0004FD58       TIdStackWindows.TInAddrToString
 0001:0004FE18       TIdStackWindows.WSAccept
 0001:0004FEB0       TIdStackWindows.WSBind
 0001:0004FF20       TIdStackWindows.WSCloseSocket
 0001:0004FF44       TIdStackWindows.WSConnect
 0001:0004FFA0       TIdStackWindows.WSGetHostByName
 0001:0005001C       TIdStackWindows.WSGetHostByAddr
 0001:00050078       TIdStackWindows.WSGetHostName
 0001:000500C8       TIdStackWindows.WSListen
 0001:000500F4       TIdStackWindows.WSRecv
 0001:00050128       TIdStackWindows.WSRecvFrom
 0001:000501CC       GetFDSet
 0001:00050228       SetFDSet
 0001:000502D8       TIdStackWindows.WSSelect
 0001:00050400       TIdStackWindows.WSSend
 0001:00050434       TIdStackWindows.WSSendTo
 0001:000504AC       TIdStackWindows.WSSetSockOpt
 0001:000504E4       TIdStackWindows.WSGetLocalAddresses
 0001:00050520       TIdStackWindows.WSGetLastError
 0001:0005053C       TIdStackWindows.WSSocket
 0001:0005056C       TIdStackWindows.WSHToNs
 0001:00050594       TIdStackWindows.WSNToHs
 0001:000505BC       TIdStackWindows.WSGetServByName
 0001:000506D0       TIdStackWindows.WSGetServByPort
 0001:00050800       TIdStackWindows.WSHToNL
 0001:00050824       TIdStackWindows.WSNToHL
 0001:00050848       TIdStackWindows.PopulateLocalAddresses
 0001:00050910       TIdStackWindows.WSGetLocalAddress
 0001:00050934       ServeFile
 0001:000509FC       TIdStackWindows.TranslateStringToTInAddr
 0001:00050AF4       TIdStackWindows.WSShutdown
 0001:00050B20       TIdStackWindows.WSGetPeerName
 0001:00050BC8       TIdStackWindows.WSGetSockName
 0001:00050C70       TIdStackWindows.WSGetSockOpt
 0001:00050CA8       TIdSocketListWindows.Add
 0001:00050D28       TIdSocketListWindows.Count
 0001:00050D44       TIdSocketListWindows.GetItem
 0001:00050DC8       TIdSocketListWindows.Remove
 0001:00050E34       TIdStackWindows.WSTranslateSocketErrorMsg
 0001:00050EF0       Finalization
 0001:00050F34       IdStackWindows
 0001:00050F64       Finalization
 0001:00050F94       IdURI
 0001:00051144       IncludeTrailingSlash
 0001:00051244       TempPath
 0001:000512C4       FetchCaseInsensitive
 0001:000513CC       Fetch
 0001:000514A0       SBPos
 0001:000514C4       TIdReadMemoryStream.SetPointer
 0001:000514F4       TIdReadMemoryStream.Write
 0001:00051510       Finalization
 0001:000515CC       IdGlobal
 0001:000516EC       Finalization
 0001:0005171C       IdMultipartFormData
 0001:00051724       Finalization
 0001:00051754       IdAssignedNumbers
 0001:0005188C       FoldWrapText
 0001:00051B04       TIdHeaderList.Create
 0001:00051B80       TIdHeaderList.DeleteFoldedLines
 0001:00051C2C       TIdHeaderList.FoldAndInsert
 0001:00051D18       TIdHeaderList.FoldLine
 0001:00051E30       TIdHeaderList.GetNameFromLine
 0001:00051EE8       TIdHeaderList.GetValue
 0001:00051F14       TIdHeaderList.GetValueFromLine
 0001:00052050       TIdHeaderList.IndexOfName
 0001:000520E0       TIdHeaderList.SetValue
 0001:000521E0       Finalization
 0001:00052210       IdHeaderList
 0001:000522DC       Finalization
 0001:0005230C       IdBaseComponent
 0001:00052474       TIdEncoder.Encode
 0001:000524EC       TIdEncoder.EncodeString
 0001:00052548       Finalization
 0001:00052578       IdCoder
 0001:0005277C       TIdDecoder4to3.ConstructDecodeTable
 0001:000527E4       TIdDecoder4to3.DecodeToStream
 0001:0005298C       TIdDecoder4to3.DecodeUnit
 0001:00052A08       TIdEncoder3to4.Encode
 0001:00052BF8       TIdEncoder3to4.EncodeUnit
 0001:00052C84       Finalization
 0001:00052CB4       IdCoder3to4
 0001:00052DC4       TIdEncoderMIME.Create
 0001:00052E24       Finalization
 0001:00052E60       IdCoderMIME
 0001:000530F8       RegisterAuthenticationMethod
 0001:00053224       TIdAuthentication.Create
 0001:00053280       TIdAuthentication.Destroy
 0001:000532C8       TIdAuthentication.ReadAuthInfo
 0001:0005338C       TIdAuthentication.Reset
 0001:00053398       TIdAuthentication.GetPassword
 0001:000533D0       TIdAuthentication.GetUserName
 0001:00053408       TIdAuthentication.SetPassword
 0001:00053440       TIdAuthentication.SetUserName
 0001:00053478       TIdAuthentication.GetSteps
 0001:00053490       TIdBasicAuthentication.Create
 0001:000534DC       TIdBasicAuthentication.Authentication
 0001:0005358C       TIdBasicAuthentication.DoNext
 0001:00053720       TIdBasicAuthentication.KeepAlive
 0001:00053734       TIdBasicAuthentication.Reset
 0001:00053750       TIdBasicAuthentication.GetSteps
 0001:00053768       Finalization
 0001:000537D8       IdAuthentication
 0001:00053808       Finalization
 0001:00053838       IdHTTPHeaderInfo
 0001:00053840       Finalization
 0001:00053870       IdAntiFreezeBase
 0001:000538C4       Finalization
 0001:0005390C       IdComponent
 0001:00053938       Finalization
 0001:00053968       IdSocketHandle
 0001:00053970       Unload
 0001:000539C8       Finalization
 0001:00053A00       IdSSLOpenSSLHeaders
 0001:00053A0C       Finalization
 0001:00053A3C       IdIOHandler
 0001:00053A44       Finalization
 0001:00053A74       IdIntercept
 0001:00053A7C       Finalization
 0001:00053AAC       IdRFCReply
 0001:00053AB4       Finalization
 0001:00053AE4       IdSocks
 0001:00053AEC       Finalization
 0001:00053B1C       IdTCPStream
 0001:00053B24       Finalization
 0001:00053B54       IdStream
 0001:00053B5C       Finalization
 0001:00053B8C       IdIOHandlerSocket
 0001:00053B94       Finalization
 0001:00053BC4       IdTCPConnection
 0001:00053BCC       Finalization
 0001:00053BFC       IdThread
 0001:00053C04       Finalization
 0001:00053C34       IdThreadMgrDefault
 0001:00053C3C       Finalization
 0001:00053C6C       IdServerIOHandler
 0001:00053C74       Finalization
 0001:00053CA4       IdServerIOHandlerSocket
 0001:00053CAC       Finalization
 0001:00053CDC       IdStrings
 0001:00053CE4       Finalization
 0001:00053D14       IdThreadSafe
 0001:00053D1C       Finalization
 0001:00053D4C       IdThreadMgr
 0001:00053D54       Finalization
 0001:00053D84       IdTCPServer
 0001:00053D8C       UnLoadOpenSLLibrary
 0001:00053DB4       Finalization
 0001:00053DEC       IdSSLOpenSSL
 0001:00053DF8       Finalization
 0001:00053E28       IdTCPClient
 0001:00053F14       Finalization
 0001:00053F70       IdCookie
 0001:00053F78       Finalization
 0001:00053FA8       IdCookieManager
 0001:00053FB0       Finalization
 0001:00053FE0       IdAuthenticationManager
 0001:00054000       Finalization
 0001:00054048       IdHTTP
 0001:00054120       TestByte
 0001:00054158       TestByte
 0001:000541A4       TestBytes
 0001:00054230       SetWord
 0001:0005424C       SetLongword
 0001:00054264       FindprohibitedProcesses
 0001:00054284       EnumWindowsProc
 0001:0005433C       TEnumWindowsThread.Execute
 0001:000543D8       FindMemoryCheats
 0001:000543F8       TCheckMemoryCheats.Execute
 0001:000547AC       CheckForCheats
 0001:000547D0       Finalization
 0001:00054800       TAMemManipulations
 0001:000548DC       StatusToStr
 0001:0005496C       TPlayerData.Create
 0001:00054A3C       TPlayerData.OnPlayerRemoved
 0001:00054AB4       TPlayerData.IsSelf
 0001:00054B44       TPlayerData.IsServer
 0001:00054BDC       TPlayers.Create
 0001:00054D6C       TPlayers.Destroy
 0001:00054DC8       TPlayers.Clear
 0001:00054EB8       TPlayers.Add
 0001:00054F0C       TPlayers.Remove
 0001:0005541C       TPlayers.Remove
 0001:00055458       TPlayers.getCount
 0001:00055474       TPlayers.Name
 0001:00055518       TPlayers.Name
 0001:00055674       TPlayers.GetData_
 0001:00055870       TPlayers.Convert
 0001:000559EC       TPlayers.ConvertId
 0001:00055B5C       Finalization
 0001:00055B8C       PlayerDataU
 0001:00055DD8       TLobby.Connect
 0001:00055F88       TLobby.CreateAddress
 0001:0005603C       TLobby.EnumAddress
 0001:000560E8       TLobby.EnumAddressTypes
 0001:00056198       TLobby.EnumLocalApplications
 0001:00056248       TLobby.GetConnectionSettings
 0001:000562F8       TLobby.ReceiveLobbyMessage
 0001:000564C0       TLobby.RunApplication
 0001:00056C2C       TLobby.SendLobbyMessage
 0001:00056DA4       TLobby.SetConnectionSettings
 0001:00056E54       TLobby.SetLobbyMessageEvent
 0001:00056F04       TLobby.CreateCompoundAddress
 0001:00056FBC       TLobby.Create
 0001:000570D8       Finalization
 0001:00057108       DPLobbyWrapper
 0001:00057110       DPlayxHandleInvalid
 0001:00057138       OnInit
 0001:000571A8       DirectPlayEnumerate
 0001:000572A0       DirectPlayEnumerateA
 0001:000573A0       DirectPlayEnumerateW
 0001:000574A0       DirectPlayCreate
 0001:00057708       DirectPlayLobbyCreateW
 0001:00057848       DirectPlayLobbyCreateA
 0001:00057A9C       DllCanUnloadNow
 0001:00057B3C       DllGetClassObject
 0001:00057BE0       StubCall
 0001:00057C24       Finalization
 0001:00057C54       Dplayx_exports
 0001:00057C88       InitToolHelp
 0001:00057F48       CreateToolhelp32Snapshot
 0001:00057F7C       Module32First
 0001:00057FB0       Module32Next
 0001:00057FE4       Finalization
 0001:00058014       TlHelp32
 0001:0005801C       OnInstall
 0001:00058020       OnUnInstall
 0001:00058024       GetPlugin
 0001:00058118       TModuleInfo.Create
 0001:000581F8       ModuleInfoComparer
 0001:00058240       Errorlog_Thunk2
 0001:00058584       Errorlog_Thunk1
 0001:00058598       Finalization
 0001:000585C8       ErrorLog_ExtraData
 0001:000585D0       OnInstall
 0001:000585D4       OnUnInstall
 0001:000585D8       GetPlugin
 0001:00058634       Finalization
 0001:00058664       Thread_marshaller
 0001:0005866C       OnInstallRegPathFix
 0001:00058670       OnUninstallRegPathFix
 0001:00058674       GetPlugin
 0001:0005889C       LoadSharedMaps
 0001:00058978       LoadSharedMapsHook
 0001:00058994       Finalization
 0001:000589C4       RegPathFix
 0001:000589CC       OnInstall
 0001:000589D0       OnUninstall
 0001:000589D4       GetPlugin
 0001:00058A74       SetPausedState
 0001:00058AA4       PauseHandling
 0001:00058ACC       Finalization
 0001:00058AFC       PauseLock
 0001:00058B04       OnInstallUnitLimit
 0001:00058B08       OnUninstallUnitLimit
 0001:00058B0C       GetPlugin
 0001:00058CA4       Finalization
 0001:00058CD4       UnitLimit
 0001:00058CDC       OnInstall
 0001:00058CE0       OnUninstall
 0001:00058CF8       BetterAIName
 0001:00058D80       BetterAINameStub
 0001:00058D9C       GetPlugin
 0001:00058E70       Finalization
 0001:00058EAC       MultiAILimit
 0001:00058F14       OnInstallWeaponsExtend
 0001:00058F5C       OnUninstallWeaponsExtend
 0001:00058F60       GetPlugin
 0001:00058FF4       WeaponPropertyPutIntoArray
 0001:00059128       WeaponsExtend_NewPropertiesLoadHook
 0001:000591C4       Finalization
 0001:0005921C       WeaponsExtend
 0001:000592CC       OnInstallUnitsExtend
 0001:000592F4       OnUninstallUnitsExtend
 0001:000592F8       GetPlugin
 0001:000593C4       UnitPropertyPutIntoArray
 0001:000594E4       GetUnitExtProperty
 0001:000596B0       UnitsExtend_NewPropertiesLoadHook
 0001:00059798       Finalization
 0001:00059810       UnitsExtend
 0001:00059818       OnInstallBuilders
 0001:0005981C       OnUninstallBuilders
 0001:00059820       GetPlugin
 0001:00059A30       Builders_MobileAddBuild
 0001:00059A84       Builders_PlantBuildNonMobile
 0001:00059ACC       Finalization
 0001:00059AFC       Builders
 0001:00059B04       OnInstallScriptCallsExtend
 0001:00059B08       OnUninstallScriptCallsExtend
 0001:00059B0C       GetPlugin
 0001:00059DC0       ScriptCallsExtend_AimPrimaryTurret_GetUnit
 0001:00059DF4       ScriptCallsExtend_AimPrimaryTurret_ExpCall
 0001:00059E30       ScriptCallsExtend_AimPrimaryBallistic
 0001:00059E78       CallWeaponHit
 0001:00059F08       ScriptCallsExtend_WeaponHitTest
 0001:00059F60       TookDamage
 0001:00059FAC       ScriptCallsExtend_TookDamage
 0001:00059FEC       ConfirmedKill
 0001:0005A038       ScriptCallsExtend_ConfirmedKill
 0001:0005A058       VTOLLoadUnload
 0001:0005A0C4       ScriptCallsExtend_CallAirLoadScript
 0001:0005A0E4       ScriptCallsExtend_CallAirUnLoadScript
 0001:0005A104       Finalization
 0001:0005A134       ScriptCallsExtend
 0001:0005A13C       OnInstallResurrectPatrol
 0001:0005A140       OnUninstallResurrectPatrol
 0001:0005A144       GetPlugin
 0001:0005A27C       FixFeaturePosition
 0001:0005A2D0       ResurrectPatrol_ReclaimToResurrect
 0001:0005A328       ResurrectPatrol_AvoidEnergyAndRepair
 0001:0005A368       WreckToUnitType
 0001:0005A3F8       ResurrectPatrol_AvoidMetalCheck
 0001:0005A494       Finalization
 0001:0005A4C4       ResurrectPatrol
 0001:0005A4CC       OnInstallUnitActions
 0001:0005A4D0       OnUninstallUnitActions
 0001:0005A4D4       GetPlugin
 0001:0005A734       OverloadBugFix
 0001:0005A778       UnitActions_TransportOverloadFix
 0001:0005A7A4       UnitActions_VTOLTransportCapacityCanLoadTest
 0001:0005A7E4       CompareVTOLUnitWeight
 0001:0005A858       UnitActions_VTOLTransportSize
 0001:0005A8A4       UnitActions_ExtraVTOLOrders
 0001:0005A8CC       UnitActions_UnitBuildWeapons
 0001:0005A8E8       UnitActions_AssignAISquad
 0001:0005A920       Finalization
 0001:0005A950       UnitActions
 0001:0005A958       OnInstallWeaponAimNTrajectory
 0001:0005A95C       OnUninstallWeaponAimNTrajectory
 0001:0005A960       GetPlugin
 0001:0005AB64       GetWeaponExtProperty
 0001:0005AC2C       WeaponAimNTrajectory_HighTrajectory
 0001:0005ACBC       WeaponAimNTrajectory_PreserveAccuracy
 0001:0005ACEC       TwoPhaseExtension
 0001:0005ADA4       WeaponAimNTrajectory_WeaponType2
 0001:0005ADC0       WeaponAimNTrajectory_NoAirWeapon
 0001:0005AE0C       WeaponAimNTrajectory_NoAirWeapon_Cursor
 0001:0005AE9C       Finalization
 0001:0005AECC       WeaponAimNTrajectory
 0001:0005AED4       OnInstallTAExceptionsLog
 0001:0005AED8       OnUninstallTAExceptionsLog
 0001:0005AEDC       GetPlugin
 0001:0005B008       COBCallbackEmptyCOB_Message
 0001:0005B1FC       TAExceptionsLog_COBCallbackEmptyCOB
 0001:0005B240       LogMissingCob
 0001:0005B488       TAExceptionsLog_COBRunScriptEmptyCOB
 0001:0005B4B8       LogAITooHighUnitInfo
 0001:0005B5A8       TAExceptionsLog_AIBuildUnitInfoTooHigh
 0001:0005B5E4       Finalization
 0001:0005B614       TAExceptionsLog
 0001:0005B61C       SetColor
 0001:0005B780       OnInstallColors
 0001:0005BA8C       OnUninstallColors
 0001:0005BA90       GetPlugin
 0001:0005BAF8       Finalization
 0001:0005BB28       Colors
 0001:0005BB30       OnInstallClockPosition
 0001:0005BB34       OnUninstallClockPosition
 0001:0005BB38       GetPlugin
 0001:0005BDC0       ClockMove_LeftBottom
 0001:0005BDE0       ClockMove_RightBottom
 0001:0005BE08       ClockMove_LeftTop
 0001:0005BE28       ClockMove_RightTop
 0001:0005BE54       Finalization
 0001:0005BE84       ClockPosition
 0001:0005BEA4       OnInstallGUIEnhancements
 0001:0005BF50       OnUninstallGUIEnhancements
 0001:0005BF54       GetPlugin
 0001:0005C24C       DrawUnitState
 0001:0005D8A8       DrawTrueIncome
 0001:0005DDF0       DrawDevUnitStateProbes
 0001:0005DE4C       GUIEnhancements_DevUnitProbes
 0001:0005DE68       ExtraUnitBars_MainCall
 0001:0005DE80       TrueIncomeHook
 0001:0005DEC8       DrawCircleUnitSelect
 0001:0005E2C0       DrawCircleUnitSelectHook
 0001:0005E358       DrawBuildSpot_InitScript
 0001:0005E388       PrepareNanoUnit
 0001:0005E458       FreeCob
 0001:0005E46C       FreeUnitMem
 0001:0005E538       DrawBuildSpotNanoframe
 0001:0005E81C       DrawBuildSpot_NanoframeHook
 0001:0005E838       DrawBuildSpotQueueNanoframe
 0001:0005EA3C       DrawBuildSpot_QueueNanoframeHook
 0001:0005EA5C       DrawBuildSpot_NanoframeShimmerHook
 0001:0005EAD0       Finalization
 0001:0005EB0C       GUIEnhancements
 0001:0005EB14       GlobalMemoryStatusEx
 0001:0005EB1C       OnInstallBattlerRoomMemFix
 0001:0005EB20       OnUninstallBattlerRoomMemFix
 0001:0005EB24       GetPlugin
 0001:0005EB94       GetMemory
 0001:0005EC54       BattlerRoomMemFix_GetMemory
 0001:0005EC88       Finalization
 0001:0005ECB8       BattlerRoomMemFix
 0001:0005ECC0       Do_LoadTime_CodeInjections
 0001:0005EE10       UninstallCodeInjections
 0001:0005EE1C       Finalization
 0001:0005EE4C       Plugins
 0001:0005EE54       DisableThreadLibraryCalls
 0001:0005EEE8       OnInitialize
 0001:0005F2E0       OnFinalize
 0001:0005F318       Finalization
 0001:0005F348       InitCode
 0001:0005F370       LibraryProc
 0001:0005F398       InitThunk_Stage2
 0001:0005F418       InitThunk_Stage1
 0001:0005F424       Finalization
 0001:0005F454       InitCode_CoreExePatching
 0001:0005F4A4       Finalization
 0001:0005F4D4       threadlogging
 0001:0005F4DC       Finalization
 0001:0005F50C       StartBuilding
 0001:0005F514       Finalization
 0001:0005F544       KillDamage
 0001:0005F54C       Finalization
 0001:0005F9D4       dplayx
 0002:00000000       ExitCode
 0002:00000004       ErrorAddr
 0002:00000008       RandSeed
 0002:0000000C       FileMode
 0002:00000010       VarClearProc
 0002:00000014       VarAddRefProc
 0002:00000018       VarCopyProc
 0002:0000001C       VarToLStrProc
 0002:00000020       VarToWStrProc
 0002:00000024       Default8087CW
 0002:00000028       HeapAllocFlags
 0002:0000002C       DebugHook
 0002:00000030       JITEnable
 0002:00000034       NoErrMsg
 0002:00000038       DefaultTextLineBreakStyle
 0002:0000003C       LibModuleList
 0002:00000040       ModuleUnloadList
 0002:00000044       MemoryManager
 0002:00000050       reMap
 0002:0000006C       errCaption
 0002:00000074       runErrMsg
 0002:00000094       dig
 0002:000000A4       TlsIndex
 0002:000000A8       PtrToNil
 0002:000000AC       Module
 0002:000000C4       TlsProc
 0002:000000D4       EmptyStr
 0002:000000D8       EmptyWideStr
 0002:000000DC       Win32Platform
 0002:000000E0       Win32MajorVersion
 0002:000000E4       Win32MinorVersion
 0002:000000E8       Win32BuildNumber
 0002:000000EC       Win32CSDVersion
 0002:000000F0       TwoDigitYearCenturyWindow
 0002:000000F4       MonthDays
 0002:00000124       LeadBytes
 0002:00000144       HexDisplayPrefix
 0002:00000148       GetDiskFreeSpaceEx
 0002:0000014C       cSimpleBoolStrs
 0002:00000154       AccessMode
 0002:00000160       ShareMode
 0002:00000174       FormatErrorStrs
 0002:0000017C       FCon1E18
 0002:00000188       DCon10
 0002:0000018C       CWNear
 0002:00000190       FMSecsPerDay
 0002:00000194       IMSecsPerDay
 0002:00000198       Format
 0002:0000019C       DefShortMonthNames
 0002:000001CC       DefLongMonthNames
 0002:000001FC       DefShortDayNames
 0002:00000218       DefLongDayNames
 0002:00000234       ErrorMap
 0002:0000026C       ExceptMap
 0002:0000031C       WesternGroups
 0002:00000320       TerminateProcList
 0002:00000324       CResult
 0002:0000032C       NullStrictConvert
 0002:00000330       NullAsStringValue
 0002:00000334       PackVarCreation
 0002:00000338       BooleanToStringRule
 0002:0000033C       CInvalidCustomVariantType
 0002:00000340       CRangeToType
 0002:00000354       CText
 0002:000003A8       CRelationshipToBoolean
 0002:000003BC       BooleanIdents
 0002:000003C4       DotSep
 0002:000003C8       WakeMainThread
 0002:000003D0       NilMethod
 0002:000003D8       Convert
 0002:000003E8       Convert
 0002:00000458       SyncList
 0002:0000045C       FILE_SHARING_ERRORS
 0002:0000047C       CRC32tab
 0002:0000087C       MapFileName
 0002:00000880       logdir
 0002:00000884       Deities
 0002:000008B8       AccessMode
 0002:000008C0       ShareFlags
 0002:000008C8       FileFlags
 0002:000008CC       fVersionLazyInited
 0002:000008D0       IID_IDirectPlay3
 0002:000008E0       IID_IDirectPlay
 0002:000008F0       IID_IDirectPlayLobby2
 0002:00000900       Cheat_Invulnerability
 0002:00000904       Cheat_Invisible
 0002:00000908       Cheat_FastBuild
 0002:0000090C       Cheat_InfiniteResources
 0002:00000910       Cheat_LosRadar
 0002:00000914       Cheat_ControlMenu
 0002:00000918       Cheat_BuildAnywhere
 0002:0000091C       Cheat_InstantCapture
 0002:00000920       Cheat_SpecialMove
 0002:00000924       Cheat_JamAll
 0002:00000928       Cheat_ExtraDamage
 0002:0000092C       Cheat_InstantBuild
 0002:00000930       Cheat_ResourcesFreeze
 0002:00000934       Cheat_DoubleShot
 0002:00000938       Cheat_ProhibitedTask
 0002:0000093C       SwitchesMasks
 0002:00000950       GetGameingType
 0002:00000954       Game_SetLOSState
 0002:00000958       Name2Sequence_Gaf
 0002:0000095C       ShowExplodeGaf
 0002:00000960       TA_UpdateUnitLOS
 0002:00000964       TA_UpdateLOS
 0002:00000968       GetPosHeight
 0002:0000096C       UnitInPlayerLOS
 0002:00000970       UnitAtPosition
 0002:00000974       Unit_Create
 0002:00000978       Send_UnitBuildFinished
 0002:0000097C       FreeUnitOrders
 0002:00000980       FreeObjectState
 0002:00000984       FreeMoveClass
 0002:00000988       free_MMwapper__
 0002:0000098C       GetUnit_BuildWeaponProgress
 0002:00000990       GetFeatureTypeOfPos
 0002:00000994       Feature_Destroy
 0002:00000998       UnitExplosion
 0002:0000099C       MakeDamageToUnit
 0002:000009A0       fire_callback1
 0002:000009A4       fire_callback2
 0002:000009A8       fire_callback3
 0002:000009AC       fire_callback0
 0002:000009B0       Trajectory3
 0002:000009B4       UnitAutoAim_CheckUnitWeapon
 0002:000009B8       TdfFile__GetInt
 0002:000009BC       TdfFile__GetStr
 0002:000009C0       TA_GiveUnit
 0002:000009C4       TA_AttachDetachUnit
 0002:000009C8       Order2Unit
 0002:000009CC       Script_RunScript
 0002:000009D0       Script_ProcessCallback
 0002:000009D4       DrawBar
 0002:000009D8       DrawLine
 0002:000009DC       DrawDotteCircle
 0002:000009E0       DrawText_Heavy
 0002:000009E4       sub_4C13F0
 0002:000009E8       SetFontColor
 0002:000009EC       Msg_Reminder
 0002:000009F0       PlaySound_UnitSpeech
 0002:000009F4       Receive_Sound
 0002:000009F8       InterpretCommand
 0002:000009FC       DoInterpretCommand
 0002:00000A00       CreateMultiplayerMapsList
 0002:00000A04       CreateMovementClass
 0002:00000A08       UnitName2ID
 0002:00000A0C       WeaponName2Ptr
 0002:00000A10       SendText
 0002:00000A14       ClearChat
 0002:00000A18       TestGridSpot
 0002:00000A1C       CanAttachAtGridSpot
 0002:00000A20       CanCloseOrOpenYard
 0002:00000A24       GetUnitAtMouse
 0002:00000A28       GetTPosition
 0002:00000A2C       AllowMemReadWrite
 0002:00000A30       SetMemReadOnly
 0002:00000A34       TA_Atan2
 0002:00000A38       InsertToHPIAry
 0002:00000A3C       SetCurrentDirectoryToTAPath
 0002:00000A40       findfirst_HPI
 0002:00000A44       findnext_HPI
 0002:00000A48       UnitStateProbe
 0002:00000A4C       UnitBuilderProbe
 0002:00000A50       Unit_CreateUnitsInGame
 0002:00000A54       Unit_CreateModelAndCob
 0002:00000A58       Unit_FixPosY_Sea
 0002:00000A5C       DrawUnit
 0002:00000A60       UNITS_AllocateMovementClass
 0002:00000A64       Values
 0002:00000A6C       Values
 0002:00000A74       DecompressionBufferSize
 0002:00000A78       UseCompression
 0002:00000A7C       State_SpeedHack
 0002:00000A80       Upperlimit
 0002:00000A84       LowerLimit
 0002:00000A88       JSON_BOOLEAN
 0002:00000A90       SynAnsiConvertList
 0002:00000A94       DefaultChar
 0002:00000A98       n2u
 0002:00000B10       SynVariantTypes
 0002:00000B14       SBF_BOOL
 0002:00000B1C       SynLogExceptionEnabled
 0002:00000B20       SupportsSSE2
 0002:00000B24       State_COB_extensions
 0002:00000B28       State_KeyboardHook
 0002:00000B2C       logsave
 0002:00000B30       State_INI_Options
 0002:00000B34       State_ExplodeBitmaps
 0002:00000B38       StrExplode6
 0002:00000B3C       StrExplode7
 0002:00000B40       StrExplode8
 0002:00000B44       StrExplode9
 0002:00000B48       StrExplode10
 0002:00000B4C       StrCustAnim1
 0002:00000B50       StrCustAnim2
 0002:00000B54       StrCustAnim3
 0002:00000B58       StrCustAnim4
 0002:00000B5C       StrCustAnim5
 0002:00000B60       StrCustAnim6
 0002:00000B64       StrCustAnim7
 0002:00000B68       StrCustAnim8
 0002:00000B6C       StrCustAnim9
 0002:00000B70       StrCustAnim10
 0002:00000B74       BoolValues
 0002:00000B78       ExpectedData
 0002:00000B7C       State_StatsLogging
 0002:00000B80       statslog
 0002:00000B84       hWS2Dll
 0002:00000B88       WS2StubTable
 0002:000010C8       GStackClass
 0002:000010CC       GServeFileProc
 0002:000010D0       GStarted
 0002:000010D4       wdays
 0002:000010F0       monthnames
 0002:00001120       IndyPos
 0002:00001124       wdays
 0002:00001140       monthnames
 0002:00001170       GBase64CodeTable
 0002:00001174       AuthList
 0002:00001178       IdStati
 0002:0000119C       hIdSSL
 0002:000011A0       hIdCrypto
 0002:000011A4       hIdIndySSL
 0002:000011A8       wdays
 0002:000011C4       monthnames
 0002:000011F4       ProtocolVersionString
 0002:000011FC       dplayxLibHandle
 0002:00001200       State_RegPathFix
 0002:00001204       State_PauseLock
 0002:00001208       StopPauseStateChange
 0002:0000120C       NewUnitLimit
 0002:00001210       State_UnitLimit
 0002:00001214       State_MultiAILimit
 0002:00001218       AIName
 0002:0000121C       State_WeaponsExtend
 0002:00001220       WeapInfo_HighTrajectory
 0002:00001224       WeapInfo_PreserveAccuracy
 0002:00001228       WeapInfo_NotAirWeapon
 0002:0000122C       WeapInfo_WeaponType2
 0002:00001230       State_UnitsExtend
 0002:00001234       UnitInfo_MultiAirTransport
 0002:00001238       UnitInfo_TransportWeightCapacity
 0002:0000123C       UnitInfo_ExtraVTOLOrders
 0002:00001240       UnitInfo_HideHPBar
 0002:00001244       UnitInfo_NotLab
 0002:00001248       UnitInfo_DrawBuildSpotNanoFrame
 0002:0000124C       UnitInfo_AISquadNr
 0002:00001250       State_Builders
 0002:00001254       State_ScriptCallsExtend
 0002:00001258       State_ResurrectPatrol
 0002:0000125C       State_UnitActions
 0002:00001260       State_WeaponAimNTrajectory
 0002:00001264       State_TAExceptionsLog
 0002:00001268       State_Colors
 0002:0000126C       State_ClockPosition
 0002:00001270       State_GUIEnhancements
 0002:00001274       STANDARDUNIT
 0002:00001278       MEDIUMUNIT
 0002:0000127C       BIGUNIT
 0002:00001280       HUGEUNIT
 0002:00001284       EXTRALARGEUNIT
 0002:00001288       NanoUnitCreateInit
 0002:0000128C       State_BattlerRoomMemFix
 0002:00002000       DispCallByIDProc
 0002:00002004       ExceptProc
 0002:00002008       ErrorProc
 0002:0000200C       ExceptClsProc
 0002:00002010       ExceptObjProc
 0002:00002014       RaiseExceptionProc
 0002:00002018       RTLUnwindProc
 0002:0000201C       ExceptionClass
 0002:00002020       AssertErrorProc
 0002:00002024       ExitProcessProc
 0002:00002028       AbstractErrorProc
 0002:0000202C       MainInstance
 0002:00002030       MainThreadID
 0002:00002034       IsLibrary
 0002:00002038       CmdShow
 0002:0000203C       CmdLine
 0002:00002040       ExitProc
 0002:00002044       IsConsole
 0002:00002045       IsMultiThread
 0002:00002046       Test8086
 0002:00002048       Input
 0002:00002214       Output
 0002:000023E0       ErrOutput
 0002:000025AC       AllocMemCount
 0002:000025B0       AllocMemSize
 0002:000025B4       .5
 0002:000025B8       DefaultUserCodePage
 0002:000025BC       initialized
 0002:000025C0       heapErrorCode
 0002:000025C4       heapLock
 0002:000025DC       blockDescBlockList
 0002:000025E0       blockDescFreeList
 0002:000025E4       spaceRoot
 0002:000025F4       decommittedRoot
 0002:00002604       avail
 0002:00002610       rover
 0002:00002614       remBytes
 0002:00002618       curAlloc
 0002:0000261C       smallTab
 0002:00002620       committedRoot
 0002:00002630       InitContext
 0002:0000265C       ModuleIsLib
 0002:0000265D       ModuleIsCpp
 0002:00002660       HInstance
 0002:00002664       DllProc
 0002:00002668       .1
 0002:0000266C       tlsBuffer
 0002:00002670       .1
 0002:00002674       .3
 0002:00002678       .1
 0002:0000267C       .1
 0002:00002680       CurrencyString
 0002:00002684       CurrencyFormat
 0002:00002685       NegCurrFormat
 0002:00002686       ThousandSeparator
 0002:00002687       DecimalSeparator
 0002:00002688       CurrencyDecimals
 0002:00002689       DateSeparator
 0002:0000268C       ShortDateFormat
 0002:00002690       LongDateFormat
 0002:00002694       TimeSeparator
 0002:00002698       TimeAMString
 0002:0000269C       TimePMString
 0002:000026A0       ShortTimeFormat
 0002:000026A4       LongTimeFormat
 0002:000026A8       ShortMonthNames
 0002:000026D8       LongMonthNames
 0002:00002708       ShortDayNames
 0002:00002724       LongDayNames
 0002:00002740       SysLocale
 0002:0000274E       ListSeparator
 0002:00002750       EraNames
 0002:0000276C       EraYearOffsets
 0002:00002788       TrueBoolStrs
 0002:0000278C       FalseBoolStrs
 0002:00002790       .35
 0002:00002794       OutOfMemory
 0002:00002798       InvalidPointer
 0002:0000279C       FLanguages
 0002:000027A0       VariantChangeTypeEx
 0002:000027A4       VarNeg
 0002:000027A8       VarNot
 0002:000027AC       VarAdd
 0002:000027B0       VarSub
 0002:000027B4       VarMul
 0002:000027B8       VarDiv
 0002:000027BC       VarIDiv
 0002:000027C0       VarMod
 0002:000027C4       VarAnd
 0002:000027C8       VarOr
 0002:000027CC       VarXor
 0002:000027D0       VarCmp
 0002:000027D4       VarI4FromStr
 0002:000027D8       VarR4FromStr
 0002:000027DC       VarR8FromStr
 0002:000027E0       VarDateFromStr
 0002:000027E4       VarCyFromStr
 0002:000027E8       VarBoolFromStr
 0002:000027EC       VarBstrFromCy
 0002:000027F0       VarBstrFromDate
 0002:000027F4       VarBstrFromBool
 0002:000027F8       .5
 0002:000027FC       EmptyParam
 0002:0000280C       VarDispProc
 0002:00002810       ClearAnyProc
 0002:00002814       ChangeAnyProc
 0002:00002818       RefAnyProc
 0002:0000281C       .81
 0002:00002820       LVarTypes
 0002:00002824       LVarTypeSync
 0002:0000283C       .1
 0002:00002840       .6
 0002:00002844       .3
 0002:00002848       GlobalNameSpace
 0002:0000284C       SyncEvent
 0002:00002850       .45
 0002:00002854       IntConstList
 0002:00002858       RegGroups
 0002:0000285C       FindGlobalComponentProcs
 0002:00002860       GlobalFixupList
 0002:00002864       ThreadLock
 0002:0000287C       ThreadCount
 0002:00002880       .9
 0002:00002884       .7
 0002:00002888       .6
 0002:0000288C       .5
 0002:00002890       .1
 0002:00002894       .1
 0002:00002898       .2
 0002:0000289C       .21
 0002:000028A0       Units
 0002:000028A4       Procedures
 0002:000028A8       LineNumbers
 0002:000028AC       MapFileSetup
 0002:000028B0       .1
 0002:000028B4       ObjectsToFree
 0002:000028B8       .1
 0002:000028BC       logFilename
 0002:000028C0       Log_
 0002:000028C4       .2
 0002:000028C8       .1
 0002:000028CC       kernellib
 0002:000028D0       .2
 0002:000028D4       fIsWin9x
 0002:000028D8       proc
 0002:000028DC       SelfLocation_cache
 0002:000028E0       TADemoVersion_cache
 0002:000028E4       .2
 0002:000028E8       .1
 0002:000028EC       .1
 0002:000028F0       .3
 0002:000028F4       .1
 0002:000028F8       .2
 0002:000028FC       .2
 0002:00002900       .1
 0002:00002904       .3
 0002:00002908       .2
 0002:0000290C       .6
 0002:00002910       Plugins
 0002:00002914       ExtraAnimations
 0002:00002954       ExtraWeaponDefTags
 0002:00002958       ExtraUnitDefTags
 0002:0000295C       WeaponLimitPatchArr
 0002:00002960       NanoSpotUnitSt
 0002:00002A78       NanoSpotQueueUnitSt
 0002:00002B90       NanoSpotUnitInfoSt
 0002:00002DDC       NanoSpotQueueUnitInfoSt
 0002:00003028       UnitsSharedData
 0002:0000402C       .4
 0002:00004030       .1
 0002:00004034       .1
 0002:00004038       .8
 0002:0000403C       .5
 0002:00004040       .2
 0002:00004044       .3
 0002:00004048       PluginCommands
 0002:0000404C       .1
 0002:00004050       TestPlayerIndex
 0002:00004054       TestPlayerPtr
 0002:00004058       PlayerPtr
 0002:0000405C       ViewPlayerRadar
 0002:00004060       .1
 0002:00004064       .1
 0002:00004068       UnitPtr
 0002:0000406C       PlayerPtr
 0002:00004070       TestPlayer
 0002:00004074       ViewPlayerPlSeeU
 0002:00004078       .1
 0002:0000407C       .1
 0002:00004080       LOS_Updates_PTR
 0002:00004084       PlayerPtr
 0002:00004088       TestPlayer
 0002:0000408C       .1
 0002:00004090       AlliedStateChanged
 0002:00004094       .1
 0002:00004098       ViewPlayer
 0002:0000409C       .1
 0002:000040A0       .1
 0002:000040A4       .1
 0002:000040A8       .1
 0002:000040AC       WinAnsiConvert
 0002:000040B0       CurrentAnsiConvert
 0002:000040B4       NormToUpper
 0002:000041B4       NormToLower
 0002:000042B4       NormToUpperAnsi7
 0002:000043B4       ConvertHexToBin
 0002:000044B4       IsWow64
 0002:000044B8       SystemInfo
 0002:000044DC       OSVersionInfo
 0002:00004578       OSVersion
 0002:0000457C       ExeVersion
 0002:0000459C       GarbageCollector
 0002:000045A0       .66
 0002:000045A4       SettingsUS
 0002:00004664       ConvertBase64ToBin
 0002:00004668       JSONCustomParsers
 0002:0000466C       CustomUnitInfosArray
 0002:00004670       UnitSearchArr
 0002:00004674       SpawnedMinionsArr
 0002:00004678       CustomUnitFieldsArr
 0002:0000467C       CustomUnitInfos
 0002:00004698       UnitSearchResults
 0002:000046B4       SpawnedMinions
 0002:000046D0       CustomUnitFields
 0002:000046EC       CustomUnitInfosCount
 0002:000046F0       UnitSearchCount
 0002:000046F4       SpawnedMinionsCount
 0002:000046F8       CustomUnitFieldsCount
 0002:000046FC       .1
 0002:00004700       .2
 0002:00004704       hKeyboardHook
 0002:00004708       keyboardHookLevel
 0002:0000470C       lastShareEnergyVal
 0002:00004710       .1
 0002:00004714       StartedFrom
 0002:00004718       chatview
 0002:0000471C       GlobalDPlay
 0002:00004720       .6
 0002:00004724       .1
 0002:00004728       .1
 0002:0000472C       IniSettings
 0002:00004818       .1
 0002:0000481C       iniPath_cache
 0002:00004820       .1
 0002:00004824       ExplodeBitmapsPlugin
 0002:00004828       TAData
 0002:0000482C       PlayerInfo
 0002:00004830       .5
 0002:00004834       CacheUsed
 0002:00004835       IsTAVersion31_Cache
 0002:00004838       .2
 0002:0000483C       lastunit
 0002:00004840       .64
 0002:00004844       .1
 0002:00004848       WSACleanup
 0002:0000484C       accept
 0002:00004850       bind
 0002:00004854       closesocket
 0002:00004858       connect
 0002:0000485C       ioctlsocket
 0002:00004860       getpeername
 0002:00004864       getsockname
 0002:00004868       getsockopt
 0002:0000486C       htonl
 0002:00004870       htons
 0002:00004874       inet_addr
 0002:00004878       inet_ntoa
 0002:0000487C       listen
 0002:00004880       ntohl
 0002:00004884       ntohs
 0002:00004888       recv
 0002:0000488C       recvfrom
 0002:00004890       select
 0002:00004894       send
 0002:00004898       sendto
 0002:0000489C       setsockopt
 0002:000048A0       shutdown
 0002:000048A4       socket
 0002:000048A8       gethostbyaddr
 0002:000048AC       gethostbyname
 0002:000048B0       gethostname
 0002:000048B4       getservbyport
 0002:000048B8       getservbyname
 0002:000048BC       getprotobynumber
 0002:000048C0       getprotobyname
 0002:000048C4       WSASetLastError
 0002:000048C8       WSAGetLastError
 0002:000048CC       WSAIsBlocking
 0002:000048D0       WSAUnhookBlockingHook
 0002:000048D4       WSASetBlockingHook
 0002:000048D8       WSACancelBlockingCall
 0002:000048DC       WSAAsyncGetServByName
 0002:000048E0       WSAAsyncGetServByPort
 0002:000048E4       WSAAsyncGetProtoByName
 0002:000048E8       WSAAsyncGetProtoByNumber
 0002:000048EC       WSAAsyncGetHostByName
 0002:000048F0       WSAAsyncGetHostByAddr
 0002:000048F4       WSACancelAsyncRequest
 0002:000048F8       WSAAsyncSelect
 0002:000048FC       __WSAFDIsSet
 0002:00004900       WSAAccept
 0002:00004904       WSACloseEvent
 0002:00004908       WSAConnect
 0002:0000490C       WSACreateEvent
 0002:00004910       WSADuplicateSocketA
 0002:00004914       WSADuplicateSocketW
 0002:00004918       WSADuplicateSocket
 0002:0000491C       WSAEnumNetworkEvents
 0002:00004920       WSAEnumProtocolsA
 0002:00004924       WSAEnumProtocolsW
 0002:00004928       WSAEnumProtocols
 0002:0000492C       WSAEventSelect
 0002:00004930       WSAGetOverlappedResult
 0002:00004934       WSAGetQosByName
 0002:00004938       WSAHtonl
 0002:0000493C       WSAHtons
 0002:00004940       WSAIoctl
 0002:00004944       WSAJoinLeaf
 0002:00004948       WSANtohl
 0002:0000494C       WSANtohs
 0002:00004950       WSARecv
 0002:00004954       WSARecvDisconnect
 0002:00004958       WSARecvFrom
 0002:0000495C       WSAResetEvent
 0002:00004960       WSASend
 0002:00004964       WSASendDisconnect
 0002:00004968       WSASendTo
 0002:0000496C       WSASetEvent
 0002:00004970       WSASocketA
 0002:00004974       WSASocketW
 0002:00004978       WSASocket
 0002:0000497C       WSAWaitForMultipleEvents
 0002:00004980       WSAAddressToStringA
 0002:00004984       WSAAddressToStringW
 0002:00004988       WSAAddressToString
 0002:0000498C       WSAStringToAddressA
 0002:00004990       WSAStringToAddressW
 0002:00004994       WSAStringToAddress
 0002:00004998       WSALookupServiceBeginA
 0002:0000499C       WSALookupServiceBeginW
 0002:000049A0       WSALookupServiceBegin
 0002:000049A4       WSALookupServiceNextA
 0002:000049A8       WSALookupServiceNextW
 0002:000049AC       WSALookupServiceNext
 0002:000049B0       WSALookupServiceEnd
 0002:000049B4       WSAInstallServiceClassA
 0002:000049B8       WSAInstallServiceClassW
 0002:000049BC       WSAInstallServiceClass
 0002:000049C0       WSARemoveServiceClass
 0002:000049C4       WSAGetServiceClassInfoA
 0002:000049C8       WSAGetServiceClassInfoW
 0002:000049CC       WSAGetServiceClassInfo
 0002:000049D0       WSAEnumNameSpaceProvidersA
 0002:000049D4       WSAEnumNameSpaceProvidersW
 0002:000049D8       WSAEnumNameSpaceProviders
 0002:000049DC       WSAGetServiceClassNameByClassIdA
 0002:000049E0       WSAGetServiceClassNameByClassIdW
 0002:000049E4       WSAGetServiceClassNameByClassId
 0002:000049E8       WSASetServiceA
 0002:000049EC       WSASetServiceW
 0002:000049F0       WSASetService
 0002:000049F4       WSAProviderConfigChange
 0002:000049F8       TransmitFile
 0002:000049FC       AcceptEx
 0002:00004A00       GetAcceptExSockaddrs
 0002:00004A04       WSARecvEx
 0002:00004A08       .3
 0002:00004A0C       WS2_WSAStartup
 0002:00004A10       .1
 0002:00004A14       GSocketListClass
 0002:00004A18       .6
 0002:00004A1C       .3
 0002:00004A20       .3
 0002:00004A24       IndyFalseBoolStrs
 0002:00004A28       IndyTrueBoolStrs
 0002:00004A2C       .11
 0002:00004A30       FIdPorts
 0002:00004A34       ATempPath
 0002:00004A38       .5
 0002:00004A3C       .1
 0002:00004A40       .2
 0002:00004A44       .2
 0002:00004A48       .3
 0002:00004A4C       .3
 0002:00004A50       GBase64DecodeTable
 0002:00004AD0       .3
 0002:00004AD4       .4
 0002:00004AD8       .5
 0002:00004ADC       .2
 0002:00004AE0       .3
 0002:00004AE4       GStackCriticalSection
 0002:00004AE8       .9
 0002:00004AEC       .1
 0002:00004AF0       .2
 0002:00004AF4       .4
 0002:00004AF8       .3
 0002:00004AFC       .2
 0002:00004B00       .2
 0002:00004B04       .3
 0002:00004B08       .2
 0002:00004B0C       .31
 0002:00004B10       .5
 0002:00004B14       .2
 0002:00004B18       .2
 0002:00004B1C       .2
 0002:00004B20       .1
 0002:00004B24       .7
 0002:00004B28       .4
 0002:00004B2C       .11
 0002:00004B30       .22
 0002:00004B34       LockInfoCB
 0002:00004B38       LockPassCB
 0002:00004B3C       LockVerifyCB
 0002:00004B40       .2
 0002:00004B44       .9
 0002:00004B48       .2
 0002:00004B4C       .4
 0002:00004B50       .8
 0002:00004B54       .3
 0002:00004B58       ProhibitedFound
 0002:00004B5C       .4
 0002:00004B60       .2
 0002:00004B64       DoInitialize
 0002:00004B68       DoFinalize
 0002:00004B6C       gdwDPlaySPRefCount
 0002:00004B70       .1
 0002:00004B74       DirectPlayEnumerate_proc
 0002:00004B78       DirectPlayEnumerateA_proc
 0002:00004B7C       DirectPlayEnumerateW_proc
 0002:00004B80       DirectPlayCreate_proc
 0002:00004B84       DirectPlayLobbyCreateW_proc
 0002:00004B88       DirectPlayLobbyCreateA_proc
 0002:00004B8C       .1
 0002:00004B90       KernelHandle
 0002:00004B94       _CreateToolhelp32Snapshot
 0002:00004B98       _Heap32ListFirst
 0002:00004B9C       _Heap32ListNext
 0002:00004BA0       _Heap32First
 0002:00004BA4       _Heap32Next
 0002:00004BA8       _Toolhelp32ReadProcessMemory
 0002:00004BAC       _Process32First
 0002:00004BB0       _Process32Next
 0002:00004BB4       _Process32FirstW
 0002:00004BB8       _Process32NextW
 0002:00004BBC       _Thread32First
 0002:00004BC0       _Thread32Next
 0002:00004BC4       _Module32First
 0002:00004BC8       _Module32Next
 0002:00004BCC       _Module32FirstW
 0002:00004BD0       _Module32NextW
 0002:00004BD4       .1
 0002:00004BD8       .1
 0002:00004BDC       .1
 0002:00004BE0       RegPathFixPlugin
 0002:00004BE4       .1
 0002:00004BE8       .1
 0002:00004BEC       .1
 0002:00004BF0       .1
 0002:00004BF4       WeaponsExtendPlugin
 0002:00004BF8       TempString
 0002:00004C38       .1
 0002:00004C3C       UnitsExtendPlugin
 0002:00004C40       .1
 0002:00004C44       BuildersPlugin
 0002:00004C48       .1
 0002:00004C4C       ScriptCallsExtendPlugin
 0002:00004C50       TargetUnit_Turret
 0002:00004C54       .1
 0002:00004C58       ResurrectPatrolPlugin
 0002:00004C5C       ResPosition
 0002:00004C68       .1
 0002:00004C6C       squadnr
 0002:00004C70       .1
 0002:00004C74       WeaponAimNTrajectoryPlugin
 0002:00004C78       .1
 0002:00004C7C       TAExceptionsLogPlugin
 0002:00004C80       .1
 0002:00004C84       ColorsPlugin
 0002:00004C88       .1
 0002:00004C8C       ClockPositionPlugin
 0002:00004C90       .1
 0002:00004C94       GUIEnhancementsPlugin
 0002:00004C98       .1
 0002:00004C9C       BattlerRoomMemFixPlugin
 0002:00004CA0       .1
 0002:00004CA4       .2
 0002:00004CA8       proc
 0002:00004CAC       .1
 0002:00004CB0       CodeInjectionData
 0002:00004CC0       .1
 0002:00004CC4       .1
 0002:00004CC8       .1


Line numbers for System(system.pas) segment .text

   295 0001:0000015C  2152 0001:0000020C  2156 0001:00000214  2160 0001:0000021C
  2163 0001:00000224  2165 0001:0000022C  2168 0001:00000234  2171 0001:0000023C
  2172 0001:00000244  2174 0001:0000024C  2177 0001:00000254  2179 0001:0000025C
  2182 0001:00000264  2185 0001:0000026C  2190 0001:00000274  2193 0001:0000027C
  2196 0001:00000284  2199 0001:0000028C  2205 0001:00000294  2208 0001:0000029C
  2211 0001:000002A4  2214 0001:000002AC  2220 0001:000002B4  2226 0001:000002BC
  2230 0001:000002C4  2233 0001:000002CC  2236 0001:000002D4  2239 0001:000002DC
  2242 0001:000002E4  2245 0001:000002EC  2249 0001:000002F4  2259 0001:000002FC
  2262 0001:00000304  2266 0001:0000030C  2269 0001:00000314  2273 0001:0000031C
  2277 0001:00000324  2288 0001:0000032C  2292 0001:00000334  2298 0001:0000033C
  2302 0001:00000344  2305 0001:0000034C  2311 0001:00000354  2314 0001:0000035C
  2317 0001:00000364  2320 0001:0000036C  2323 0001:00000374  2326 0001:0000037C
  2332 0001:00000384  2333 0001:00000388  2334 0001:0000038D  2335 0001:00000393
  2336 0001:0000039A  2337 0001:000003A1

Line numbers for System(GETMEM.INC) segment .text

    47 0001:000003A8    49 0001:000003B0    53 0001:000003B8    55 0001:000003C0
    58 0001:000003C8    60 0001:000003D0    62 0001:000003D8    64 0001:000003E0
   129 0001:000003E8   130 0001:000003EF   131 0001:000003F4   132 0001:00000402
   133 0001:00000406   134 0001:00000408   136 0001:0000040B   137 0001:00000412
   138 0001:00000418   139 0001:0000041A   140 0001:00000422   141 0001:00000426
   142 0001:00000428   138 0001:00000429   144 0001:0000042E   145 0001:00000430
   147 0001:00000434   152 0001:00000438   153 0001:0000043A   154 0001:0000043D
   160 0001:00000440   161 0001:00000446   162 0001:0000044B   163 0001:0000044F
   165 0001:00000454   166 0001:00000459   168 0001:0000045F   169 0001:00000461
   170 0001:00000463   171 0001:00000466   172 0001:00000469   174 0001:0000046B
   176 0001:0000046D   183 0001:00000470   184 0001:00000473   185 0001:00000475
   186 0001:00000477   187 0001:0000047A   188 0001:00000482   189 0001:00000487
   195 0001:00000488   196 0001:00000494   197 0001:00000497   199 0001:000004A4
   200 0001:000004A6   201 0001:000004B2   202 0001:000004B9   203 0001:000004BE
   204 0001:000004C6   205 0001:000004CE   206 0001:000004D5   208 0001:000004DB
   209 0001:000004DD   210 0001:000004E1   211 0001:000004EE   212 0001:000004F2
   219 0001:000004F8   220 0001:00000501   222 0001:00000503   223 0001:0000051A
   224 0001:0000051E   225 0001:00000524   226 0001:0000052A   227 0001:00000530
   228 0001:00000539   229 0001:00000549   231 0001:0000054E   232 0001:00000556
   233 0001:00000562   234 0001:00000567   235 0001:00000574   236 0001:00000576
   239 0001:00000578   240 0001:0000057A   242 0001:0000057C   243 0001:0000057E
   244 0001:00000582   245 0001:00000584   266 0001:0000058C   267 0001:00000593
   268 0001:0000059B   270 0001:000005A2   272 0001:000005AE   273 0001:000005B1
   274 0001:000005C4   277 0001:000005C8   278 0001:000005D8   279 0001:000005E7
   282 0001:000005EB   289 0001:000005F0   290 0001:000005FA   291 0001:00000601
   292 0001:00000617   293 0001:0000061B   294 0001:00000627   295 0001:0000062A
   297 0001:0000063A   298 0001:0000063F   299 0001:0000064F   300 0001:0000065E
   303 0001:00000662   312 0001:00000668   313 0001:00000676   314 0001:0000067E
   315 0001:00000684   316 0001:00000686   317 0001:0000068F   319 0001:00000697
   320 0001:00000699   321 0001:000006AB   322 0001:000006B1   323 0001:000006B5
   324 0001:000006C0   325 0001:000006C4   326 0001:000006D5   327 0001:000006DF
   329 0001:000006E6   318 0001:000006E8   331 0001:000006F0   332 0001:000006F8
   333 0001:000006FF   334 0001:00000709   336 0001:00000718   346 0001:00000720
   347 0001:0000072E   348 0001:00000738   349 0001:0000074B   350 0001:00000751
   351 0001:0000075E   354 0001:00000766   355 0001:00000769   356 0001:0000076E
   357 0001:00000772   358 0001:00000774   359 0001:0000077A   360 0001:0000077E
   361 0001:00000782   362 0001:00000796   363 0001:0000079E   366 0001:000007A0
   352 0001:000007A2   368 0001:000007AA   377 0001:000007B4   378 0001:000007B9
   379 0001:000007CC   380 0001:000007D6   381 0001:000007DB   382 0001:000007E3
   385 0001:000007EB   386 0001:000007EE   387 0001:000007F3   388 0001:000007F8
   389 0001:000007FB   390 0001:000007FF   391 0001:00000801   392 0001:00000805
   393 0001:00000817   395 0001:00000821   383 0001:00000823   397 0001:0000082B
   416 0001:00000834   417 0001:00000844   419 0001:00000850   421 0001:00000855
   422 0001:0000085A   423 0001:00000866   425 0001:0000086B   426 0001:00000871
   427 0001:00000877   428 0001:0000087D   429 0001:00000884   431 0001:00000886
   420 0001:00000888   433 0001:0000088C   434 0001:00000895   436 0001:0000089A
   437 0001:000008AB   438 0001:000008B7   442 0001:000008BB   452 0001:000008C4
   453 0001:000008D7   456 0001:000008E3   458 0001:000008E8   457 0001:000008EA
   460 0001:000008F3   461 0001:000008F8   463 0001:00000901   464 0001:00000915
   465 0001:0000091C   468 0001:00000932   469 0001:00000943   470 0001:0000094A
   475 0001:0000094F   476 0001:0000095C   479 0001:00000963   480 0001:0000097D
   481 0001:0000098E   482 0001:00000995   486 0001:00000997   487 0001:000009A3
   488 0001:000009AF   490 0001:000009B7   491 0001:000009C0   492 0001:000009C9
   493 0001:000009CF   495 0001:000009D8   496 0001:000009DF   505 0001:000009E8
   506 0001:000009F3   507 0001:000009FF   508 0001:00000A0A   509 0001:00000A0E
   510 0001:00000A1B   511 0001:00000A2B   512 0001:00000A33   513 0001:00000A52
   514 0001:00000A59   516 0001:00000A69   517 0001:00000A6D   562 0001:00000A74
   563 0001:00000A77   564 0001:00000A85   565 0001:00000A8F   567 0001:00000AA2
   568 0001:00000AAC   569 0001:00000AB6   571 0001:00000AC0   572 0001:00000AD1
   573 0001:00000ADA   574 0001:00000ADF   573 0001:00000AEC   576 0001:00000AF3
   577 0001:00000AF8   578 0001:00000AFB   579 0001:00000AFD   581 0001:00000B02
   584 0001:00000B16   586 0001:00000B31   587 0001:00000B36   595 0001:00000B38
   596 0001:00000B3C   597 0001:00000B49   598 0001:00000B57   600 0001:00000B6A
   602 0001:00000B71   603 0001:00000B7C   605 0001:00000B83   607 0001:00000B8B
   608 0001:00000B9B   606 0001:00000B9D   611 0001:00000BA5   612 0001:00000BAF
   613 0001:00000BB9   615 0001:00000BC3   616 0001:00000BC8   617 0001:00000BCC
   618 0001:00000BD4   619 0001:00000BDA   616 0001:00000BDF   622 0001:00000BF0
   623 0001:00000C03   626 0001:00000C15   633 0001:00000C18   634 0001:00000C19
   635 0001:00000C21   636 0001:00000C2A   637 0001:00000C2D   638 0001:00000C30
   639 0001:00000C38   640 0001:00000C3C   642 0001:00000C53   643 0001:00000C67
   644 0001:00000C69   645 0001:00000C6B   648 0001:00000C70   649 0001:00000C72
   650 0001:00000C74   652 0001:00000C77   660 0001:00000C7C   662 0001:00000C84
   664 0001:00000C92   661 0001:00000C94   666 0001:00000C9C   667 0001:00000CA6
   668 0001:00000CAA   675 0001:00000CAC   676 0001:00000CAD   677 0001:00000CB2
   678 0001:00000CB5   679 0001:00000CBA   680 0001:00000CC0   681 0001:00000CC9
   682 0001:00000CCE   683 0001:00000CD8   685 0001:00000CDA   690 0001:00000CDC
   691 0001:00000CE2   692 0001:00000CF8   693 0001:00000CFD   698 0001:00000D00
   699 0001:00000D05   700 0001:00000D0A   702 0001:00000D13   703 0001:00000D18
   704 0001:00000D22   705 0001:00000D24   707 0001:00000D27   715 0001:00000D28
   716 0001:00000D2A   717 0001:00000D31   718 0001:00000D41   719 0001:00000D4B
   720 0001:00000D53   721 0001:00000D55   722 0001:00000D61   723 0001:00000D6B
   724 0001:00000D70   725 0001:00000D78   726 0001:00000D7A   727 0001:00000D7F
   728 0001:00000D89   729 0001:00000D8E   731 0001:00000D92   738 0001:00000D98
   739 0001:00000D9D   740 0001:00000D9F   741 0001:00000DA1   742 0001:00000DA8
   743 0001:00000DAD   744 0001:00000DAF   745 0001:00000DB1   747 0001:00000DB3
   748 0001:00000DB7   749 0001:00000DB9   750 0001:00000DC0   751 0001:00000DC5
   752 0001:00000DC7   754 0001:00000DCC   761 0001:00000DD0   762 0001:00000DDB
   763 0001:00000DDF   764 0001:00000DE8   765 0001:00000DF0   766 0001:00000E04
   768 0001:00000E08   769 0001:00000E11   771 0001:00000E25   773 0001:00000E36
   775 0001:00000E3E   776 0001:00000E49   777 0001:00000E59   778 0001:00000E63
   779 0001:00000E6E   781 0001:00000E75   787 0001:00000E80   788 0001:00000E87
   789 0001:00000E89   790 0001:00000E8C   791 0001:00000E96   792 0001:00000E9E
   793 0001:00000EB3   794 0001:00000EB7   795 0001:00000EC0   796 0001:00000EC3
   798 0001:00000EC7   799 0001:00000EC9   800 0001:00000ECC   801 0001:00000ECE
   802 0001:00000ED0   804 0001:00000ED5   805 0001:00000EEA   806 0001:00000EEF
   807 0001:00000EF5   808 0001:00000EF7   809 0001:00000EFA   810 0001:00000EFC
   811 0001:00000EFE   813 0001:00000F01   818 0001:00000F08   819 0001:00000F11
   820 0001:00000F1A   822 0001:00000F26   823 0001:00000F36   824 0001:00000F43
   825 0001:00000F4A   828 0001:00000F51   835 0001:00000F54   836 0001:00000F63
   837 0001:00000F68   838 0001:00000F78   839 0001:00000F80   840 0001:00000F82
   843 0001:00000F84   844 0001:00000F8A   845 0001:00000F8F   846 0001:00000F91
   849 0001:00000F94   850 0001:00000FA3   851 0001:00000FA8   854 0001:00000FAB
   855 0001:00000FB4   856 0001:00000FC1   859 0001:00000FC5   860 0001:00000FCC
   862 0001:00000FD4   863 0001:00000FD6   869 0001:00000FE0   870 0001:00000FE6
   871 0001:00000FF0   872 0001:00001007   878 0001:0000100C   879 0001:00001015
   880 0001:00001021   881 0001:00001038   888 0001:00001040   889 0001:00001042
   890 0001:00001053   891 0001:0000105D   893 0001:00001061   889 0001:00001062
   894 0001:0000106B   900 0001:0000106C   904 0001:0000107C   905 0001:00001082
   908 0001:0000108B   909 0001:0000108D   913 0001:00001094   915 0001:00001097
   916 0001:0000109A   917 0001:0000109F   918 0001:000010A4   919 0001:000010A8
   920 0001:000010AA   923 0001:000010AC   924 0001:000010B4   925 0001:000010BD
   929 0001:000010C1   930 0001:000010CC   931 0001:000010CE   934 0001:000010D3
   935 0001:000010D8   936 0001:000010DB   937 0001:000010E1   938 0001:000010E4
   940 0001:000010E9   941 0001:000010EE   942 0001:000010F4   943 0001:000010FB
   944 0001:000010FE   945 0001:00001104   946 0001:0000110D   951 0001:0000110F
   953 0001:00001116   954 0001:0000111D   955 0001:00001122   957 0001:0000112E
   958 0001:00001130   959 0001:00001134   960 0001:00001139   961 0001:0000113D
   964 0001:00001140   965 0001:00001142   967 0001:00001149   968 0001:0000114C
   969 0001:00001152   971 0001:0000115B   979 0001:00001160   981 0001:0000116B
   984 0001:00001185   985 0001:0000118A   989 0001:0000118F   990 0001:0000119D
   992 0001:000011B0   993 0001:000011B3   994 0001:000011B6   995 0001:000011BB
   997 0001:000011C0   998 0001:000011CC   999 0001:000011E2  1000 0001:000011E6
  1001 0001:000011EC  1002 0001:000011EF  1003 0001:000011F2  1004 0001:000011F6
  1006 0001:00001210  1007 0001:00001226  1008 0001:0000122B  1009 0001:00001231
  1011 0001:00001236  1012 0001:00001238  1013 0001:00001240  1014 0001:00001246
  1015 0001:0000124C  1016 0001:00001255  1020 0001:0000125F  1021 0001:00001267
  1022 0001:0000126D  1023 0001:00001276  1024 0001:0000127C  1026 0001:00001283
  1027 0001:00001288  1028 0001:0000128E  1029 0001:00001295  1030 0001:0000129B
  1031 0001:000012A1  1032 0001:000012AA  1035 0001:000012B1  1038 0001:000012C8
  1041 0001:000012E6  1052 0001:000012F0  1053 0001:000012F9  1055 0001:00001300
  1056 0001:00001312  1057 0001:0000131C  1058 0001:00001323  1061 0001:00001328
  1062 0001:00001336  1064 0001:00001349  1065 0001:0000134B  1066 0001:0000134E
  1070 0001:00001350  1071 0001:00001355  1072 0001:0000135F  1077 0001:00001364
  1078 0001:0000136A  1080 0001:0000137A  1082 0001:0000137F  1083 0001:00001387
  1084 0001:00001394  1085 0001:0000139E  1088 0001:000013A3  1089 0001:000013A7
  1090 0001:000013AC  1091 0001:000013B6  1094 0001:000013BB  1095 0001:000013BD
  1096 0001:000013BF  1099 0001:000013C4  1102 0001:000013CA  1105 0001:000013CE
  1107 0001:000013D8  1108 0001:000013DE  1109 0001:000013E4  1110 0001:000013F0
  1111 0001:000013F5  1112 0001:000013FA  1115 0001:00001404  1117 0001:0000140B
  1118 0001:00001416  1119 0001:00001420  1121 0001:00001422  1124 0001:00001427
  1125 0001:00001429  1126 0001:0000143A  1127 0001:00001444  1129 0001:00001446
  1130 0001:00001449  1131 0001:0000144B  1135 0001:00001450  1137 0001:00001459
  1139 0001:0000146E  1141 0001:0000148C  1146 0001:00001494  1147 0001:0000149D
  1148 0001:000014A0  1149 0001:000014A3  1150 0001:000014A8  1151 0001:000014AD
  1152 0001:000014B2  1153 0001:000014BB  1154 0001:000014C1  1156 0001:000014C5
  1157 0001:000014C7  1159 0001:000014CC  1160 0001:000014D4  1161 0001:000014DB
  1162 0001:000014E3  1163 0001:000014EC  1164 0001:000014F5  1165 0001:00001502
  1166 0001:0000150B  1167 0001:00001514  1170 0001:0000151B  1171 0001:0000151D
  1172 0001:00001522  1173 0001:00001524  1174 0001:0000152A  1176 0001:0000152F
  1177 0001:00001535  1178 0001:00001539  1179 0001:00001541  1181 0001:00001550
  1185 0001:00001557  1186 0001:0000155F  1187 0001:00001567  1188 0001:00001572
  1189 0001:0000157C  1190 0001:00001586  1191 0001:0000158F  1192 0001:0000159A
  1193 0001:000015A0  1195 0001:000015A7  1196 0001:000015B1  1197 0001:000015BE
  1198 0001:000015C0  1200 0001:000015C5  1201 0001:000015CA  1205 0001:000015CE
  1206 0001:000015D3  1207 0001:000015D7  1208 0001:000015DD  1209 0001:000015E6
  1210 0001:000015EB  1212 0001:000015F4  1213 0001:000015F9  1214 0001:00001600
  1215 0001:00001606  1217 0001:00001614  1218 0001:00001617  1219 0001:0000161B
  1221 0001:0000161E  1225 0001:00001620  1226 0001:00001629  1227 0001:00001632
  1228 0001:00001641  1229 0001:00001645  1233 0001:0000164A  1234 0001:0000164C
  1240 0001:0000164E  1241 0001:00001658  1242 0001:00001665  1244 0001:00001667
  1251 0001:00001670  1253 0001:0000167B  1254 0001:0000168D  1255 0001:00001692
  1258 0001:00001697  1259 0001:000016A5  1261 0001:000016B8  1262 0001:000016C5
  1264 0001:000016CA  1265 0001:000016D3  1266 0001:000016E2  1267 0001:000016E6
  1268 0001:000016E8  1269 0001:000016EC  1270 0001:000016F6  1272 0001:000016FD
  1275 0001:0000170D  1278 0001:0000172B

Line numbers for System(system.pas) segment .text

  2437 0001:00001734  2438 0001:00001735  2447 0001:00001739  2448 0001:00001741
  2449 0001:00001745  2453 0001:0000174E  2454 0001:00001752  2464 0001:00001754
  2465 0001:00001755  2474 0001:00001759  2476 0001:00001761  2477 0001:00001765
  2480 0001:0000176E  2481 0001:00001772  2526 0001:00001774  2527 0001:00001776
  2528 0001:00001778  2529 0001:0000177A  2530 0001:0000177C  2532 0001:0000177E
  2533 0001:0000177F  2534 0001:00001781  2535 0001:00001787  2536 0001:00001788
  2537 0001:0000178A  2538 0001:0000178C  2539 0001:0000178E  2541 0001:0000178F
  2542 0001:00001791  2544 0001:00001796  2545 0001:00001798  2546 0001:0000179A
  2547 0001:000017A0  2548 0001:000017A2  2549 0001:000017A4  2551 0001:000017A5
  2552 0001:000017A7  2554 0001:000017AC  2555 0001:000017AE  2556 0001:000017B0
  2557 0001:000017B1  2558 0001:000017B3  2559 0001:000017B9  2560 0001:000017BA
  2561 0001:000017BC  2562 0001:000017BE  2564 0001:000017C0  2913 0001:000017C4
  2914 0001:000017D2  2916 0001:000017E1  2917 0001:000017E3  2923 0001:000017E4
  2924 0001:000017F2  2926 0001:00001801  2927 0001:00001803  2931 0001:00001804
  2932 0001:00001806  2934 0001:00001814  2935 0001:00001822  2938 0001:0000182E
  2939 0001:00001832  2977 0001:00001838  2978 0001:0000183E  2979 0001:00001843
  3021 0001:00001844  3022 0001:0000184A  3023 0001:0000184D  3024 0001:00001856
  3025 0001:00001860  3026 0001:00001864  3027 0001:00001871  3028 0001:00001876
  3029 0001:00001880  3030 0001:0000188B  3034 0001:00001890  3035 0001:00001893
  3036 0001:00001896  3037 0001:0000189B  3041 0001:0000189C  3042 0001:0000189D
  3043 0001:0000189E  3044 0001:0000189F  3045 0001:000018A4  3046 0001:000018AB
  3047 0001:000018AC  3048 0001:000018AD  3049 0001:000018AE  3050 0001:000018B0
  3052 0001:000018B1  3053 0001:000018B3  3054 0001:000018B8  3057 0001:000018BC
  3058 0001:000018BF  3059 0001:000018CA  3089 0001:000018CC  3090 0001:000018CD
  3092 0001:000018CE  3093 0001:000018D0  3095 0001:000018D4  3096 0001:000018D6
  3097 0001:000018D8  3101 0001:000018DA  3102 0001:000018DC  3103 0001:000018DE
  3104 0001:000018E0  3109 0001:000018E2  3110 0001:000018E4  3111 0001:000018E5
  3112 0001:000018E7  3113 0001:000018E9  3114 0001:000018EB  3117 0001:000018ED
  3119 0001:000018EF  3120 0001:000018F1  3121 0001:000018F2  3122 0001:000018F4
  3125 0001:000018F6  3126 0001:000018FB  3131 0001:000018FD  3132 0001:000018FF
  3134 0001:00001901  3135 0001:00001903  3137 0001:00001905  3139 0001:00001907
  3140 0001:00001908  3141 0001:00001909  3142 0001:0000190C  3309 0001:00001910
  3310 0001:00001911  3311 0001:0000191C  3312 0001:0000192B  3352 0001:00001930
  3353 0001:00001931  3355 0001:00001932  3356 0001:00001934  3358 0001:00001936
  3360 0001:00001938  3361 0001:0000193A  3362 0001:0000193C  3364 0001:0000193E
  3365 0001:00001941  3367 0001:00001943  3369 0001:00001945  3370 0001:00001947
  3371 0001:0000194A  3372 0001:0000194C  3375 0001:0000194F  3376 0001:00001953
  3378 0001:00001957  3379 0001:0000195A  3380 0001:0000195C  3381 0001:0000195D
  3383 0001:0000195F  3384 0001:00001961  3385 0001:00001964  3386 0001:00001967
  3387 0001:0000196A  3388 0001:0000196C  3390 0001:0000196D  3391 0001:0000196E
  3392 0001:0000196F  3400 0001:00001970  3404 0001:0000197A  3403 0001:00001982
  3405 0001:0000198C  3401 0001:0000199A  3407 0001:0000199C  3408 0001:0000199E
  3411 0001:000019A2  3413 0001:000019A6  3416 0001:000019B0  3417 0001:000019B6
  3418 0001:000019BC  3414 0001:000019BE  3420 0001:000019C8  3421 0001:000019CD
  3425 0001:000019D7  3426 0001:000019DD  3427 0001:000019E3  3409 0001:000019E5
  3431 0001:000019EB  3433 0001:000019F4  3434 0001:000019F6  3435 0001:000019F8
  3438 0001:000019FC  3440 0001:00001A00  3443 0001:00001A0A  3444 0001:00001A10
  3446 0001:00001A14  3447 0001:00001A19  3448 0001:00001A1A  3444 0001:00001A1B
  3441 0001:00001A1F  3451 0001:00001A29  3455 0001:00001A38  3456 0001:00001A3E
  3458 0001:00001A42  3459 0001:00001A47  3460 0001:00001A48  3456 0001:00001A49
  3436 0001:00001A4D  3465 0001:00001A53  3466 0001:00001A55  3500 0001:00001A5C
  3501 0001:00001A69  3502 0001:00001A70  3503 0001:00001A74  3506 0001:00001A92
  3509 0001:00001A99  3510 0001:00001AA4  3511 0001:00001AAD  3507 0001:00001AAE
  3522 0001:00001AB0  3610 0001:00001ABC  3611 0001:00001ABF  3612 0001:00001AC9
  3614 0001:00001AD4  3615 0001:00001ADE  3684 0001:00001AE4  3685 0001:00001AE6
  3686 0001:00001AE8  3687 0001:00001AE9  3688 0001:00001AEB  3690 0001:00001AEC
  3691 0001:00001AEE  3692 0001:00001AF0  3698 0001:00001AF4  3699 0001:00001AF6
  3700 0001:00001AF8  3701 0001:00001AFA  3702 0001:00001AFC  3703 0001:00001AFE
  3704 0001:00001B00  3705 0001:00001B02  3706 0001:00001B04  3707 0001:00001B06
  3708 0001:00001B08  3709 0001:00001B0A  3727 0001:00001B0C  3728 0001:00001B0E
  3729 0001:00001B10  3730 0001:00001B11  3731 0001:00001B13  3733 0001:00001B14
  3734 0001:00001B16  3735 0001:00001B18  3739 0001:00001B1C  3740 0001:00001B1E
  3741 0001:00001B21  3742 0001:00001B24  3743 0001:00001B28  3744 0001:00001B29
  3745 0001:00001B30  3746 0001:00001B34  3747 0001:00001B36  3748 0001:00001B37
  3749 0001:00001B3A  3750 0001:00001B3D  3751 0001:00001B3F  3758 0001:00001B40
  3759 0001:00001B43  3760 0001:00001B46  3761 0001:00001B47  3762 0001:00001B48
  3763 0001:00001B49  3770 0001:00001B4C  3771 0001:00001B4F  3772 0001:00001B52
  3773 0001:00001B56  3774 0001:00001B57  3775 0001:00001B5E  3776 0001:00001B62
  3777 0001:00001B66  3778 0001:00001B67  3779 0001:00001B6A  3780 0001:00001B6B
  3781 0001:00001B6C  3782 0001:00001B6D  3793 0001:00001B70  3794 0001:00001B77
  3795 0001:00001B79  3798 0001:00001B7F  3799 0001:00001B84  3800 0001:00001B89
  3806 0001:00001B8C  3807 0001:00001B92  3808 0001:00001BA2  3811 0001:00001BA9
  3812 0001:00001BB6  3813 0001:00001BBA  3814 0001:00001BC6  3815 0001:00001BCD
  3817 0001:00001BD4  3818 0001:00001BE1  3822 0001:00001BE4  3823 0001:00001BED
  3827 0001:00001BF0  3828 0001:00001BF9  3838 0001:00001BFC  3839 0001:00001BFF
  3840 0001:00001C04  3852 0001:00001C09  3854 0001:00001C23  3855 0001:00001C28
  3856 0001:00001C2D  3859 0001:00001C31  3861 0001:00001C33  3865 0001:00001C38
  3866 0001:00001C3A  3873 0001:00001C3C  3874 0001:00001C41  3875 0001:00001C48
  3882 0001:00001C4C  3884 0001:00001C64  3886 0001:00001C6B  3887 0001:00001C6D
  3889 0001:00001C72  3892 0001:00001C78  3897 0001:00001C7B  3899 0001:00001C85
  3902 0001:00001C88  3903 0001:00001C8B  3904 0001:00001C91  3905 0001:00001C9C
  3907 0001:00001CA3  3908 0001:00001CA5  4155 0001:00001CA8  4157 0001:00001CA9
  4159 0001:00001CAB  4160 0001:00001CAD  4161 0001:00001CB0  4162 0001:00001CB3
  4164 0001:00001CB7  4165 0001:00001CBC  4167 0001:00001CBE  4168 0001:00001CBF
  4170 0001:00001CC1  4171 0001:00001CC2  4173 0001:00001CC4  4177 0001:00001CC9
  4178 0001:00001CCE  4179 0001:00001CD3  4181 0001:00001CD8  4183 0001:00001CDF
  4187 0001:00001CE1  4188 0001:00001CE6  4189 0001:00001CEB  4190 0001:00001CF0
  4194 0001:00001CF2  4195 0001:00001CF7  4196 0001:00001CFC  4200 0001:00001D01
  4204 0001:00001D08  4205 0001:00001D0F  4206 0001:00001D16  4207 0001:00001D1A
  4211 0001:00001D20  4212 0001:00001D22  4213 0001:00001D27  4214 0001:00001D28
  4215 0001:00001D2A  4216 0001:00001D2B  4217 0001:00001D2C  4218 0001:00001D2F
  4219 0001:00001D30  4221 0001:00001D35  4222 0001:00001D38  4224 0001:00001D3E
  4225 0001:00001D40  4226 0001:00001D46  4228 0001:00001D4C  4236 0001:00001D50
  4237 0001:00001D52  4238 0001:00001D54  4240 0001:00001D59  4241 0001:00001D5A
  4242 0001:00001D60  4243 0001:00001D65  4244 0001:00001D67  4248 0001:00001D69
  4249 0001:00001D6B  4250 0001:00001D6D  4251 0001:00001D6E  4252 0001:00001D70
  4254 0001:00001D75  4255 0001:00001D76  4259 0001:00001D7C  4260 0001:00001D7E
  4261 0001:00001D80  4262 0001:00001D82  4263 0001:00001D83  4264 0001:00001D88
  4265 0001:00001D8E  4266 0001:00001D8F  4267 0001:00001D91  4268 0001:00001D96
  4269 0001:00001D97  4270 0001:00001D98  4274 0001:00001D9E  4276 0001:00001DA0
  4277 0001:00001DA2  4281 0001:00001DA4  4282 0001:00001DAC  4283 0001:00001DAE
  4284 0001:00001DAF  4290 0001:00001DB1  4291 0001:00001DB3  4292 0001:00001DB5
  4293 0001:00001DB7  4294 0001:00001DB8  4295 0001:00001DBA  4296 0001:00001DBF
  4297 0001:00001DC0  4301 0001:00001DC6  4302 0001:00001DC8  4303 0001:00001DCD
  4304 0001:00001DCE  4306 0001:00001DD0  4309 0001:00001DD2  4310 0001:00001DD8
  4311 0001:00001DDF  4312 0001:00001DE6  4313 0001:00001DE9  4314 0001:00001DEF
  4315 0001:00001DF1  4316 0001:00001DF3  4318 0001:00001DF5  4319 0001:00001DFB
  4320 0001:00001DFD  4321 0001:00001DFF  4323 0001:00001E01  4325 0001:00001E03
  4326 0001:00001E08  4327 0001:00001E0B  4328 0001:00001E0D  4331 0001:00001E0F
  4332 0001:00001E15  4333 0001:00001E17  4334 0001:00001E19  4335 0001:00001E1E
  4336 0001:00001E20  4337 0001:00001E22  4338 0001:00001E25  4339 0001:00001E27
  4341 0001:00001E2E  4343 0001:00001E30  4344 0001:00001E31  4347 0001:00001E32
  4348 0001:00001E34  4349 0001:00001E39  4350 0001:00001E3F  4351 0001:00001E44
  4354 0001:00001E46  4355 0001:00001E4C  4356 0001:00001E51  4357 0001:00001E53
  4364 0001:00001E54  4365 0001:00001E5A  4366 0001:00001E68  4367 0001:00001E71
  4368 0001:00001E77  4369 0001:00001E82  4370 0001:00001E89  4371 0001:00001E90
  4372 0001:00001EA8  4373 0001:00001EB4  4374 0001:00001EB6  4377 0001:00001EBC
  4378 0001:00001EBD  4380 0001:00001ECF  4381 0001:00001ED7  4383 0001:00001EDB
  4384 0001:00001EE9  4386 0001:00001EED  4388 0001:00001EF2  4389 0001:00001EFF
  4393 0001:00001F04  4394 0001:00001F0C  4398 0001:00001F10  4399 0001:00001F18
  4471 0001:00001F1C  4472 0001:00001F20  4473 0001:00001F22  4475 0001:00001F32
  4476 0001:00001F3C  4477 0001:00001F43  4478 0001:00001F47  4479 0001:00001F4E
  4480 0001:00001F52  4483 0001:00001F5B  4484 0001:00001F63  4485 0001:00001F6F
  4545 0001:00001F74  4546 0001:00001F75  4550 0001:00001F76  4551 0001:00001F78
  4552 0001:00001F7A  4556 0001:00001F7C  4557 0001:00001F7E  4558 0001:00001F80
  4559 0001:00001F82  4563 0001:00001F83  4564 0001:00001F85  4565 0001:00001F87
  4566 0001:00001F89  4569 0001:00001F8B  4570 0001:00001F8D  4571 0001:00001F8F
  4575 0001:00001F91  4576 0001:00001F92  4580 0001:00001F94  4583 0001:00001F96
  4584 0001:00001F97  4585 0001:00001F98  4590 0001:00001F99  4591 0001:00001F9B
  4592 0001:00001F9D  4593 0001:00001F9F  4594 0001:00001FA1  4595 0001:00001FA3
  4599 0001:00001FA4  4600 0001:00001FAF  4603 0001:00001FB0  4604 0001:00001FB1
  4605 0001:00001FB7  4606 0001:00001FB9  4607 0001:00001FBB  4608 0001:00001FC9
  4703 0001:00001FCC  4704 0001:00001FCD  4705 0001:00001FCE  4706 0001:00001FCF
  4707 0001:00001FD1  4708 0001:00001FD4  4711 0001:00001FD6  4712 0001:00001FD8
  4713 0001:00001FDA  4714 0001:00001FDC  4715 0001:00001FDE  4716 0001:00001FDF
  4717 0001:00001FE1  4718 0001:00001FE4  4719 0001:00001FE7  4720 0001:00001FE9
  4721 0001:00001FEB  4722 0001:00001FEE  4723 0001:00001FF1  4724 0001:00001FF2
  4725 0001:00001FF4  4727 0001:00001FF6  4728 0001:00001FF9  4730 0001:00001FFC
  4731 0001:00001FFD  4732 0001:00002000  4734 0001:00002002  4735 0001:00002004
  4736 0001:00002006  4737 0001:00002008  4738 0001:00002009  4739 0001:0000200B
  4740 0001:0000200E  4741 0001:00002011  4742 0001:00002013  4743 0001:00002014
  4744 0001:00002016  4745 0001:00002019  4746 0001:0000201C  4749 0001:0000201E
  4750 0001:00002020  4753 0001:00002023  4754 0001:00002024  4755 0001:00002026
  4756 0001:00002028  4757 0001:0000202A  4758 0001:0000202C  4759 0001:0000202F
  4760 0001:00002032  4761 0001:00002034  4762 0001:00002036  4765 0001:00002038
  4766 0001:00002039  4767 0001:0000203A  4778 0001:0000203C  4779 0001:00002042
  4780 0001:00002044  4781 0001:00002047  4782 0001:0000204A  4783 0001:0000204C
  4784 0001:0000204F  4785 0001:00002055  4786 0001:00002057  4787 0001:00002059
  4788 0001:0000205C  4791 0001:0000205E  4792 0001:00002060  4795 0001:00002061
  4796 0001:00002062  4797 0001:00002067  4798 0001:00002068  4799 0001:0000206B
  4800 0001:0000206D  4802 0001:00002070  4804 0001:00002072  5073 0001:00002074
  5075 0001:00002075  5077 0001:00002077  5078 0001:00002079  5079 0001:0000207B
  5080 0001:0000207E  5082 0001:00002081  5083 0001:00002083  5084 0001:00002086
  5086 0001:00002088  5088 0001:0000208A  5089 0001:0000208C  5090 0001:0000208F
  5093 0001:00002091  5094 0001:00002092  5106 0001:00002094  5117 0001:00002095
  5118 0001:00002097  5119 0001:000020A1  5120 0001:000020A2  5122 0001:000020A8
  5123 0001:000020AA  5124 0001:000020AC  5125 0001:000020AD  5230 0001:000020B0
  5231 0001:000020B3  5233 0001:000020BB  5234 0001:000020C6  5237 0001:000020CD
  5238 0001:000020D8  5239 0001:000020DC  5240 0001:000020E8  5250 0001:000020EC
  5251 0001:000020F2  5252 0001:000020F4  5253 0001:000020F5  5254 0001:000020FA
  5255 0001:000020FC  5256 0001:000020FD  5259 0001:000020FF  5260 0001:00002102
  5261 0001:00002105  5263 0001:00002107  5264 0001:0000210D  5265 0001:00002110
  5266 0001:00002113  5267 0001:00002115  5268 0001:00002118  5270 0001:0000211A
  5271 0001:0000211B  5272 0001:0000211E  5273 0001:00002120  5276 0001:00002123
  5277 0001:00002124  5278 0001:00002127  5279 0001:00002129  5280 0001:0000212B
  5281 0001:0000212C  5282 0001:0000212F  5283 0001:00002132  5288 0001:00002134
  5289 0001:0000213A  5292 0001:0000213C  5293 0001:0000213F  5294 0001:00002143
  5295 0001:00002146  5298 0001:00002148  5299 0001:0000214D  5301 0001:0000214E
  5302 0001:00002150  5304 0001:00002152  5305 0001:00002154  5368 0001:00002158
  5369 0001:00002159  5370 0001:0000215A  5371 0001:0000215B  5372 0001:0000215C
  5373 0001:0000215E  5375 0001:00002160  5376 0001:00002166  5377 0001:00002168
  5378 0001:00002169  5379 0001:0000216E  5380 0001:00002170  5381 0001:00002171
  5384 0001:00002173  5386 0001:00002175  5387 0001:00002177  5389 0001:00002179
  5390 0001:0000217C  5391 0001:0000217F  5392 0001:00002181  5395 0001:00002184
  5396 0001:00002185  5397 0001:00002187  5398 0001:00002189  5400 0001:0000218A
  5401 0001:0000218C  5403 0001:0000218E  5404 0001:00002190  5406 0001:00002192
  5407 0001:00002194  5410 0001:00002196  5411 0001:00002197  5412 0001:00002198
  5413 0001:0000219A  5416 0001:0000219C  5417 0001:000021A2  5418 0001:000021A4
  5421 0001:000021A6  5422 0001:000021A8  5423 0001:000021AA  5425 0001:000021AC
  5427 0001:000021AD  5428 0001:000021B0  5429 0001:000021B3  5432 0001:000021B5
  5433 0001:000021B8  5434 0001:000021BA  5435 0001:000021BF  5436 0001:000021C2
  5437 0001:000021C5  5438 0001:000021C7  5439 0001:000021CA  5440 0001:000021CC
  5443 0001:000021CE  5444 0001:000021D0  5445 0001:000021D1  5446 0001:000021D3
  5447 0001:000021D4  5448 0001:000021D5  5449 0001:000021D6  5457 0001:000021D8
  5458 0001:000021D9  5459 0001:000021DA  5460 0001:000021DF  5461 0001:000021E0
  5462 0001:000021E2  5481 0001:000021E4  5482 0001:000021E5  5483 0001:000021E6
  5484 0001:000021E8  5486 0001:000021EA  5487 0001:000021EC  5489 0001:000021F1
  5491 0001:000021F7  5492 0001:000021F9  5493 0001:000021FB  5494 0001:00002200
  5496 0001:00002205  5497 0001:00002207  5498 0001:00002209  5500 0001:0000220E
  5501 0001:00002212  5504 0001:00002214  5505 0001:00002216  5506 0001:00002218
  5507 0001:0000221D  5509 0001:00002222  5510 0001:00002224  5511 0001:00002226
  5512 0001:00002228  5514 0001:0000222D  5515 0001:0000222F  5516 0001:00002232
  5518 0001:00002237  5519 0001:00002239  5520 0001:0000223E  5522 0001:0000223F
  5523 0001:00002243  5526 0001:00002245  5527 0001:0000224B  5528 0001:0000224C
  5529 0001:0000224D  5667 0001:00002250  5668 0001:00002251  5670 0001:00002253
  5671 0001:00002255  5673 0001:0000225A  5674 0001:0000225C  5675 0001:0000225E
  5676 0001:00002261  5677 0001:00002263  5678 0001:00002265  5680 0001:00002267
  5681 0001:00002269  5683 0001:0000226E  5684 0001:00002270  5685 0001:00002272
  5686 0001:00002275  5687 0001:00002277  5688 0001:0000227A  5692 0001:0000227C
  5693 0001:0000227D  6266 0001:00002280  6267 0001:00002281  6268 0001:00002282
  6270 0001:00002283  6271 0001:00002285  6273 0001:00002286  6274 0001:00002288
  6276 0001:0000228A  6277 0001:0000228C  6278 0001:0000228E  6281 0001:00002293
  6282 0001:00002295  6283 0001:00002296  6284 0001:00002299  6287 0001:0000229B
  6288 0001:0000229D  6289 0001:000022A0  6290 0001:000022A2  6291 0001:000022A5
  6294 0001:000022A7  6295 0001:000022AA  6297 0001:000022AC  6298 0001:000022AF
  6299 0001:000022B1  6300 0001:000022B4  6301 0001:000022B6  6302 0001:000022B9
  6303 0001:000022BB  6304 0001:000022BD  6305 0001:000022BE  6306 0001:000022C1
  6307 0001:000022C3  6308 0001:000022C6  6309 0001:000022C8  6310 0001:000022CA
  6311 0001:000022CC  6314 0001:000022CE  6315 0001:000022D0  6318 0001:000022D2
  6319 0001:000022D5  6320 0001:000022D8  6321 0001:000022DA  6322 0001:000022DC
  6323 0001:000022DE  6324 0001:000022E1  6325 0001:000022E3  6327 0001:000022E5
  6328 0001:000022E7  6330 0001:000022E8  6331 0001:000022EA  6334 0001:000022EC
  6335 0001:000022EE  6336 0001:000022F0  6337 0001:000022F2  6338 0001:000022F4
  6341 0001:000022F6  6342 0001:000022F7  6345 0001:000022F9  6346 0001:000022FB
  6347 0001:000022FD  6351 0001:000022FF  6352 0001:00002300  6353 0001:00002302
  6356 0001:00002304  6358 0001:00002306  6359 0001:00002308  6360 0001:00002309
  6363 0001:0000230B  6365 0001:00002310  6366 0001:00002312  6367 0001:00002313
  6368 0001:00002315  6371 0001:00002317  6372 0001:0000231A  6373 0001:0000231C
  6375 0001:0000231F  6376 0001:00002322  6377 0001:00002325  6378 0001:00002327
  6379 0001:0000232A  6380 0001:0000232D  6381 0001:0000232F  6383 0001:00002332
  6384 0001:00002334  6385 0001:00002336  6386 0001:00002339  6388 0001:0000233B
  6389 0001:0000233D  6391 0001:0000233E  6392 0001:00002340  6394 0001:00002342
  6395 0001:00002344  6396 0001:00002346  6399 0001:00002348  6400 0001:00002349
  6403 0001:0000234B  6404 0001:0000234D  6405 0001:0000234E  6406 0001:0000234F
  6407 0001:00002350  6472 0001:00002354  6473 0001:00002357  6475 0001:00002367
  6476 0001:00002372  6479 0001:00002379  6480 0001:00002384  6481 0001:00002388
  6482 0001:00002394  6520 0001:00002398  6521 0001:00002399  6523 0001:0000239A
  6525 0001:0000239C  6526 0001:000023A2  6527 0001:000023A4  6528 0001:000023A5
  6529 0001:000023A6  6530 0001:000023A7  6531 0001:000023AC  6532 0001:000023AE
  6533 0001:000023AF  6534 0001:000023B0  6535 0001:000023B1  6538 0001:000023B3
  6539 0001:000023B6  6543 0001:000023B9  6544 0001:000023BC  6548 0001:000023BF
  6549 0001:000023C1  6553 0001:000023C3  6554 0001:000023C6  6558 0001:000023C8
  6559 0001:000023C9  6560 0001:000023CA  6561 0001:000023CC  6563 0001:000023CE
  6564 0001:000023D1  6565 0001:000023D3  6567 0001:000023D5  6568 0001:000023D6
  6569 0001:000023D7  6572 0001:000023D9  6573 0001:000023DE  6574 0001:000023DF
  6575 0001:000023E0  6577 0001:000023E3  6578 0001:000023E6  6581 0001:000023E8
  6582 0001:000023E9  6583 0001:000023EA  6608 0001:000023EC  6613 0001:000023EE
  6616 0001:000023F3  6617 0001:000023F6  6619 0001:000023F8  6620 0001:000023FB
  6621 0001:000023FC  6622 0001:000023FD  6623 0001:00002402  6624 0001:00002407
  6625 0001:0000240C  6626 0001:00002413  6627 0001:00002415  6628 0001:00002416
  6629 0001:00002417  6632 0001:00002419  6633 0001:0000241A  6634 0001:0000241B
  6637 0001:0000241C  6639 0001:0000245C  6640 0001:0000245E  6642 0001:00002464
  6834 0001:00002468  6835 0001:0000246D  6837 0001:00002473  6838 0001:00002477
  6839 0001:0000247C  6843 0001:0000248E  6844 0001:00002492  6846 0001:000024A2
  6847 0001:000024AB  6875 0001:000024B0  6876 0001:000024B1  6878 0001:000024B2
  6879 0001:000024B8  6880 0001:000024BA  6882 0001:000024BF  6883 0001:000024C1
  6884 0001:000024C2  6885 0001:000024C4  6886 0001:000024C6  6887 0001:000024C7
  6888 0001:000024C9  6889 0001:000024CA  6892 0001:000024CC  6893 0001:000024CD
  6894 0001:000024CF  6895 0001:000024D1  6896 0001:000024D2  7025 0001:000024D4
  7026 0001:000024D5  7028 0001:000024D6  7029 0001:000024D8  7031 0001:000024DA
  7032 0001:000024E0  7034 0001:000024E2  7035 0001:000024E3  7036 0001:000024E4
  7103 0001:000024E8  7104 0001:000024EA  7105 0001:000024EB  7106 0001:000024ED
  7107 0001:000024EE  7108 0001:000024F0  7109 0001:000024F2  7844 0001:000024F4
  7845 0001:000024F9  7858 0001:000024FC  7865 0001:000024FD  7867 0001:000024FF
  7868 0001:00002501  7869 0001:00002503  7870 0001:00002509  7871 0001:0000250E
  7872 0001:00002514  7873 0001:00002516  7874 0001:00002519  7875 0001:0000251C
  7877 0001:00002523  7879 0001:00002525  7880 0001:00002528  7882 0001:0000252A
  7883 0001:0000252C  7884 0001:0000252F  7885 0001:00002531  7886 0001:00002534
  7887 0001:0000253B  7891 0001:0000253D  7892 0001:00002540  7893 0001:00002542
  7894 0001:00002545  7895 0001:0000254C  7896 0001:0000254E  7899 0001:00002550
  7900 0001:00002552  7901 0001:00002557  7902 0001:00002559  7903 0001:0000255B
  7904 0001:0000255E  7905 0001:00002561  7906 0001:00002568  7908 0001:0000256A
  7909 0001:0000256D  7911 0001:0000256F  7912 0001:00002571  7913 0001:00002574
  7914 0001:00002576  7915 0001:00002579  7916 0001:00002580  7920 0001:00002582
  7921 0001:00002585  7922 0001:00002587  7923 0001:0000258A  7924 0001:00002591
  7926 0001:00002593  7929 0001:00002595  7930 0001:00002597  7931 0001:0000259D
  7934 0001:0000259F  7935 0001:000025A1  7938 0001:000025A3  7939 0001:000025A4
  7941 0001:000025A5  7942 0001:000025AF  7943 0001:000025B9  7944 0001:000025C3
  7945 0001:000025CD  7946 0001:000025D7  7947 0001:000025E1  7948 0001:000025EB
  7949 0001:000025F5  7950 0001:000025FF  7951 0001:00002609  7952 0001:00002613
  7953 0001:0000261D  7954 0001:00002627  7955 0001:00002631  7956 0001:0000263B
  7957 0001:00002645  7958 0001:0000264F  7959 0001:00002659  7960 0001:00002663
  7961 0001:0000266D  7962 0001:00002677  7963 0001:00002681  7964 0001:0000268B
  7965 0001:00002695  7966 0001:0000269F  7967 0001:000026A9  7968 0001:000026B3
  7969 0001:000026BD  7970 0001:000026C7  7971 0001:000026D1  7972 0001:000026DB
  7973 0001:000026E5  7975 0001:000026EF  7976 0001:000026F9  7977 0001:00002703
  7978 0001:0000270D  7979 0001:00002717  7980 0001:00002721  7981 0001:0000272B
  7982 0001:00002735  7983 0001:0000273F  7984 0001:00002749  7985 0001:00002753
  7986 0001:0000275D  7987 0001:00002767  7988 0001:00002771  7989 0001:0000277B
  7991 0001:00002785  7992 0001:0000278F  7993 0001:00002799  7994 0001:000027A3
  7995 0001:000027AD  7996 0001:000027B7  7997 0001:000027C1  7998 0001:000027CB
  7999 0001:000027D5  8000 0001:000027DF  8217 0001:000027E0  8222 0001:000027E8
  8223 0001:000027E9  8224 0001:000027EB  8226 0001:000027F7  8227 0001:00002803
  8228 0001:00002811  8230 0001:00002815  8245 0001:00002818  8246 0001:0000281E
  8248 0001:00002828  8249 0001:00002843  8250 0001:00002851  8251 0001:00002858
  8253 0001:0000287F  8255 0001:00002890  8256 0001:000028AB  8261 0001:000028DC
  8262 0001:000028DE  8268 0001:000028DF  8270 0001:000028E5  8274 0001:000028E8
  8275 0001:000028EA  8276 0001:000028EF  8280 0001:000028F0  8281 0001:000028F2
  8282 0001:000028F7  8286 0001:000028F8  8287 0001:000028FE  8298 0001:00002900
  8299 0001:00002901  8300 0001:00002902  8301 0001:00002904  8302 0001:00002907
  8303 0001:00002909  8304 0001:0000290B  8305 0001:0000290C  8306 0001:0000290E
  8307 0001:0000290F  8308 0001:00002910  8325 0001:00002914  8326 0001:00002915
  8327 0001:00002917  8328 0001:00002919  8329 0001:0000291B  8330 0001:0000291E
  8331 0001:00002920  8332 0001:00002922  8333 0001:00002925  8334 0001:00002927
  8336 0001:00002928  8337 0001:0000292B  8338 0001:0000292E  8339 0001:00002931
  8340 0001:00002933  8341 0001:00002934  8342 0001:00002936  8344 0001:00002937
  8345 0001:00002939  8346 0001:0000293A  8358 0001:0000293C  8359 0001:0000293F
  8360 0001:00002941  8361 0001:00002943  8363 0001:00002945  8367 0001:00002948
  8368 0001:0000294B  8369 0001:00002960  8372 0001:00002964  8373 0001:00002967
  8374 0001:0000296E  8375 0001:00002975  8379 0001:00002978  8380 0001:0000297D
  8383 0001:00002980  8384 0001:0000299F  8387 0001:000029A0  8388 0001:000029AE
  8392 0001:000029B0  8393 0001:000029B4  8394 0001:000029BB  8422 0001:000029BC
  8423 0001:000029BD  8424 0001:000029BE  8425 0001:000029BF  8426 0001:000029C1
  8427 0001:000029C3  8428 0001:000029C4  8429 0001:000029C7  8430 0001:000029C9
  8431 0001:000029CA  8432 0001:000029CD  8433 0001:000029CE  8434 0001:000029D0
  8435 0001:000029D1  8436 0001:000029D4  8437 0001:000029D6  8438 0001:000029D8
  8439 0001:000029DA  8440 0001:000029DD  8441 0001:000029DF  8442 0001:000029E1
  8443 0001:000029E2  8444 0001:000029E5  8445 0001:000029E7  8446 0001:000029E9
  8447 0001:000029EB  8448 0001:000029ED  8449 0001:000029EF  8450 0001:000029F1
  8451 0001:000029F2  8452 0001:000029F4  8453 0001:000029F7  8454 0001:000029FA
  8455 0001:000029FC  8456 0001:000029FE  8457 0001:00002A01  8458 0001:00002A04
  8459 0001:00002A07  8460 0001:00002A08  8461 0001:00002A0A  8462 0001:00002A0C
  8463 0001:00002A0E  8464 0001:00002A0F  8465 0001:00002A10  8466 0001:00002A11
  8487 0001:00002A14  8488 0001:00002A15  8489 0001:00002A16  8490 0001:00002A18
  8492 0001:00002A1A  8493 0001:00002A1C  8494 0001:00002A1F  8495 0001:00002A22
  8496 0001:00002A24  8497 0001:00002A26  8498 0001:00002A2B  8500 0001:00002A2D
  8501 0001:00002A2F  8503 0001:00002A31  8504 0001:00002A32  8505 0001:00002A33
  8530 0001:00002A34  8531 0001:00002A36  8532 0001:00002A3C  8533 0001:00002A3E
  8534 0001:00002A44  8537 0001:00002A46  8538 0001:00002A49  8539 0001:00002A4B
  8542 0001:00002A4D  8545 0001:00002A4F  8546 0001:00002A55  8547 0001:00002A57
  8548 0001:00002A59  8549 0001:00002A5B  8550 0001:00002A60  8556 0001:00002A64
  8557 0001:00002A87  8558 0001:00002A8B  8559 0001:00002A97  8561 0001:00002A9B
  8563 0001:00002AA2  8564 0001:00002AA6  8567 0001:00002AB5  8569 0001:00002ACC
  8570 0001:00002AF1  8597 0001:00002AF8  8598 0001:00002AF9  8599 0001:00002AFA
  8600 0001:00002AFC  8601 0001:00002AFF  8602 0001:00002B01  8603 0001:00002B03
  8604 0001:00002B05  8605 0001:00002B08  8606 0001:00002B0A  8607 0001:00002B0C
  8608 0001:00002B0E  8609 0001:00002B11  8610 0001:00002B14  8611 0001:00002B16
  8612 0001:00002B19  8613 0001:00002B1C  8614 0001:00002B1E  8615 0001:00002B21
  8616 0001:00002B24  8617 0001:00002B26  8618 0001:00002B29  8619 0001:00002B2A
  8620 0001:00002B2C  8621 0001:00002B2F  8622 0001:00002B31  8623 0001:00002B33
  8624 0001:00002B35  8625 0001:00002B37  8626 0001:00002B39  8627 0001:00002B3A
  8628 0001:00002B3B  8637 0001:00002B3C  8638 0001:00002B42  8639 0001:00002B5A
  8653 0001:00002B60  8654 0001:00002B62  8655 0001:00002B64  8657 0001:00002B66
  8658 0001:00002B68  8659 0001:00002B6A  8660 0001:00002B6C  8661 0001:00002B6F
  8662 0001:00002B71  8665 0001:00002B73  8666 0001:00002B75  8669 0001:00002B7A
  8681 0001:00002B7C  8682 0001:00002B7D  8683 0001:00002B7E  8685 0001:00002B80
  8687 0001:00002B82  8688 0001:00002B85  8689 0001:00002B87  8690 0001:00002B89
  8691 0001:00002B8C  8692 0001:00002B8D  8693 0001:00002B90  8694 0001:00002B93
  8695 0001:00002B95  8697 0001:00002B96  8698 0001:00002B99  8699 0001:00002B9B
  8700 0001:00002B9D  8703 0001:00002B9F  8704 0001:00002BA0  8705 0001:00002BA2
  8706 0001:00002BA4  8709 0001:00002BA8  8710 0001:00002BA9  8714 0001:00002BAC
  8715 0001:00002BAD  8716 0001:00002BAE  8717 0001:00002BB0  8718 0001:00002BB5
  8719 0001:00002BB6  8720 0001:00002BB7  8721 0001:00002BB9  8723 0001:00002BBB
  8724 0001:00002BBC  8725 0001:00002BC1  8786 0001:00002BC4  8788 0001:00002BC6
  8790 0001:00002BC8  8791 0001:00002BCA  8792 0001:00002BCC  8793 0001:00002BCF
  8794 0001:00002BD1  8795 0001:00002BD3  8797 0001:00002BD4  8799 0001:00002BD6
  8805 0001:00002BD8  8806 0001:00002BDD  8812 0001:00002BE0  8813 0001:00002BE5
  8818 0001:00002BE8  8823 0001:00002BEC  8827 0001:00002BF0  8831 0001:00002BF4
  8832 0001:00002BF5  8833 0001:00002BF8  8834 0001:00002BFB  8835 0001:00002BFD
  8836 0001:00002C02  8837 0001:00002C04  8838 0001:00002C05  8839 0001:00002C07
  8840 0001:00002C0C  8841 0001:00002C0D  8842 0001:00002C0F  8843 0001:00002C11
  8844 0001:00002C12  8847 0001:00002C14  8848 0001:00002C15  8849 0001:00002C17
  8850 0001:00002C1A  8857 0001:00002C1C  8858 0001:00002C1D  8859 0001:00002C1E
  8860 0001:00002C1F  8861 0001:00002C21  8862 0001:00002C23  8863 0001:00002C25
  8865 0001:00002C27  8867 0001:00002C29  8868 0001:00002C2C  8869 0001:00002C2E
  8870 0001:00002C30  8871 0001:00002C33  8873 0001:00002C36  8874 0001:00002C39
  8875 0001:00002C3B  8877 0001:00002C3D  8878 0001:00002C40  8879 0001:00002C42
  8880 0001:00002C43  8882 0001:00002C45  8883 0001:00002C48  8884 0001:00002C4A
  8885 0001:00002C4C  8888 0001:00002C4E  8889 0001:00002C50  8892 0001:00002C52
  8894 0001:00002C54  8895 0001:00002C58  8896 0001:00002C5B  8897 0001:00002C5E
  8898 0001:00002C60  8899 0001:00002C61  8902 0001:00002C63  8905 0001:00002C66
  8906 0001:00002C67  8907 0001:00002C68  8908 0001:00002C69  8963 0001:00002C6C
  8964 0001:00002C6D  8965 0001:00002C6E  8966 0001:00002C6F  8967 0001:00002C71
  8968 0001:00002C73  8970 0001:00002C75  8973 0001:00002C76  8974 0001:00002C78
  8975 0001:00002C7B  8976 0001:00002C7D  8977 0001:00002C7F  8978 0001:00002C82
  8980 0001:00002C85  8981 0001:00002C88  8982 0001:00002C8A  8984 0001:00002C8C
  8985 0001:00002C90  8986 0001:00002C91  8988 0001:00002C93  8989 0001:00002C96
  8990 0001:00002C98  8991 0001:00002C9A  8992 0001:00002C9B  8995 0001:00002C9D
  8996 0001:00002C9F  8997 0001:00002CA2  9000 0001:00002CA4  9001 0001:00002CA8
  9002 0001:00002CAB  9003 0001:00002CAE  9004 0001:00002CB0  9005 0001:00002CB1
  9008 0001:00002CB3  9009 0001:00002CB5  9010 0001:00002CB6  9013 0001:00002CB8
  9014 0001:00002CB9  9015 0001:00002CBA  9016 0001:00002CBB  9022 0001:00002CBC
  9023 0001:00002CBD  9024 0001:00002CBE  9025 0001:00002CBF  9026 0001:00002CC1
  9027 0001:00002CC3  9030 0001:00002CC6  9031 0001:00002CC8  9032 0001:00002CCC
  9033 0001:00002CCF  9034 0001:00002CD1  9035 0001:00002CD4  9036 0001:00002CDB
  9037 0001:00002CDE  9039 0001:00002CE1  9040 0001:00002CE2  9041 0001:00002CE3
  9042 0001:00002CE4  9046 0001:00002CE5  9050 0001:00002CEA  9051 0001:00002CEE
  9052 0001:00002CF1  9053 0001:00002CF3  9054 0001:00002CF5  9055 0001:00002CF7
  9056 0001:00002CF9  9057 0001:00002CFA  9058 0001:00002CFD  9059 0001:00002CFE
  9062 0001:00002D03  9064 0001:00002D08  9068 0001:00002D0C  9069 0001:00002D11
  9073 0001:00002D14  9074 0001:00002D17  9075 0001:00002D1E  9076 0001:00002D20
  9091 0001:00002D24  9092 0001:00002D26  9093 0001:00002D28  9095 0001:00002D29
  9096 0001:00002D2A  9097 0001:00002D2B  9098 0001:00002D2D  9099 0001:00002D30
  9100 0001:00002D31  9101 0001:00002D32  9206 0001:00002D34  9207 0001:00002D3B
  9208 0001:00002D3D  9209 0001:00002D3F  9210 0001:00002D41  9211 0001:00002D43
  9212 0001:00002D48  9215 0001:00002D4E  9221 0001:00002D50  9222 0001:00002D57
  9223 0001:00002D59  9224 0001:00002D5A  9225 0001:00002D5B  9226 0001:00002D5C
  9227 0001:00002D5D  9228 0001:00002D5F  9229 0001:00002D61  9230 0001:00002D66
  9231 0001:00002D6C  9232 0001:00002D6F  9234 0001:00002D70  9257 0001:00002D74
  9258 0001:00002D75  9259 0001:00002D77  9260 0001:00002D79  9261 0001:00002D7E
  9262 0001:00002D84  9263 0001:00002D87  9265 0001:00002D88  9281 0001:00002D8C
  9282 0001:00002D93  9283 0001:00002D95  9284 0001:00002D96  9285 0001:00002D99
  9288 0001:00002D9E  9293 0001:00002DA0  9294 0001:00002DA7  9295 0001:00002DA9
  9296 0001:00002DAA  9297 0001:00002DAB  9299 0001:00002DB0  9303 0001:00002DB4
  9304 0001:00002DB6  9305 0001:00002DB8  9306 0001:00002DBB  9307 0001:00002DBE
  9308 0001:00002DC0  9309 0001:00002DC3  9310 0001:00002DC5  9311 0001:00002DC8
  9312 0001:00002DC9  9313 0001:00002DCA  9315 0001:00002DCC  9317 0001:00002DCF
  9319 0001:00002DD1  9336 0001:00002DD4  9337 0001:00002DDB  9338 0001:00002DDD
  9339 0001:00002DDE  9340 0001:00002DDF  9341 0001:00002DE0  9342 0001:00002DE5
  9343 0001:00002DE6  9344 0001:00002DE7  9345 0001:00002DE9  9346 0001:00002DEB
  9347 0001:00002DF0  9348 0001:00002DF6  9349 0001:00002DF7  9350 0001:00002DF8
  9351 0001:00002DF9  9354 0001:00002DFA  9362 0001:00002DFC  9363 0001:00002E03
  9364 0001:00002E05  9365 0001:00002E06  9366 0001:00002E07  9367 0001:00002E09
  9368 0001:00002E0B  9369 0001:00002E10  9370 0001:00002E16  9372 0001:00002E17
  9396 0001:00002E18  9397 0001:00002E19  9398 0001:00002E1A  9399 0001:00002E21
  9400 0001:00002E23  9401 0001:00002E24  9402 0001:00002E26  9403 0001:00002E28
  9404 0001:00002E2D  9406 0001:00002E33  9407 0001:00002E34  9409 0001:00002E35
  9496 0001:00002E38  9497 0001:00002E3C  9498 0001:00002E43  9500 0001:00002E49
  9501 0001:00002E4F  9502 0001:00002E52  9503 0001:00002E55  9504 0001:00002E57
  9505 0001:00002E58  9506 0001:00002E5D  9507 0001:00002E63  9508 0001:00002E65
  9509 0001:00002E6B  9510 0001:00002E6D  9511 0001:00002E6F  9512 0001:00002E75
  9513 0001:00002E79  9514 0001:00002E7D  9515 0001:00002E83  9516 0001:00002E85
  9518 0001:00002E8A  9519 0001:00002E91  9520 0001:00002E93  9521 0001:00002E9A
  9522 0001:00002E9C  9523 0001:00002EA0  9524 0001:00002EA1  9525 0001:00002EA2
  9526 0001:00002EA7  9527 0001:00002EAA  9528 0001:00002EAB  9529 0001:00002EB1
  9530 0001:00002EB3  9531 0001:00002EB7  9532 0001:00002EBA  9535 0001:00002EBC
  9536 0001:00002EBE  9537 0001:00002EC2  9541 0001:00002EC5  9542 0001:00002ECC
  9543 0001:00002ECE  9544 0001:00002ED5  9545 0001:00002ED7  9546 0001:00002ED8
  9547 0001:00002EDC  9548 0001:00002EDD  9549 0001:00002EDE  9550 0001:00002EDF
  9551 0001:00002EE4  9552 0001:00002EE7  9553 0001:00002EE8  9554 0001:00002EE9
  9555 0001:00002EEA  9559 0001:00002EEC  9561 0001:00002EF0  9562 0001:00002EF1
  9563 0001:00002EF3  9564 0001:00002EF4  9565 0001:00002EF5  9567 0001:00002EF6
  9568 0001:00002EF9  9569 0001:00002EFA  9570 0001:00002EFB  9571 0001:00002EFC
  9573 0001:00002EFD  9575 0001:00002F01  9576 0001:00002F03  9577 0001:00002F04
  9578 0001:00002F09  9579 0001:00002F0A  9582 0001:00002F10  9586 0001:00002F14
  9587 0001:00002F19  9588 0001:00002F1F  9590 0001:00002F25  9591 0001:00002F28
  9592 0001:00002F2B  9594 0001:00002F32  9595 0001:00002F35  9596 0001:00002F3A
  9599 0001:00002F3C  9605 0001:00002F41  9606 0001:00002F46  9607 0001:00002F4C
  9608 0001:00002F4E  9610 0001:00002F54  9611 0001:00002F57  9614 0001:00002F5C
  9616 0001:00002F61  9814 0001:00002F64  9815 0001:00002F68  9816 0001:00002F6F
  9818 0001:00002F75  9819 0001:00002F7B  9820 0001:00002F7D  9821 0001:00002F7E
  9822 0001:00002F83  9823 0001:00002F89  9824 0001:00002F8B  9825 0001:00002F91
  9826 0001:00002F93  9827 0001:00002F95  9828 0001:00002F97  9831 0001:00002F9C
  9832 0001:00002F9F  9836 0001:00002FA1  9838 0001:00002FA5  9839 0001:00002FA6
  9840 0001:00002FA7  9841 0001:00002FA8  9843 0001:00002FA9  9844 0001:00002FAC
  9845 0001:00002FAF  9846 0001:00002FB2  9849 0001:00002FB4  9850 0001:00002FB6
  9851 0001:00002FB8  9852 0001:00002FBA  9853 0001:00002FBC  9856 0001:00002FBE
  9858 0001:00002FC0  9859 0001:00002FC2  9860 0001:00002FC4  9862 0001:00002FC6
  9863 0001:00002FC9  9864 0001:00002FCC  9866 0001:00002FCE  9867 0001:00002FD1
  9869 0001:00002FD4  9870 0001:00002FD6  9871 0001:00002FD8  9872 0001:00002FDA
  9874 0001:00002FDC  9875 0001:00002FDD  9876 0001:00002FDE  9877 0001:00002FE3
  9880 0001:00002FE5  9881 0001:00002FE8  9882 0001:00002FEA  9883 0001:00002FEC
  9885 0001:00002FEE  9886 0001:00002FF1  9887 0001:00002FF2  9889 0001:00002FF4
  9890 0001:00002FF5  9891 0001:00002FF6  9892 0001:00002FF7  9893 0001:00002FF8
  9896 0001:00002FFD  9897 0001:00003001  9898 0001:00003007  9899 0001:0000300A
  9900 0001:0000300D  9901 0001:0000300F  9902 0001:00003015  9903 0001:00003019
  9905 0001:0000301E  9906 0001:00003025  9907 0001:00003027  9908 0001:0000302E
  9909 0001:00003030  9910 0001:00003034  9911 0001:00003035  9912 0001:00003036
  9913 0001:0000303B  9914 0001:0000303E  9915 0001:0000303F  9918 0001:00003045
  9919 0001:00003047  9920 0001:0000304B  9921 0001:0000304E  9925 0001:00003050
  9926 0001:00003057  9927 0001:00003059  9928 0001:00003060  9929 0001:00003062
  9930 0001:00003063  9931 0001:00003067  9932 0001:00003068  9933 0001:00003069
  9934 0001:0000306A  9935 0001:0000306F  9936 0001:00003072  9937 0001:00003073
  9938 0001:00003074  9939 0001:00003075  9943 0001:00003077  9944 0001:00003079
  9945 0001:0000307C  9946 0001:0000307D  9947 0001:0000307E  9948 0001:0000307F
  9950 0001:00003080  9951 0001:00003084  9953 0001:00003088  9955 0001:00003089
  9956 0001:0000308B  9957 0001:0000308C  9958 0001:00003091  9959 0001:00003092
  9962 0001:00003098  9964 0001:00003099  9968 0001:0000309D  9969 0001:000030A2
  9970 0001:000030A8  9972 0001:000030AE  9973 0001:000030B1  9974 0001:000030B8
  9975 0001:000030BC  9976 0001:000030C1  9979 0001:000030C4  9985 0001:000030C9
  9986 0001:000030CE  9987 0001:000030D4  9988 0001:000030D6  9990 0001:000030DC
  9991 0001:000030DF  9993 0001:000030E4  9994 0001:000030E9 10058 0001:000030EC
 10059 0001:000030F0 10060 0001:000030F4 10061 0001:000030FB 10062 0001:000030FD
 10063 0001:00003100 10065 0001:00003107 10066 0001:00003108 10067 0001:00003109
 10068 0001:0000310A 10070 0001:0000310B 10071 0001:0000310E 10072 0001:00003111
 10073 0001:00003116 10075 0001:00003118 10076 0001:00003119 10077 0001:0000311A
 10078 0001:0000311B 10081 0001:0000311C 10083 0001:00003121 10270 0001:00003124
 10271 0001:00003126 10272 0001:00003128 10273 0001:0000312D 10275 0001:00003132
 10277 0001:00003133 10278 0001:00003134 10279 0001:00003135 10280 0001:00003136
 10281 0001:00003137 10282 0001:00003138 10283 0001:00003139 10285 0001:0000313A
 10286 0001:0000313B 10287 0001:0000313D 10288 0001:0000313F 10289 0001:00003144
 10290 0001:00003145 10292 0001:0000314B 10354 0001:0000314C 10355 0001:00003150
 10359 0001:00003157 10360 0001:0000315C 10361 0001:00003162 10362 0001:00003164
 10366 0001:0000316A 10367 0001:0000316D 10368 0001:00003171 10369 0001:00003177
 10370 0001:00003179 10371 0001:0000317C 10372 0001:00003181 10376 0001:00003186
 10377 0001:00003188 10378 0001:0000318B 10379 0001:0000318E 10380 0001:0000318F
 10381 0001:00003191 10383 0001:00003193 10384 0001:00003194 10385 0001:00003195
 10386 0001:00003196 10388 0001:00003197 10390 0001:0000319C 10474 0001:000031A0
 10475 0001:000031A5 10476 0001:000031AB 10477 0001:000031AD 10481 0001:000031B3
 10482 0001:000031B6 10484 0001:000031BB 10485 0001:000031BC 10486 0001:000031C0
 10487 0001:000031C2 10488 0001:000031C3 10489 0001:000031C6 10490 0001:000031C7
 10491 0001:000031C8 10492 0001:000031CD 10494 0001:000031CF 10500 0001:000031D0
 10501 0001:000031D2 10502 0001:000031D6 10503 0001:000031DA 10504 0001:000031DD
 10505 0001:000031E0 10506 0001:000031E2 10508 0001:000031E5 10534 0001:000031E8
 10535 0001:000031EE 10536 0001:00003249 10537 0001:0000324D 10538 0001:00003251
 10541 0001:00003255 10542 0001:00003259 10543 0001:0000325D 10545 0001:00003261
 10546 0001:00003265 10547 0001:00003269 10548 0001:0000326D 10549 0001:00003271
 10550 0001:00003275 10552 0001:00003277 10553 0001:00003284 10557 0001:00003288
 10559 0001:0000328C 10560 0001:00003293 10562 0001:00003299 10563 0001:000032A0
 10564 0001:000032A2 10565 0001:000032A6 10566 0001:000032A7 10567 0001:000032AC
 10568 0001:000032AF 10573 0001:000032B1 10574 0001:000032B5 10575 0001:000032B6
 10576 0001:000032BB 10578 0001:000032BF 10579 0001:000032C1 10580 0001:000032C2
 10581 0001:000032C7 10582 0001:000032C8 10585 0001:000032CE 10586 0001:000032D2
 10587 0001:000032D8 10588 0001:000032DB 10589 0001:000032DE 10591 0001:000032E0
 10592 0001:000032E6 10593 0001:000032E8 10594 0001:000032EE 10595 0001:000032F0
 10596 0001:000032F2 10597 0001:000032F4 10598 0001:000032FA 10602 0001:000032FD
 10603 0001:00003302 10604 0001:00003308 10605 0001:0000330A 10606 0001:0000330C
 10609 0001:0000330E 10610 0001:00003312 10611 0001:00003317 10612 0001:0000331A
 10613 0001:0000331D 10616 0001:00003322 10617 0001:00003324 10621 0001:00003328
 10622 0001:0000332A 10623 0001:0000332D 10624 0001:00003330 10626 0001:00003333
 10631 0001:00003335 10633 0001:0000333C 10637 0001:0000333F 10639 0001:00003344
 10644 0001:00003348 10648 0001:0000334A 10650 0001:0000334F 10651 0001:00003351
 10652 0001:00003353 10653 0001:00003356 10654 0001:00003358 10655 0001:0000335A
 10656 0001:0000335C 10657 0001:0000335F 10660 0001:00003360 10662 0001:00003362
 10663 0001:00003365 10664 0001:00003367 10665 0001:00003369 10667 0001:0000336B
 10668 0001:0000336D 10670 0001:0000336F 10692 0001:00003370 10693 0001:0000337B
 10695 0001:00003382 10696 0001:00003385 10700 0001:00003388 10701 0001:00003396
 10703 0001:0000339A 10704 0001:0000339B 10705 0001:0000339E 10706 0001:000033A2
 10712 0001:000033A6 10701 0001:000033A8 10717 0001:000033BB 10718 0001:000033C0
 10720 0001:000033CA 10832 0001:000033D0 10833 0001:000033D6 10835 0001:000033DF
 10836 0001:000033E1 10837 0001:000033E3 10841 0001:000033E6 10842 0001:000033F4
 10844 0001:000033F8 10845 0001:000033FB 10846 0001:000033FC 10847 0001:00003402
 10853 0001:00003406 10842 0001:00003408 10858 0001:0000341B 10859 0001:00003420
 10861 0001:0000342A 10933 0001:00003430 10934 0001:00003431 10935 0001:00003432
 10939 0001:00003433 10940 0001:00003438 10941 0001:0000343B 10942 0001:00003440
 10946 0001:00003442 10947 0001:00003448 10948 0001:0000344E 10949 0001:00003454
 10950 0001:0000345A 10951 0001:0000345F 10952 0001:00003465 10953 0001:00003468
 10954 0001:0000346E 10955 0001:00003470 10956 0001:00003474 10957 0001:00003476
 10959 0001:00003478 10961 0001:0000347E 10962 0001:00003483 10963 0001:00003488
 10964 0001:0000348D 10966 0001:00003492 10968 0001:00003497 10969 0001:0000349A
 10970 0001:0000349B 10971 0001:000034A0 10975 0001:000034A1 10976 0001:000034A2
 10977 0001:000034A4 10978 0001:000034AA 10979 0001:000034AC 10980 0001:000034AE
 10981 0001:000034B0 10986 0001:000034B3 10987 0001:000034B4 10988 0001:000034B8
 10989 0001:000034BA 10990 0001:000034BC 10991 0001:000034BF 10992 0001:000034C2
 10995 0001:000034C4 10996 0001:000034C5 10997 0001:000034C8 10998 0001:000034CA
 10999 0001:000034CC 11005 0001:000034CF 11006 0001:000034D6 11007 0001:000034D8
 11008 0001:000034DF 11012 0001:000034E5 11013 0001:000034E8 11014 0001:000034E9
 11015 0001:000034EF 11016 0001:000034F4 11017 0001:000034F7 11117 0001:000034F8
 11118 0001:000034F9 11120 0001:000034FB 11121 0001:000034FC 11122 0001:000034FD
 11123 0001:00003500 11125 0001:00003504 11126 0001:00003507 11127 0001:00003509
 11128 0001:0000350C 11129 0001:0000350E 11130 0001:00003513 11131 0001:00003516
 11132 0001:00003517 11134 0001:00003519 11135 0001:0000351A 11137 0001:0000351B
 11139 0001:0000351C 11157 0001:00003520 11158 0001:00003521 11160 0001:00003523
 11161 0001:00003524 11162 0001:00003525 11163 0001:00003528 11175 0001:0000352C
 11176 0001:0000352F 11177 0001:00003531 11178 0001:00003534 11179 0001:00003537
 11180 0001:0000353A 11181 0001:0000353D 11182 0001:0000353E 11186 0001:00003540
 11187 0001:00003541 11189 0001:00003542 11191 0001:00003543 11234 0001:00003544
 11235 0001:0000354C 11236 0001:0000354E 11238 0001:00003554 11239 0001:00003568
 11240 0001:00003574 11241 0001:00003575 11242 0001:00003579 11243 0001:0000357B
 11245 0001:00003580 11246 0001:00003592 11247 0001:00003595 11248 0001:00003596
 11249 0001:0000359A 11265 0001:000035A0 11266 0001:000035A2 11267 0001:000035A8
 11268 0001:000035AA 11269 0001:000035AC 11276 0001:000035AD 11279 0001:000035B2
 11280 0001:000035B5 11281 0001:000035B8 11282 0001:000035BB 11284 0001:000035BE
 11285 0001:000035C0 11286 0001:000035C5 11287 0001:000035C7 11288 0001:000035C8
 11290 0001:000035C9 11292 0001:000035CA 11297 0001:000035CD 11303 0001:000035D0
 11304 0001:000035D1 11308 0001:000035DA 11309 0001:000035EE 11311 0001:000035F9
 11312 0001:00003614 11314 0001:00003631 11315 0001:0000363A 11330 0001:0000364D
 11338 0001:0000365C 11352 0001:0000366F 11353 0001:00003675 11355 0001:0000367A
 11356 0001:0000367E 11357 0001:00003682 11353 0001:00003686 11362 0001:0000368B
 11364 0001:00003694 11365 0001:00003699 11366 0001:0000369E 11377 0001:000036A5
 11378 0001:000036B0 11382 0001:000036B5 11384 0001:000036BA 11386 0001:000036C5
 11389 0001:000036CC 11393 0001:000036D1 11394 0001:000036E0 11399 0001:000036E6
 11403 0001:000036EB 11404 0001:000036F1 11407 0001:000036F4 11408 0001:000036FA
 11410 0001:000036FF 11417 0001:00003704 11418 0001:0000370D 11419 0001:00003713
 11422 0001:0000371B 11372 0001:0000372A 11424 0001:0000372F 11428 0001:00003734
 11429 0001:00003739 11430 0001:0000373E 11462 0001:00003740 11464 0001:00003746
 11465 0001:0000374B 11487 0001:0000374C 11498 0001:0000374D 11500 0001:00003754
 11501 0001:00003756 11502 0001:00003758 11503 0001:0000375D 11505 0001:0000375F
 11510 0001:00003763 11513 0001:00003769 11514 0001:0000376A 11529 0001:0000376C
 11534 0001:0000376F 11535 0001:00003774 11537 0001:00003775 11538 0001:00003777
 11539 0001:0000377C 11540 0001:0000377F 11541 0001:00003780 11553 0001:00003783
 11555 0001:00003786 11556 0001:00003789 11557 0001:0000378B 11558 0001:0000378C
 11559 0001:0000378D 11560 0001:00003792 11561 0001:00003793 11562 0001:00003794
 11565 0001:00003796 11566 0001:00003798 11567 0001:00003799 11568 0001:0000379C
 11570 0001:0000379D 11575 0001:0000379E 11584 0001:000037A4 11585 0001:000037B0
 11586 0001:000037BA 11587 0001:000037BC 11588 0001:000037C2 11589 0001:000037C9
 11591 0001:000037DF 11596 0001:000037E8 11597 0001:000037EE 11660 0001:000037F0
 11661 0001:000037F2 11662 0001:000037F4 11663 0001:000037F6 11664 0001:000037FC
 11665 0001:000037FF 11666 0001:00003800 11667 0001:00003802 11668 0001:00003806
 11669 0001:00003808 11670 0001:00003809 11671 0001:0000380C 11672 0001:00003811
 11674 0001:00003812 11695 0001:00003814 11696 0001:00003815 11697 0001:00003816
 11698 0001:00003818 11701 0001:0000381A 11702 0001:0000381C 11703 0001:0000381E
 11704 0001:00003820 11705 0001:00003826 11706 0001:00003829 11707 0001:0000382A
 11708 0001:0000382C 11709 0001:00003830 11710 0001:00003832 11711 0001:00003835
 11713 0001:0000383A 11714 0001:0000383D 11715 0001:0000383E 11717 0001:00003840
 11718 0001:00003841 11719 0001:00003842 11767 0001:00003844 11768 0001:00003846
 11770 0001:00003848 11771 0001:0000384B 11772 0001:0000384C 11774 0001:0000384E
 11775 0001:0000384F 11776 0001:00003850 11777 0001:00003853 11778 0001:00003858
 11779 0001:0000385A 11780 0001:0000385B 11781 0001:0000385C 11782 0001:0000385F
 11783 0001:00003864 11784 0001:00003865 11785 0001:00003866 11788 0001:00003868
 11790 0001:0000386C 11791 0001:0000386E 11792 0001:00003870 11793 0001:00003872
 11794 0001:00003875 11795 0001:00003876 11796 0001:00003878 11797 0001:0000387C
 11798 0001:0000387E 11799 0001:00003881 11801 0001:00003886 11820 0001:00003888
 11821 0001:0000388A 11825 0001:0000388C 11826 0001:0000388F 11827 0001:00003890
 11828 0001:00003892 11833 0001:00003896 11834 0001:00003898 11835 0001:0000389A
 11836 0001:0000389C 11837 0001:0000389F 11838 0001:000038A0 11839 0001:000038A2
 11840 0001:000038A6 11841 0001:000038A8 11842 0001:000038AB 11844 0001:000038B0
 11868 0001:000038B4 11869 0001:000038B6 11870 0001:000038B8 11871 0001:000038B9
 11872 0001:000038BC 11873 0001:000038BF 11874 0001:000038C0 11875 0001:000038C5
 11876 0001:000038C6 11877 0001:000038CD 11878 0001:000038D0 11879 0001:000038D1
 11880 0001:000038D4 11881 0001:000038DB 11883 0001:000038DC 11884 0001:000038DE
 11893 0001:000038E0 11894 0001:000038E1 11895 0001:000038E2 11897 0001:000038E3
 11898 0001:000038E5 11899 0001:000038E7 11903 0001:000038E9 11905 0001:000038EB
 11906 0001:000038F0 11907 0001:000038F2 11909 0001:000038F4 11910 0001:000038F6
 11912 0001:000038F8 11913 0001:000038FA 11914 0001:000038FC 11919 0001:00003901
 11920 0001:00003903 11921 0001:00003908 11923 0001:0000390A 11924 0001:0000390B
 11925 0001:0000390C 11926 0001:0000390D 12033 0001:00003910 12051 0001:00003913
 12054 0001:0000392B 12061 0001:00003930 12081 0001:00003933 12084 0001:00003947
 12090 0001:0000394C 12091 0001:00003961 12093 0001:00003965 12094 0001:0000396C
 12096 0001:0000396E 12098 0001:00003979 12099 0001:0000398E 12101 0001:00003992
 12102 0001:0000399F 12106 0001:000039A1 12107 0001:000039A5 12108 0001:000039AE
 12109 0001:000039BE 12110 0001:000039C4 12111 0001:000039CD 12116 0001:000039D8
 12117 0001:000039D9 12118 0001:000039DB 12119 0001:000039E0 12120 0001:000039E5
 12121 0001:000039E6 12136 0001:000039E8 12137 0001:000039EA 12138 0001:000039EC
 12139 0001:000039EE 12140 0001:000039EF 12141 0001:000039F1 12142 0001:000039F3
 12143 0001:000039F6 12144 0001:000039F8 12145 0001:000039FB 12146 0001:000039FD
 12147 0001:00003A00 12148 0001:00003A02 12149 0001:00003A05 12150 0001:00003A07
 12151 0001:00003A08 12152 0001:00003A09 12153 0001:00003A0A 12154 0001:00003A0C
 12155 0001:00003A0D 12156 0001:00003A0F 12157 0001:00003A14 12162 0001:00003A18
 12163 0001:00003A1A 12164 0001:00003A1C 12165 0001:00003A1E 12166 0001:00003A1F
 12167 0001:00003A22 12168 0001:00003A24 12169 0001:00003A28 12170 0001:00003A2A
 12171 0001:00003A2E 12172 0001:00003A30 12173 0001:00003A34 12174 0001:00003A36
 12175 0001:00003A39 12176 0001:00003A3B 12177 0001:00003A3E 12178 0001:00003A41
 12179 0001:00003A44 12180 0001:00003A46 12181 0001:00003A47 12182 0001:00003A49
 12183 0001:00003A4B 12184 0001:00003A50 12189 0001:00003A54 12190 0001:00003A56
 12191 0001:00003A58 12192 0001:00003A59 12193 0001:00003A5E 12198 0001:00003A60
 12199 0001:00003A61 12200 0001:00003A62 12201 0001:00003A63 12202 0001:00003A65
 12203 0001:00003A67 12204 0001:00003A69 12205 0001:00003A6B 12206 0001:00003A6D
 12207 0001:00003A6E 12208 0001:00003A70 12209 0001:00003A71 12210 0001:00003A72
 12211 0001:00003A77 12237 0001:00003A78 12238 0001:00003A7A 12239 0001:00003A7C
 12240 0001:00003A7E 12241 0001:00003A81 12242 0001:00003A83 12243 0001:00003A88
 12252 0001:00003A8C 12253 0001:00003A8D 12254 0001:00003A8F 12255 0001:00003A91
 12256 0001:00003A94 12257 0001:00003A96 12259 0001:00003A98 12260 0001:00003A9A
 12261 0001:00003A9C 12263 0001:00003A9E 12264 0001:00003AA0 12266 0001:00003AA1
 12267 0001:00003AA2 12269 0001:00003AA7 12272 0001:00003AA9 12275 0001:00003AAC
 12276 0001:00003AAD 12289 0001:00003AB0 12290 0001:00003AB2 12291 0001:00003AB4
 12293 0001:00003AB7 12302 0001:00003AB8 12303 0001:00003ABA 12305 0001:00003ABC
 12306 0001:00003ABE 12307 0001:00003AC0 12309 0001:00003AC6 12310 0001:00003AC7
 12311 0001:00003AC8 12312 0001:00003AC9 12313 0001:00003ACB 12314 0001:00003ACD
 12316 0001:00003AD0 12317 0001:00003AD3 12318 0001:00003AD5 12319 0001:00003AD7
 12321 0001:00003AD9 12322 0001:00003ADE 12323 0001:00003AE0 12326 0001:00003AE3
 12327 0001:00003AE5 12328 0001:00003AE7 12329 0001:00003AEC 12330 0001:00003AED
 12331 0001:00003AEE 12332 0001:00003AEF 12335 0001:00003AF0 12336 0001:00003AF5
 12337 0001:00003AF7 12338 0001:00003AF9 12341 0001:00003AFB 12350 0001:00003AFC
 12351 0001:00003AFE 12353 0001:00003B00 12354 0001:00003B02 12356 0001:00003B08
 12357 0001:00003B0A 12359 0001:00003B0C 12360 0001:00003B0E 12362 0001:00003B10
 12363 0001:00003B11 12364 0001:00003B12 12366 0001:00003B17 12367 0001:00003B18
 12368 0001:00003B19 12372 0001:00003B1E 12373 0001:00003B1F 12374 0001:00003B20
 12376 0001:00003B21 12377 0001:00003B23 12378 0001:00003B25 12380 0001:00003B26
 12381 0001:00003B29 12382 0001:00003B2C 12384 0001:00003B31 12385 0001:00003B33
 12386 0001:00003B35 12387 0001:00003B37 12388 0001:00003B3A 12390 0001:00003B3F
 12391 0001:00003B41 12392 0001:00003B43 12393 0001:00003B46 12394 0001:00003B49
 12396 0001:00003B4E 12397 0001:00003B4F 12398 0001:00003B51 12399 0001:00003B53
 12400 0001:00003B55 12402 0001:00003B58 12404 0001:00003B5D 12405 0001:00003B5E
 12406 0001:00003B5F 12408 0001:00003B60 12411 0001:00003B61 12412 0001:00003B63
 12415 0001:00003B68 12416 0001:00003B6A 12419 0001:00003B6F 12428 0001:00003B70
 12429 0001:00003B71 12430 0001:00003B72 12431 0001:00003B73 12432 0001:00003B74
 12433 0001:00003B75 12435 0001:00003B77 12436 0001:00003B79 12437 0001:00003B7D
 12438 0001:00003B7F 12439 0001:00003B81 12440 0001:00003B83 12441 0001:00003B85
 12442 0001:00003B87 12443 0001:00003B8A 12444 0001:00003B8B 12446 0001:00003B8D
 12448 0001:00003B8F 12449 0001:00003B93 12450 0001:00003B95 12451 0001:00003B97
 12452 0001:00003B9A 12453 0001:00003B9C 12454 0001:00003B9E 12456 0001:00003BA0
 12457 0001:00003BA1 12460 0001:00003BA3 12461 0001:00003BA5 12462 0001:00003BA7
 12463 0001:00003BA9 12464 0001:00003BAC 12465 0001:00003BAF 12466 0001:00003BB4
 12467 0001:00003BB7 12468 0001:00003BB9 12469 0001:00003BBB 12470 0001:00003BBC
 12473 0001:00003BBE 12474 0001:00003BC3 12475 0001:00003BC4 12478 0001:00003BC6
 12479 0001:00003BCA 12480 0001:00003BCC 12481 0001:00003BCE 12482 0001:00003BD0
 12483 0001:00003BD3 12484 0001:00003BD5 12486 0001:00003BDA 12487 0001:00003BDB
 12489 0001:00003BDD 12490 0001:00003BDE 12491 0001:00003BDF 12492 0001:00003BE1
 12494 0001:00003BE3 12495 0001:00003BE5 12496 0001:00003BE7 12498 0001:00003BEA
 12501 0001:00003BEF 12502 0001:00003BF0 12503 0001:00003BF1 12504 0001:00003BF2
 12505 0001:00003BF3 12506 0001:00003BF4 12507 0001:00003BF7 12508 0001:00003BF9
 12516 0001:00003BFC 12517 0001:00003BFD 12518 0001:00003BFE 12520 0001:00003BFF
 12521 0001:00003C01 12523 0001:00003C03 12524 0001:00003C05 12526 0001:00003C0B
 12527 0001:00003C0D 12529 0001:00003C0F 12530 0001:00003C11 12532 0001:00003C13
 12533 0001:00003C16 12535 0001:00003C19 12536 0001:00003C1B 12537 0001:00003C1D
 12540 0001:00003C1F 12541 0001:00003C20 12542 0001:00003C23 12544 0001:00003C25
 12545 0001:00003C27 12546 0001:00003C29 12547 0001:00003C2B 12548 0001:00003C2D
 12549 0001:00003C2E 12550 0001:00003C30 12551 0001:00003C33 12552 0001:00003C36
 12553 0001:00003C38 12554 0001:00003C3A 12555 0001:00003C3D 12556 0001:00003C40
 12557 0001:00003C41 12558 0001:00003C43 12560 0001:00003C45 12561 0001:00003C48
 12563 0001:00003C4B 12564 0001:00003C4C 12565 0001:00003C4F 12567 0001:00003C51
 12568 0001:00003C53 12569 0001:00003C55 12570 0001:00003C57 12571 0001:00003C59
 12572 0001:00003C5A 12573 0001:00003C5C 12574 0001:00003C5E 12575 0001:00003C60
 12576 0001:00003C61 12577 0001:00003C63 12578 0001:00003C69 12579 0001:00003C6F
 12580 0001:00003C71 12583 0001:00003C73 12584 0001:00003C75 12587 0001:00003C77
 12588 0001:00003C7A 12589 0001:00003C7C 12592 0001:00003C7E 12593 0001:00003C81
 12594 0001:00003C83 12597 0001:00003C85 12598 0001:00003C86 12599 0001:00003C88
 12600 0001:00003C8A 12601 0001:00003C8C 12602 0001:00003C8E 12603 0001:00003C91
 12604 0001:00003C94 12605 0001:00003C96 12606 0001:00003C98 12609 0001:00003C9A
 12610 0001:00003C9B 12611 0001:00003C9C 12613 0001:00003C9D 12629 0001:00003CA0
 12630 0001:00003CA2 12631 0001:00003CA4 12632 0001:00003CA7 12633 0001:00003CA8
 12634 0001:00003CAA 12636 0001:00003CAE 12659 0001:00003CB0 12660 0001:00003CB2
 12661 0001:00003CB4 12667 0001:00003CB5 12669 0001:00003CB6 12671 0001:00003CBB
 12678 0001:00003CBC 12679 0001:00003CBE 12680 0001:00003CC0 12681 0001:00003CC2
 12682 0001:00003CC5 12683 0001:00003CC6 12685 0001:00003CC8 12686 0001:00003CC9
 12687 0001:00003CCB 12688 0001:00003CCE 12689 0001:00003CD3 12690 0001:00003CD5
 12691 0001:00003CD7 12692 0001:00003CD9 12693 0001:00003CDA 12694 0001:00003CDD
 12695 0001:00003CE2 12696 0001:00003CE3 12697 0001:00003CE6 12698 0001:00003CE7
 12699 0001:00003CE9 12700 0001:00003CED 12701 0001:00003CEF 12702 0001:00003CF2
 12704 0001:00003CF7 12705 0001:00003CF9 12707 0001:00003CFA 12708 0001:00003CFC
 12713 0001:00003D00 12714 0001:00003D05 12718 0001:00003D08 12719 0001:00003D0D
 12748 0001:00003D10 12750 0001:00003D11 12751 0001:00003D13 12753 0001:00003D15
 12754 0001:00003D18 12755 0001:00003D1A 12759 0001:00003D1C 12760 0001:00003D1D
 12761 0001:00003D1F 12762 0001:00003D21 12768 0001:00003D23 12769 0001:00003D25
 12770 0001:00003D27 12771 0001:00003D29 12772 0001:00003D2B 12776 0001:00003D2D
 12777 0001:00003D2F 12778 0001:00003D33 12779 0001:00003D38 12782 0001:00003D3A
 12783 0001:00003D3C 12785 0001:00003D3E 12786 0001:00003D40 12790 0001:00003D42
 12791 0001:00003D46 12793 0001:00003D4B 12794 0001:00003D4C 12795 0001:00003D4F
 12804 0001:00003D50 12805 0001:00003D51 12806 0001:00003D52 12808 0001:00003D53
 12809 0001:00003D55 12810 0001:00003D57 12812 0001:00003D59 12814 0001:00003D5E
 12815 0001:00003D60 12816 0001:00003D62 12818 0001:00003D64 12822 0001:00003D67
 12823 0001:00003D68 12824 0001:00003D6A 12825 0001:00003D6C 12829 0001:00003D6E
 12830 0001:00003D70 12831 0001:00003D72 12832 0001:00003D74 12833 0001:00003D76
 12834 0001:00003D78 12839 0001:00003D7A 12840 0001:00003D7C 12841 0001:00003D7E
 12842 0001:00003D81 12846 0001:00003D86 12847 0001:00003D88 12848 0001:00003D8A
 12849 0001:00003D8D 12850 0001:00003D8F 12853 0001:00003D94 12854 0001:00003D95
 12855 0001:00003D96 12856 0001:00003D97 12942 0001:00003D98 12943 0001:00003D9A
 12945 0001:00003D9C 12946 0001:00003D9E 12948 0001:00003DA0 12949 0001:00003DA1
 12950 0001:00003DA2 12952 0001:00003DA3 12953 0001:00003DA5 12955 0001:00003DA7
 12957 0001:00003DAA 12959 0001:00003DAB 12961 0001:00003DAE 12962 0001:00003DAF
 12963 0001:00003DB1 12964 0001:00003DB3 12966 0001:00003DB4 12968 0001:00003DB6
 12970 0001:00003DB8 12971 0001:00003DBA 12972 0001:00003DBC 12973 0001:00003DBE
 12974 0001:00003DBF 12976 0001:00003DC0 12977 0001:00003DC2 12978 0001:00003DC4
 12979 0001:00003DC5 12980 0001:00003DC6 12981 0001:00003DC8 12982 0001:00003DCA
 12985 0001:00003DCC 12986 0001:00003DCD 12987 0001:00003DCF 12990 0001:00003DD1
 12991 0001:00003DD3 12994 0001:00003DD4 12995 0001:00003DD5 12996 0001:00003DD7
 12998 0001:00003DD9 12999 0001:00003DDA 13000 0001:00003DDB 13002 0001:00003DDC
 13010 0001:00003DE0 13011 0001:00003DE1 13012 0001:00003DE2 13013 0001:00003DE3
 13014 0001:00003DE5 13015 0001:00003DE7 13017 0001:00003DE9 13018 0001:00003DEB
 13020 0001:00003DED 13021 0001:00003DEF 13022 0001:00003DF1 13024 0001:00003DF3
 13025 0001:00003DF7 13027 0001:00003DF9 13028 0001:00003DFC 13029 0001:00003DFF
 13030 0001:00003E00 13031 0001:00003E02 13032 0001:00003E07 13033 0001:00003E08
 13034 0001:00003E0B 13035 0001:00003E0D 13036 0001:00003E10 13037 0001:00003E14
 13040 0001:00003E16 13041 0001:00003E18 13042 0001:00003E1D 13044 0001:00003E1F
 13045 0001:00003E21 13046 0001:00003E23 13048 0001:00003E25 13049 0001:00003E27
 13050 0001:00003E2A 13051 0001:00003E2C 13052 0001:00003E2E 13055 0001:00003E30
 13058 0001:00003E35 13059 0001:00003E37 13060 0001:00003E3C 13063 0001:00003E3E
 13064 0001:00003E3F 13065 0001:00003E40 13066 0001:00003E41 13075 0001:00003E44
 13076 0001:00003E45 13077 0001:00003E46 13079 0001:00003E47 13080 0001:00003E49
 13081 0001:00003E4B 13083 0001:00003E4D 13084 0001:00003E4F 13086 0001:00003E54
 13087 0001:00003E56 13089 0001:00003E58 13090 0001:00003E5A 13092 0001:00003E5F
 13094 0001:00003E61 13095 0001:00003E63 13097 0001:00003E65 13100 0001:00003E6A
 13101 0001:00003E6B 13102 0001:00003E6C 13104 0001:00003E6D 13109 0001:00003E70
 13110 0001:00003E77 13128 0001:00003E78 13130 0001:00003E79 13132 0001:00003E7B
 13133 0001:00003E7D 13134 0001:00003E7F 13135 0001:00003E81 13136 0001:00003E83
 13137 0001:00003E86 13139 0001:00003E88 13140 0001:00003E89 13141 0001:00003E8E
 13143 0001:00003E8F 13144 0001:00003E91 13145 0001:00003E92 13146 0001:00003E97
 13220 0001:00003E98 13221 0001:00003E9A 13222 0001:00003E9F 13233 0001:00003EA0
 13234 0001:00003EA2 13235 0001:00003EA4 13236 0001:00003EA5 13237 0001:00003EA7
 13238 0001:00003EAC 13239 0001:00003EAE 13241 0001:00003EB4 13265 0001:00003EB8
 13266 0001:00003EBA 13267 0001:00003EBC 13268 0001:00003EBE 13269 0001:00003EBF
 13272 0001:00003EC4 13286 0001:00003EC8 13287 0001:00003ECA 13288 0001:00003ECC
 13289 0001:00003ECE 13290 0001:00003ED4 13291 0001:00003ED5 13292 0001:00003ED6
 13293 0001:00003EDB 13295 0001:00003EDC 13307 0001:00003EE0 13308 0001:00003EE1
 13309 0001:00003EE2 13310 0001:00003EE4 13311 0001:00003EE6 13312 0001:00003EE8
 13313 0001:00003EEA 13314 0001:00003EEC 13315 0001:00003EF2 13316 0001:00003EF3
 13317 0001:00003EF8 13318 0001:00003EFB 13319 0001:00003EFC 13320 0001:00003EFE
 13321 0001:00003EFF 13322 0001:00003F00 13336 0001:00003F04 13337 0001:00003F06
 13338 0001:00003F0C 13339 0001:00003F0F 13340 0001:00003F11 13341 0001:00003F17
 13342 0001:00003F18 13343 0001:00003F19 13344 0001:00003F1A 13345 0001:00003F1F
 13346 0001:00003F21 13347 0001:00003F27 13366 0001:00003F28 13367 0001:00003F3D
 13369 0001:00003F41 13370 0001:00003F48 13372 0001:00003F4A 13374 0001:00003F55
 13375 0001:00003F6A 13377 0001:00003F6E 13378 0001:00003F7B 13382 0001:00003F7D
 13383 0001:00003F7F 13384 0001:00003F88 13385 0001:00003F98 13386 0001:00003F9E
 13387 0001:00003FA7 13411 0001:00003FB4 13412 0001:00003FB6 13414 0001:00003FBC
 13416 0001:00003FBD 13417 0001:00003FBE 13418 0001:00003FBF 13419 0001:00003FC4
 13420 0001:00003FC6 13422 0001:00003FCC 13423 0001:00003FCD 13424 0001:00003FCF
 13426 0001:00003FD1 13427 0001:00003FD6 13485 0001:00003FD8 13486 0001:00003FDA
 13487 0001:00003FDC 13488 0001:00003FDE 13489 0001:00003FDF 13490 0001:00003FE2
 13491 0001:00003FE4 13492 0001:00003FE8 13493 0001:00003FEA 13494 0001:00003FEE
 13495 0001:00003FF0 13496 0001:00003FF4 13497 0001:00003FF6 13498 0001:00003FF9
 13499 0001:00003FFB 13500 0001:00003FFE 13501 0001:00004001 13502 0001:00004004
 13503 0001:00004006 13504 0001:00004007 13505 0001:00004009 13506 0001:0000400B
 13507 0001:00004010 13557 0001:00004014 13558 0001:00004016 13559 0001:00004018
 13560 0001:0000401A 13561 0001:0000401D 13562 0001:00004022 13599 0001:00004024
 13600 0001:00004026 13601 0001:00004028 13605 0001:00004029 13606 0001:0000402A
 13607 0001:0000402C 13609 0001:00004031 13624 0001:00004034 13625 0001:00004036
 13626 0001:00004038 13627 0001:0000403B 13629 0001:0000403D 13723 0001:00004040
 13724 0001:00004041 13725 0001:00004042 13727 0001:00004043 13728 0001:00004045
 13730 0001:00004047 13731 0001:00004049 13733 0001:0000404B 13734 0001:0000404D
 13736 0001:0000404F 13737 0001:00004051 13739 0001:00004053 13740 0001:00004056
 13742 0001:00004059 13743 0001:0000405B 13744 0001:0000405D 13747 0001:0000405F
 13748 0001:00004060 13749 0001:00004063 13751 0001:00004065 13752 0001:00004067
 13753 0001:00004069 13754 0001:0000406B 13755 0001:0000406D 13756 0001:0000406E
 13757 0001:00004070 13758 0001:00004073 13759 0001:00004076 13760 0001:00004078
 13761 0001:0000407A 13762 0001:0000407D 13763 0001:00004080 13764 0001:00004081
 13765 0001:00004083 13767 0001:00004085 13768 0001:00004088 13770 0001:0000408B
 13771 0001:0000408C 13772 0001:0000408F 13774 0001:00004091 13775 0001:00004094
 13776 0001:00004097 13777 0001:0000409A 13780 0001:0000409C 13781 0001:0000409E
 13784 0001:000040A0 13785 0001:000040A3 13786 0001:000040A5 13789 0001:000040A7
 13790 0001:000040AA 13791 0001:000040AC 13794 0001:000040AE 13795 0001:000040AF
 13796 0001:000040B2 13797 0001:000040B4 13798 0001:000040B7 13799 0001:000040BA
 13802 0001:000040BD 13803 0001:000040BE 13804 0001:000040BF 13805 0001:000040C0
 13811 0001:000040C4 13812 0001:000040D0 13813 0001:000040D7 13815 0001:000040E0
 13816 0001:000040E1 13818 0001:000040E7 13820 0001:000040EF 13821 0001:000040F1
 13823 0001:000040F7 13824 0001:00004106 13953 0001:00004110 13954 0001:00004117
 13955 0001:00004119 13957 0001:0000411D 13958 0001:00004126 13959 0001:0000412D
 13961 0001:00004131 13962 0001:00004137 13965 0001:00004144 13966 0001:0000414D
 14053 0001:00004154 14055 0001:00004156 14056 0001:00004157 14058 0001:0000415A
 14059 0001:0000415B 14061 0001:0000415C 14062 0001:0000415E 14063 0001:00004162
 14067 0001:00004166 14068 0001:00004168 14069 0001:0000416B 14070 0001:0000416D
 14071 0001:0000416F 14072 0001:00004174 14073 0001:00004179 14074 0001:0000417C
 14075 0001:0000417D 14077 0001:0000417F 14078 0001:00004180 14079 0001:00004181
 14080 0001:00004182 14147 0001:00004184 14148 0001:00004186 14150 0001:0000418C
 14151 0001:0000418D 14152 0001:0000418E 14153 0001:0000418F 14154 0001:00004191
 14155 0001:00004193 14157 0001:00004195 14158 0001:00004197 14159 0001:00004199
 14160 0001:0000419C 14162 0001:0000419E 14163 0001:000041A0 14164 0001:000041A2
 14165 0001:000041A4 14166 0001:000041A6 14167 0001:000041A8 14168 0001:000041AA
 14169 0001:000041AC 14170 0001:000041AE 14171 0001:000041B0 14172 0001:000041B2
 14173 0001:000041B4 14174 0001:000041B6 14175 0001:000041B8 14176 0001:000041BA
 14177 0001:000041BC 14178 0001:000041BD 14179 0001:000041BE 14180 0001:000041BF
 14186 0001:000041C4 14187 0001:000041C6 14188 0001:000041C9 14189 0001:000041CA
 14190 0001:000041CC 14193 0001:000041CE 14194 0001:000041D0 14195 0001:000041D3
 14196 0001:000041D6 14197 0001:000041D9 14198 0001:000041DC 14199 0001:000041DD
 14200 0001:000041DF 14203 0001:000041E1 14204 0001:000041E2 14206 0001:000041E4
 14207 0001:000041E8 14208 0001:000041EA 14209 0001:000041EE 14210 0001:000041F2
 14211 0001:000041F4 14212 0001:000041F9 14213 0001:000041FA 14214 0001:000041FC
 14215 0001:000041FD 14218 0001:000041FF 14219 0001:00004200 14221 0001:00004202
 14222 0001:00004204 14223 0001:00004208 14224 0001:0000420A 14225 0001:0000420F
 14226 0001:00004210 14227 0001:00004212 14231 0001:00004213 14232 0001:00004214
 14233 0001:00004215 14235 0001:00004216 14265 0001:00004218 14267 0001:0000421A
 14268 0001:0000421B 14270 0001:0000421E 14271 0001:0000421F 14273 0001:00004220
 14274 0001:00004222 14275 0001:00004226 14279 0001:0000422A 14280 0001:0000422C
 14281 0001:0000422F 14282 0001:00004231 14283 0001:00004233 14284 0001:00004238
 14285 0001:0000423D 14286 0001:00004240 14287 0001:00004241 14289 0001:00004243
 14291 0001:00004245 14292 0001:00004246 14293 0001:00004247 14294 0001:00004248
 14299 0001:0000424C 14300 0001:00004255 14302 0001:0000425C 14303 0001:00004263
 14370 0001:00004264 14371 0001:00004267 14373 0001:0000426D 14374 0001:0000426E
 14375 0001:0000426F 14376 0001:00004270 14377 0001:00004271 14378 0001:00004273
 14379 0001:00004275 14381 0001:00004277 14382 0001:00004279 14383 0001:0000427B
 14385 0001:0000427E 14386 0001:00004280 14388 0001:00004282 14389 0001:00004284
 14391 0001:00004286 14392 0001:00004288 14394 0001:0000428A 14395 0001:0000428C
 14397 0001:0000428E 14398 0001:00004290 14400 0001:00004292 14401 0001:00004294
 14403 0001:0000429A 14404 0001:0000429C 14406 0001:000042A2 14409 0001:000042A7
 14410 0001:000042AA 14411 0001:000042AC 14412 0001:000042AE 14413 0001:000042B3
 14415 0001:000042B8 14416 0001:000042BA 14417 0001:000042BF 14420 0001:000042C4
 14421 0001:000042C7 14422 0001:000042C9 14423 0001:000042CB 14424 0001:000042D0
 14426 0001:000042D2 14427 0001:000042D4 14428 0001:000042D9 14430 0001:000042DB
 14431 0001:000042DD 14432 0001:000042E0 14433 0001:000042E5 14434 0001:000042E6
 14435 0001:000042E8 14437 0001:000042EA 14438 0001:000042EB 14440 0001:000042ED
 14441 0001:000042F1 14442 0001:000042F3 14443 0001:000042F7 14444 0001:000042FB
 14445 0001:000042FD 14446 0001:00004302 14447 0001:00004303 14448 0001:00004305
 14449 0001:00004306 14452 0001:00004308 14453 0001:00004309 14457 0001:0000430B
 14458 0001:0000430D 14459 0001:00004311 14460 0001:00004313 14461 0001:00004318
 14462 0001:00004319 14463 0001:0000431B 14464 0001:0000431C 14467 0001:0000431E
 14468 0001:00004320 14469 0001:00004323 14470 0001:00004328 14471 0001:00004329
 14472 0001:0000432B 14475 0001:0000432D 14476 0001:0000432F 14477 0001:00004331
 14478 0001:00004334 14479 0001:00004339 14480 0001:0000433A 14481 0001:0000433C
 14484 0001:0000433E 14485 0001:0000433F 14486 0001:00004340 14487 0001:00004341
 14488 0001:00004342 14489 0001:00004344 14492 0001:00004349 14493 0001:0000434A
 14494 0001:0000434B 14495 0001:0000434C 14497 0001:0000434D 14507 0001:00004350
 14508 0001:00004355 14509 0001:0000435A 14686 0001:0000435C 14687 0001:00004365
 14689 0001:0000436C 14690 0001:00004373 14698 0001:00004374 14699 0001:00004375
 14700 0001:00004376 14701 0001:00004377 14703 0001:00004378 14704 0001:0000437A
 14706 0001:0000437C 14707 0001:0000437E 14709 0001:00004381 14710 0001:00004385
 14711 0001:00004388 14712 0001:0000438A 14713 0001:0000438D 14715 0001:0000438E
 14716 0001:00004391 14717 0001:00004393 14718 0001:00004395 14719 0001:00004397
 14720 0001:00004399 14721 0001:0000439B 14723 0001:000043A0 14725 0001:000043A3
 14726 0001:000043A5 14727 0001:000043A7 14729 0001:000043A9 14730 0001:000043AC
 14731 0001:000043AE 14732 0001:000043B1 14733 0001:000043B3 14734 0001:000043B6
 14735 0001:000043B8 14736 0001:000043BB 14737 0001:000043BD 14738 0001:000043C0
 14739 0001:000043C2 14740 0001:000043C5 14741 0001:000043CB 14742 0001:000043CE
 14743 0001:000043D4 14744 0001:000043D6 14745 0001:000043D7 14746 0001:000043D8
 14747 0001:000043D9 14748 0001:000043DA 14751 0001:000043DF 14752 0001:000043E2
 14753 0001:000043E4 14754 0001:000043E9 14755 0001:000043EE 14758 0001:000043F0
 14759 0001:000043F3 14760 0001:000043F5 14761 0001:000043FA 14762 0001:000043FF
 14765 0001:00004401 14766 0001:00004404 14767 0001:00004406 14768 0001:0000440B
 14769 0001:00004410 14772 0001:00004412 14773 0001:00004414 14774 0001:00004417
 14775 0001:0000441B 14776 0001:0000441F 14777 0001:00004423 14778 0001:00004425
 14779 0001:00004428 14780 0001:0000442A 14781 0001:0000442F 14782 0001:00004430
 14785 0001:00004432 14786 0001:00004434 14787 0001:00004437 14788 0001:0000443B
 14789 0001:0000443C 14790 0001:0000443E 14791 0001:00004441 14792 0001:00004443
 14793 0001:00004448 14794 0001:00004449 14797 0001:0000444B 14798 0001:0000444E
 14799 0001:00004450 14800 0001:00004455 14801 0001:0000445A 14804 0001:0000445C
 14805 0001:0000445E 14806 0001:00004461 14807 0001:00004463 14808 0001:00004468
 14811 0001:0000446D 14812 0001:00004470 14813 0001:00004473 14814 0001:00004474
 14816 0001:0000447A 14817 0001:0000447B 14818 0001:0000447D 14819 0001:0000447F
 14820 0001:00004482 14821 0001:00004484 14824 0001:00004489 14825 0001:0000448A
 14826 0001:0000448B 14827 0001:0000448C 14828 0001:0000448D 14855 0001:00004490
 14856 0001:00004491 14857 0001:00004492 14858 0001:00004493 14860 0001:00004494
 14861 0001:00004496 14862 0001:00004498 14863 0001:0000449A 14865 0001:0000449E
 14867 0001:000044A0 14868 0001:000044A3 14869 0001:000044A5 14870 0001:000044A8
 14871 0001:000044AA 14872 0001:000044AD 14873 0001:000044AF 14874 0001:000044B2
 14875 0001:000044B4 14876 0001:000044B7 14877 0001:000044B9 14878 0001:000044BC
 14879 0001:000044C2 14880 0001:000044C5 14881 0001:000044CB 14882 0001:000044CD
 14883 0001:000044CE 14884 0001:000044CF 14885 0001:000044D0 14886 0001:000044D1
 14889 0001:000044D6 14890 0001:000044D8 14891 0001:000044DA 14892 0001:000044DF
 14893 0001:000044E2 14894 0001:000044E5 14895 0001:000044E6 14896 0001:000044E8
 14899 0001:000044ED 14900 0001:000044EF 14901 0001:000044F1 14902 0001:000044F6
 14903 0001:000044F9 14904 0001:000044FC 14905 0001:000044FD 14906 0001:000044FF
 14909 0001:00004501 14910 0001:00004503 14911 0001:00004505 14912 0001:0000450A
 14913 0001:0000450D 14914 0001:00004510 14915 0001:00004511 14916 0001:00004513
 14919 0001:00004515 14920 0001:00004517 14921 0001:0000451A 14923 0001:0000451E
 14924 0001:00004520 14925 0001:00004522 14926 0001:00004525 14927 0001:00004528
 14928 0001:0000452D 14929 0001:0000452F 14930 0001:00004531 14931 0001:00004532
 14932 0001:00004534 14935 0001:00004536 14936 0001:00004538 14937 0001:0000453A
 14938 0001:0000453C 14939 0001:00004541 14940 0001:00004543 14941 0001:00004546
 14942 0001:0000454A 14943 0001:0000454E 14944 0001:0000454F 14945 0001:00004551
 14948 0001:00004553 14949 0001:00004555 14950 0001:00004557 14951 0001:0000455C
 14952 0001:0000455F 14953 0001:00004562 14954 0001:00004563 14955 0001:00004565
 14958 0001:00004567 14959 0001:00004569 14960 0001:0000456B 14961 0001:0000456D
 14962 0001:00004572 14963 0001:00004575 14964 0001:00004578 14965 0001:00004579
 14968 0001:0000457B 14969 0001:0000457C 14970 0001:0000457D 14971 0001:0000457E
 14972 0001:0000457F 14973 0001:00004582 15106 0001:00004584 15107 0001:00004586
 15108 0001:0000458B 15127 0001:0000458C 15128 0001:0000458D 15133 0001:0000458E
 15134 0001:00004592 15135 0001:00004595 15137 0001:00004597 15138 0001:0000459B
 15139 0001:0000459F 15141 0001:000045A1 15142 0001:000045A4 15143 0001:000045A8
 15145 0001:000045AA 15146 0001:000045AB 15148 0001:000045AC 15149 0001:000045AF
 15166 0001:000045B0 15167 0001:000045B1 15172 0001:000045B2 15173 0001:000045B6
 15174 0001:000045B9 15176 0001:000045BB 15177 0001:000045BF 15178 0001:000045C3
 15180 0001:000045C5 15181 0001:000045C8 15182 0001:000045CC 15184 0001:000045CE
 15185 0001:000045CF 15187 0001:000045D0 15188 0001:000045D3 15203 0001:000045D4
 15204 0001:000045D5 15205 0001:000045D6 15206 0001:000045D7 15207 0001:000045D8
 15209 0001:000045DA 15210 0001:000045DE 15212 0001:000045E2 15213 0001:000045E4
 15215 0001:000045E6 15216 0001:000045E8 15218 0001:000045EA 15219 0001:000045EC
 15232 0001:000045EE 15233 0001:000045F0 15234 0001:000045F2 15235 0001:000045F4
 15236 0001:000045F6 15237 0001:000045F9 15240 0001:000045FC 15241 0001:000045FE
 15242 0001:00004600 15243 0001:00004602 15244 0001:00004604 15245 0001:00004607
 15248 0001:0000460A 15249 0001:0000460C 15250 0001:00004611 15262 0001:00004612
 15263 0001:00004614 15266 0001:00004616 15267 0001:00004618 15268 0001:0000461A
 15269 0001:0000461C 15270 0001:0000461E 15271 0001:00004620 15272 0001:00004622
 15273 0001:00004624 15274 0001:00004626 15277 0001:00004628 15278 0001:0000462A
 15279 0001:0000462C 15282 0001:0000462D 15289 0001:0000462F 15290 0001:00004630
 15291 0001:00004636 15292 0001:00004638 15293 0001:0000463A 15294 0001:0000463C
 15297 0001:0000463F 15298 0001:00004640 15299 0001:00004641 15300 0001:00004642
 15301 0001:00004643 15304 0001:00004646 15305 0001:00004648 15306 0001:0000464A
 15307 0001:0000464C 15330 0001:00004650 15331 0001:00004651 15332 0001:00004655
 15333 0001:00004659 15334 0001:0000465F 15336 0001:00004661 15337 0001:00004663
 15338 0001:00004665 15339 0001:0000466B 15342 0001:0000466D 15343 0001:0000466F
 15344 0001:00004670 15345 0001:00004671 15348 0001:00004672 15349 0001:00004673
 15350 0001:00004677 15351 0001:0000467B 15352 0001:00004680 15353 0001:00004682
 15354 0001:00004685 15991 0001:00004688 15992 0001:0000468A 15993 0001:0000468C
 15995 0001:0000468F 16002 0001:00004690 16003 0001:00004695 16004 0001:00004696
 16007 0001:00004698 16008 0001:0000469B 16009 0001:0000469E 16010 0001:000046A3
 16014 0001:000046A8 16015 0001:000046AD 16019 0001:000046B0 16020 0001:000046B5
 16029 0001:000046B8 16030 0001:000046C9 16033 0001:000046CE 16034 0001:000046D3
 16036 0001:000046D7 16037 0001:000046DB 16038 0001:000046E2 16039 0001:000046EC
 16042 0001:000046F1 16043 0001:000046F6 16045 0001:000046FA 16046 0001:000046FD
 16047 0001:00004702 16051 0001:00004705 16052 0001:0000470C 16053 0001:00004714
 16054 0001:0000471B 16056 0001:0000471F 16057 0001:00004721 16058 0001:00004729
 16059 0001:00004734 16060 0001:0000473B 16063 0001:0000473F 16065 0001:00004748
 16066 0001:0000474B 16067 0001:00004754 16068 0001:0000476D 16069 0001:00004778
 16073 0001:0000477D 16074 0001:0000477F 16075 0001:00004789 16076 0001:0000478F
 16077 0001:00004794 16078 0001:00004797 16080 0001:0000479B 16081 0001:000047AE
 16084 0001:000047C5 16088 0001:000047DB 16089 0001:000047E1 16090 0001:000047E4
 16091 0001:000047E6 16094 0001:000047E9 16097 0001:00004802 16099 0001:00004808
 16100 0001:0000480C 16101 0001:0000480F 16102 0001:0000481C 16101 0001:00004833
 16104 0001:00004836 16105 0001:0000483B 16114 0001:00004844 16115 0001:00004845
 16116 0001:00004849 16117 0001:0000484E 16197 0001:00004850 16198 0001:00004852
 16199 0001:00004854 16202 0001:00004856 16205 0001:0000485C 16206 0001:00004860
 16209 0001:00004862 16210 0001:00004863 16213 0001:00004865 16214 0001:00004867
 16215 0001:0000486A 16218 0001:0000486E 16219 0001:00004870 16220 0001:00004872
 16221 0001:00004875 16222 0001:00004877 16223 0001:00004879 16224 0001:0000487B
 16227 0001:00004880 16228 0001:00004883 16229 0001:00004888 16231 0001:00004889
 16240 0001:0000488C 16241 0001:0000488D 16245 0001:0000488F 16246 0001:00004891
 16247 0001:00004893 16250 0001:00004897 16251 0001:00004899 16252 0001:0000489B
 16253 0001:0000489F 16254 0001:000048A1 16255 0001:000048A2 16256 0001:000048A3
 16257 0001:000048A5 16258 0001:000048A8 16259 0001:000048AD 16260 0001:000048AE
 16263 0001:000048AF 16265 0001:000048B1 16266 0001:000048B2 16493 0001:000048B4
 16494 0001:000048B7 16495 0001:000048C4 16496 0001:000048CE 16498 0001:000048D4
 16499 0001:000048D6 16670 0001:000048DC 16671 0001:000048E6 16673 0001:000048EC
 16674 0001:000048FF 16675 0001:0000490D 16676 0001:00004911 16678 0001:00004917
 16679 0001:0000491A 16685 0001:00004924 16686 0001:0000492A 16688 0001:0000492E
 16692 0001:0000493D 16693 0001:00004944 16695 0001:00004945 16686 0001:00004947
 16698 0001:0000494B 16774 0001:0000494C 16776 0001:0000494E 16775 0001:00004954
 16777 0001:0000495F 16787 0001:00004960 16788 0001:00004972 16789 0001:00004978
 16790 0001:00004984 16792 0001:00004988 16793 0001:00004995 16796 0001:000049AF
 16797 0001:000049C3 16801 0001:000049C8 16803 0001:000049D0 16804 0001:000049DD
 16805 0001:000049EA 16806 0001:000049F3 16807 0001:000049FD 16809 0001:00004A08
 16811 0001:00004A0E 16812 0001:00004A13 16815 0001:00004A2C 16816 0001:00004A36
 16817 0001:00004A4B 16819 0001:00004A5C 16820 0001:00004A71 16821 0001:00004A76
 16823 0001:00004A7C 16824 0001:00004A95 16825 0001:00004A9D 16826 0001:00004ABC
 16827 0001:00004ACB 16813 0001:00004ACD 16829 0001:00004AD6 16830 0001:00004AED
 16831 0001:00004B18 16832 0001:00004B26 16833 0001:00004B39 16834 0001:00004B3D
 16837 0001:00004B9B 16838 0001:00004BA9 16839 0001:00004BB0 16840 0001:00004BC0
 16841 0001:00004BE0 16842 0001:00004BFE 16843 0001:00004C02 16845 0001:00004C13
 16847 0001:00004C24 16848 0001:00004C39 16849 0001:00004C4C 16850 0001:00004C4E
 16852 0001:00004C6B 16853 0001:00004C83 16854 0001:00004C93 16856 0001:00004CA1
 16858 0001:00004CA2 16860 0001:00004CA8 16861 0001:00004CBE 16863 0001:00004CD0
 16866 0001:00004CDA 16867 0001:00004CF6 16868 0001:00004D08 16871 0001:00004D0C
 16872 0001:00004D10 16873 0001:00004D2C 16878 0001:00004D40 16917 0001:00004D88
 16918 0001:00004D8D 16922 0001:00004D90 16923 0001:00004D95 16928 0001:00004D98
 16929 0001:00004D9B 16930 0001:00004DA5 16931 0001:00004DAD 16932 0001:00004DB0
 16933 0001:00004DB5 16938 0001:00004DB8 16939 0001:00004DBA 16940 0001:00004DC0
 16942 0001:00004DCB 16943 0001:00004DD7 16946 0001:00004DE6 16947 0001:00004DE8
 16949 0001:00004DEC 16951 0001:00004DF9 16952 0001:00004DFB 16953 0001:00004DFF
 16954 0001:00004E0B 16956 0001:00004E0D 16947 0001:00004E0F 16959 0001:00004E13
 16964 0001:00004E18 16965 0001:00004E24 16966 0001:00004E2C 16968 0001:00004E32
 16969 0001:00004E40 16972 0001:00004E58 16973 0001:00004E5D 16966 0001:00004E65
 16978 0001:00004E6B 16982 0001:00004E74 16983 0001:00004E7C 16984 0001:00004E81
 16989 0001:00004E84 16990 0001:00004E8B 16991 0001:00004E99 16993 0001:00004EB1
 16994 0001:00004EBC 16997 0001:00004EC8 16998 0001:00004ECD 17000 0001:00004ED1
 17002 0001:00004ED8 17003 0001:00004EDF 17005 0001:00004EE1 16998 0001:00004EE3
 17009 0001:00004EEF 17026 0001:00004EF4 17027 0001:00004EF6 17028 0001:00004EF8
 17029 0001:00004EFA 17030 0001:00004F00 17031 0001:00004F01 17032 0001:00004F02
 17033 0001:00004F04 17034 0001:00004F07 17036 0001:00004F08 17069 0001:00004F0C
 17070 0001:00004F0E 17071 0001:00004F10 17072 0001:00004F11 17073 0001:00004F12
 17074 0001:00004F14 17075 0001:00004F15 17076 0001:00004F18 17077 0001:00004F19
 17078 0001:00004F1B 17079 0001:00004F1D 17080 0001:00004F1F 17081 0001:00004F21
 17083 0001:00004F22 17084 0001:00004F24 17085 0001:00004F25 17086 0001:00004F28
 17090 0001:00004F29 17091 0001:00004F2B 17092 0001:00004F2D 17093 0001:00004F2F
 17094 0001:00004F31 17095 0001:00004F33 17096 0001:00004F34 17098 0001:00004F37
 17148 0001:00004F38 17149 0001:00004F42 17154 0001:00004F44 17155 0001:00004F4D
 17159 0001:00004F50 17160 0001:00004F56 17161 0001:00004F5D 17167 0001:00004F60
 17168 0001:00004F65 17169 0001:00004F6C 17172 0001:00004F70 17173 0001:00004F77
 17174 0001:00004F88 17176 0001:00004F8C 17177 0001:00004F91 17180 0001:00004F98
 17181 0001:00004F9E 17182 0001:00004FA7 17185 0001:00004FAC 17186 0001:00004FB4
 17187 0001:00004FBF 17188 0001:00004FC3 17189 0001:00004FCE 17328 0001:00004FD4
 17329 0001:00004FE2 17330 0001:00004FE4 17331 0001:00004FEE 17332 0001:00004FF0
 17333 0001:00004FF2 17337 0001:00004FFC 17338 0001:00005003 17339 0001:00005004
 17341 0001:00005009 17342 0001:0000500C 17344 0001:0000500F 17346 0001:00005017
 17348 0001:0000501F 17349 0001:0000502A 17350 0001:00005039 17351 0001:00005043
 17355 0001:00005048 17357 0001:00005050 17358 0001:0000505B 17359 0001:00005065
 17335 0001:00005068 17362 0001:00005072 17363 0001:0000507B 17367 0001:00005081
 17369 0001:00005086 17370 0001:0000508D 17371 0001:0000508E 17373 0001:00005093
 17374 0001:0000509B 17375 0001:0000509C 17377 0001:0000509D 17367 0001:0000509E
 17380 0001:000050A3 17381 0001:000050A8 17399 0001:000050B0 17400 0001:000050C1
 17402 0001:000050C7 17403 0001:000050CC 17405 0001:000050D1 17406 0001:000050D8
 17407 0001:000050DA 17408 0001:000050DC 17412 0001:000050EB 17413 0001:000050F3
 17414 0001:000050F4 17416 0001:000050F9 17417 0001:00005102 17418 0001:00005105
 17420 0001:0000510A 17421 0001:00005110 17422 0001:00005111 17423 0001:0000511F
 17424 0001:00005128 17426 0001:00005138 17427 0001:0000513E 17428 0001:0000513F
 17430 0001:0000514D 17433 0001:00005165 17434 0001:0000516C 17410 0001:0000516D
 17436 0001:0000517B 17437 0001:00005184 17441 0001:0000518F 17443 0001:00005194
 17444 0001:0000519A 17445 0001:0000519B 17447 0001:000051A0 17448 0001:000051A5
 17449 0001:000051A8 17451 0001:000051AD 17452 0001:000051B3 17453 0001:000051B4
 17454 0001:000051BC 17456 0001:000051C1 17457 0001:000051C7 17458 0001:000051C8
 17460 0001:000051D0 17441 0001:000051D1 17463 0001:000051D6 17464 0001:000051DD
 17470 0001:000051E8 17471 0001:00005201 17472 0001:00005208 17473 0001:00005213
 17475 0001:00005225 17476 0001:0000524E 17477 0001:00005252 17479 0001:0000525F
 17480 0001:00005267 17481 0001:0000528E 17487 0001:00005294 17488 0001:000052AD
 17489 0001:000052B4 17490 0001:000052B8 17492 0001:000052C9 17493 0001:000052F2
 17494 0001:000052F6 17496 0001:00005303 17497 0001:0000530B 17498 0001:00005332
 17501 0001:00005338 17502 0001:00005351 17503 0001:00005382 17776 0001:00005388
 17777 0001:00005394 17778 0001:00005398 17779 0001:000053A1 17783 0001:000053CB
 17784 0001:000053D5 17898 0001:000053E0 17899 0001:000053FA 17900 0001:0000540B
 17901 0001:00005428 17902 0001:0000542E 17903 0001:0000544F 17965 0001:00005454
 17966 0001:00005477 17967 0001:00005481 17972 0001:0000548B 17974 0001:000054A5
 17914 0001:000054A8 17919 0001:000054B5 17921 0001:000054BC 17922 0001:000054C6
 17931 0001:000054D0 17934 0001:000054D7 17937 0001:000054E1 17939 0001:000054EF
 17941 0001:000054F4 17942 0001:000054FD 17943 0001:00005506 17946 0001:0000550F
 17947 0001:00005519 17950 0001:00005523 17952 0001:00005534 17953 0001:00005544
 17956 0001:00005550 17960 0001:00005561 17962 0001:00005570 17964 0001:0000557A

Line numbers for SysInit(SysInit.pas) segment .text

   102 0001:0000557C   105 0001:00005584   108 0001:0000558C   111 0001:00005594
   114 0001:0000559C   117 0001:000055A4   128 0001:000055AC   129 0001:000055B4
   285 0001:000055B8   286 0001:000055BD   293 0001:000055C0   294 0001:000055C1
   295 0001:000055C8   299 0001:000055CC   300 0001:000055DF   301 0001:000055E6
   302 0001:000055EA   304 0001:000055F6   305 0001:00005602   310 0001:00005604
   312 0001:0000560D   313 0001:00005617   314 0001:0000561C   315 0001:0000562C
   321 0001:00005630   323 0001:00005639   324 0001:00005642   325 0001:0000564D
   326 0001:00005651   328 0001:00005657   332 0001:00005658   334 0001:00005661
   335 0001:00005666   336 0001:0000566F   337 0001:0000567A   359 0001:0000567C
   360 0001:00005682   361 0001:00005687   362 0001:00005689   363 0001:0000568B
   364 0001:00005692   365 0001:00005695   368 0001:00005696   369 0001:0000569B
   370 0001:000056A0   371 0001:000056A1   372 0001:000056A6   373 0001:000056A8
   374 0001:000056AA   377 0001:000056AB   378 0001:000056B0   381 0001:000056B1
   382 0001:000056B2   383 0001:000056B7   384 0001:000056B9   385 0001:000056BB
   423 0001:000056BC   424 0001:000056C6   556 0001:000056C8   557 0001:000056CD
   558 0001:000056D1   560 0001:000056D3   561 0001:000056D4   562 0001:000056D5
   563 0001:000056DC   564 0001:000056DF   565 0001:000056E5   566 0001:000056E8
   567 0001:000056EF   568 0001:000056F6   569 0001:000056FB   570 0001:000056FC
   573 0001:000056FD   574 0001:00005703   575 0001:00005708   576 0001:0000570D
   840 0001:00005740   840 0001:00005747

Line numbers for Types(Types.pas) segment .text

   545 0001:00005778   545 0001:0000577F

Line numbers for Windows(Windows.pas) segment .text

 28478 0001:00005780 28485 0001:00005788 28503 0001:00005790 28512 0001:00005798
 28524 0001:000057A0 28540 0001:000057A8 28601 0001:000057B0 28607 0001:000057B8
 28614 0001:000057C0 28621 0001:000057C8 28627 0001:000057D0 28631 0001:000057D8
 28634 0001:000057E0 28696 0001:000057E8 28699 0001:000057F0 28702 0001:000057F8
 28714 0001:00005800 28717 0001:00005808 28751 0001:00005810 28752 0001:00005818
 28761 0001:00005820 28766 0001:00005828 28785 0001:00005830 28786 0001:00005838
 28791 0001:00005840 28798 0001:00005848 28801 0001:00005850 28802 0001:00005858
 28805 0001:00005860 28810 0001:00005868 28817 0001:00005870 28847 0001:00005878
 28850 0001:00005880 28851 0001:00005888 28858 0001:00005890 28876 0001:00005898
 28877 0001:000058A0 28884 0001:000058A8 28887 0001:000058B0 28892 0001:000058B8
 28893 0001:000058C0 28894 0001:000058C8 28902 0001:000058D0 28905 0001:000058D8
 28929 0001:000058E0 28932 0001:000058E8 28957 0001:000058F0 28958 0001:000058F8
 28965 0001:00005900 28968 0001:00005908 28976 0001:00005910 28979 0001:00005918
 28983 0001:00005920 28988 0001:00005928 28996 0001:00005930 28999 0001:00005938
 29008 0001:00005940 29016 0001:00005948 29020 0001:00005950 29021 0001:00005958
 29023 0001:00005960 29027 0001:00005968 29042 0001:00005970 29048 0001:00005978
 29057 0001:00005980 29062 0001:00005988 29065 0001:00005990 29091 0001:00005998
 29103 0001:000059A0 29138 0001:000059A8 29139 0001:000059B0 29160 0001:000059B8
 29162 0001:000059C0 29169 0001:000059C8 29170 0001:000059D0 29201 0001:000059D8
 29207 0001:000059E0 29212 0001:000059E8 29218 0001:000059F0 29222 0001:000059F8
 29257 0001:00005A00 29285 0001:00005A08 29287 0001:00005A10 29289 0001:00005A18
 29293 0001:00005A20 29300 0001:00005A28 29302 0001:00005A30 29305 0001:00005A38
 29307 0001:00005A40 29312 0001:00005A48 29327 0001:00005A50 29332 0001:00005A58
 29335 0001:00005A60 29438 0001:00005A68 29441 0001:00005A70 29450 0001:00005A78
 29904 0001:00005A80 29922 0001:00005A88 29925 0001:00005A90 29936 0001:00005A98
 29944 0001:00005AA0 30083 0001:00005AA8 30103 0001:00005AB0 30207 0001:00005AB8
 30315 0001:00005AC0 30332 0001:00005AC8 30345 0001:00005AD0 30369 0001:00005AD8
 30417 0001:00005AE0 30493 0001:00005AE8 30528 0001:00005AF0 30580 0001:00005AF8
 30581 0001:00005B06 30582 0001:00005B19 30585 0001:00005B20 30586 0001:00005B29
 30587 0001:00005B37 30646 0001:00005B3C 30647 0001:00005B48 30648 0001:00005B55
 30698 0001:00005B5C 30699 0001:00005B5D 30700 0001:00005B5E 30701 0001:00005B63
 30702 0001:00005B64 30703 0001:00005B69 30708 0001:00005B6C 30709 0001:00005B6D
 30710 0001:00005B6E 30711 0001:00005B6F 30712 0001:00005B74 30713 0001:00005B75
 30714 0001:00005B76 30715 0001:00005B7B 30716 0001:00005B80 30717 0001:00005B81
 30718 0001:00005B86 30722 0001:00005B88 30723 0001:00005B89 30724 0001:00005B8E
 30725 0001:00005B8F 30726 0001:00005B90 30727 0001:00005B95 30728 0001:00005B9A
 31082 0001:00005BCC 31082 0001:00005BD3

Line numbers for Messages(Messages.pas) segment .text

  1848 0001:00005C04  1848 0001:00005C0B

Line numbers for SysConst(SysConst.pas) segment .text

   183 0001:00005F4C   183 0001:00005F53

Line numbers for SysUtils(sysutils.pas) segment .text

  3104 0001:00006AE8  3168 0001:00006BD8  3169 0001:00006BDB  3170 0001:00006BDC
  3171 0001:00006BDE  3172 0001:00006BE0  3173 0001:00006BE3  3174 0001:00006BE6
  3175 0001:00006BE9  3176 0001:00006BEC  3177 0001:00006BEF  3178 0001:00006BF0
  3190 0001:00006BF4  3191 0001:00006BFB  3192 0001:00006C0F  3195 0001:00006C14
  3196 0001:00006C23  3197 0001:00006C3F  3381 0001:00006C44  3382 0001:00006C4D
  3383 0001:00006C58  3384 0001:00006C68  3459 0001:00006C6C  3460 0001:00006C78
  3461 0001:00006C83  3462 0001:00006C8E  3463 0001:00006C94  3464 0001:00006C9C
  3466 0001:00006CA2  3467 0001:00006CAA  3468 0001:00006CBA  3469 0001:00006CC2
  3470 0001:00006CC5  3471 0001:00006CC8  3464 0001:00006CCB  3473 0001:00006CD1
  3480 0001:00006CD8  3481 0001:00006CE4  3482 0001:00006CEF  3483 0001:00006CFA
  3484 0001:00006D00  3485 0001:00006D08  3487 0001:00006D0E  3488 0001:00006D16
  3489 0001:00006D26  3490 0001:00006D2E  3491 0001:00006D31  3492 0001:00006D34
  3485 0001:00006D37  3494 0001:00006D3D  3545 0001:00006D44  3546 0001:00006D45
  3547 0001:00006D46  3548 0001:00006D47  3549 0001:00006D49  3550 0001:00006D4B
  3551 0001:00006D4D  3552 0001:00006D4F  3553 0001:00006D52  3554 0001:00006D54
  3555 0001:00006D56  3556 0001:00006D59  3557 0001:00006D5B  3558 0001:00006D5D
  3559 0001:00006D5F  3560 0001:00006D61  3561 0001:00006D63  3562 0001:00006D65
  3563 0001:00006D67  3564 0001:00006D6A  3565 0001:00006D6D  3566 0001:00006D6F
  3567 0001:00006D72  3568 0001:00006D74  3569 0001:00006D77  3570 0001:00006D7A
  3571 0001:00006D7D  3572 0001:00006D7F  3573 0001:00006D82  3574 0001:00006D84
  3575 0001:00006D87  3576 0001:00006D89  3577 0001:00006D8B  3578 0001:00006D8E
  3579 0001:00006D91  3580 0001:00006D93  3581 0001:00006D94  3582 0001:00006D95
  3583 0001:00006D96  3587 0001:00006D98  3588 0001:00006D9A  3589 0001:00006D9C
  3590 0001:00006D9E  3591 0001:00006DA0  3592 0001:00006DA2  3593 0001:00006DA4
  3594 0001:00006DA7  3595 0001:00006DAA  3596 0001:00006DAC  3597 0001:00006DB1
  3598 0001:00006DB3  3599 0001:00006DB5  3600 0001:00006DB7  3601 0001:00006DB8
  3602 0001:00006DBA  3608 0001:00006DBC  3609 0001:00006DC8  3610 0001:00006DD3
  3611 0001:00006DE8  3612 0001:00006DFD  3624 0001:00006E04  3625 0001:00006E10
  3626 0001:00006E1B  3627 0001:00006E30  3628 0001:00006E45  3637 0001:00006E4C
  3639 0001:00006E58  3649 0001:00006E91  3657 0001:00006E98  3659 0001:00006EA4
  3665 0001:00006EDD  3668 0001:00006EE4  3669 0001:00006EF0  3670 0001:00006F04
  3959 0001:00006F08  3960 0001:00006F14  3961 0001:00006F1F  3962 0001:00006F28
  3963 0001:00006F40  3965 0001:00006F52  3966 0001:00006F62  3968 0001:00006F78
  3989 0001:00006F7C  3990 0001:00006F88  3991 0001:00006F93  3992 0001:00006F9C
  3993 0001:00006FB4  3994 0001:00006FC8  4009 0001:00006FCC  4010 0001:00006FD8
  4011 0001:00006FE5  4012 0001:00006FFB  4013 0001:0000700F  4213 0001:00007014
  4214 0001:0000701D  4215 0001:00007021  4216 0001:00007042  4217 0001:00007082
  4218 0001:00007089  4231 0001:00007090  4232 0001:00007092  4233 0001:00007094
  4234 0001:00007096  4235 0001:00007098  4236 0001:0000709A  4237 0001:0000709F
  4238 0001:000070A1  4239 0001:000070A2  4240 0001:000070A3  4241 0001:000070A5
  4242 0001:000070A6  4245 0001:000070AB  4246 0001:000070AC  4247 0001:000070AD
  4248 0001:000070AF  4249 0001:000070B1  4250 0001:000070B2  4251 0001:000070B5
  4252 0001:000070B8  4253 0001:000070BA  4254 0001:000070BD  4255 0001:000070BF
  4256 0001:000070C1  4257 0001:000070C3  4258 0001:000070C4  4259 0001:000070C5
  4260 0001:000070C7  4261 0001:000070C9  4262 0001:000070CB  4263 0001:000070CD
  4264 0001:000070CF  4265 0001:000070D1  4266 0001:000070D3  4267 0001:000070D6
  4268 0001:000070D7  4269 0001:000070D9  4271 0001:000070DB  4331 0001:000070DC
  4332 0001:000070DD  4333 0001:000070DF  4334 0001:000070E2  4335 0001:000070E4
  4336 0001:000070E5  4337 0001:000070E7  4338 0001:000070EC  4339 0001:000070EE
  4340 0001:000070EF  4341 0001:000070F4  4342 0001:000070F7  4343 0001:000070F8
  4459 0001:000070FC  4460 0001:000070FE  4461 0001:00007100  4462 0001:00007105
  4463 0001:0000710C  4464 0001:0000710E  4465 0001:00007111  4466 0001:00007113
  4467 0001:00007115  4468 0001:00007118  4469 0001:0000711D  4470 0001:00007121
  4471 0001:00007126  4472 0001:0000712A  4473 0001:0000712B  4474 0001:0000712C
  4475 0001:0000712F  4478 0001:00007130  4479 0001:00007131  4480 0001:00007134
  4481 0001:00007138  4482 0001:0000713B  4483 0001:00007141  4485 0001:00007144
  4486 0001:00007148  4487 0001:0000714A  4488 0001:00007151  4489 0001:00007153
  4490 0001:00007156  4491 0001:00007158  4492 0001:00007160  4493 0001:00007165
  4494 0001:0000716A  4495 0001:0000716E  4496 0001:00007171  4497 0001:00007173
  4498 0001:00007175  4499 0001:00007178  4501 0001:0000717A  4503 0001:0000717C
  4504 0001:0000717F  4506 0001:00007181  4507 0001:00007182  4508 0001:00007184
  4509 0001:00007187  4510 0001:00007189  4511 0001:0000718C  4512 0001:0000718E
  4513 0001:00007190  4514 0001:00007192  4516 0001:00007194  4517 0001:00007196
  4518 0001:00007198  4519 0001:0000719A  4520 0001:0000719D  4521 0001:0000719E
  4523 0001:000071A0  4524 0001:000071A4  4526 0001:000071A7  4527 0001:000071A9
  4528 0001:000071AB  4529 0001:000071AD  4531 0001:000071AF  4532 0001:000071B0
  4533 0001:000071B2  4534 0001:000071B4  4535 0001:000071B6  4536 0001:000071B8
  4537 0001:000071BA  4538 0001:000071BC  4539 0001:000071BE  4540 0001:000071C1
  4541 0001:000071C2  4542 0001:000071C4  4544 0001:000071C6  4548 0001:000071C8
  4549 0001:000071CB  4550 0001:000071CC  4551 0001:000071CE  4552 0001:000071D1
  4553 0001:000071D3  4554 0001:000071D4  4555 0001:000071D6  4556 0001:000071D9
  4558 0001:000071DE  4559 0001:000071E0  4560 0001:000071E1  4561 0001:000071E6
  4562 0001:000071E9  4563 0001:000071EA  4568 0001:000071F0  4569 0001:000071F3
  4570 0001:000071F5  4571 0001:000071F7  4572 0001:000071F8  4573 0001:000071FA
  4574 0001:000071FD  4575 0001:000071FE  4576 0001:00007203  4577 0001:00007208
  4578 0001:0000720A  4579 0001:0000720B  4580 0001:00007210  4581 0001:00007213
  4582 0001:00007214  4586 0001:00007218  4587 0001:0000721B  4588 0001:0000721E
  4589 0001:00007220  4590 0001:00007222  4591 0001:00007223  4592 0001:00007225
  4593 0001:00007228  4594 0001:0000722D  4595 0001:0000722E  4596 0001:00007230
  4597 0001:00007233  4599 0001:00007238  4600 0001:0000723A  4601 0001:0000723B
  4602 0001:00007240  4603 0001:00007243  4604 0001:00007244  4609 0001:00007248
  4610 0001:00007251  4611 0001:0000725F  4612 0001:00007281  4617 0001:00007288
  4618 0001:00007294  4619 0001:000072A2  4620 0001:000072B1  4625 0001:000072B8
  4626 0001:000072C4  4627 0001:000072D4  4628 0001:000072DF  4655 0001:000072E4
  4656 0001:000072E7  4658 0001:000072F5  4659 0001:0000730F  4661 0001:0000731E
  4663 0001:0000732C  4664 0001:00007346  4666 0001:00007355  4684 0001:00007378
  4685 0001:00007384  4686 0001:00007388  4687 0001:0000739A  4689 0001:000073B2
  4690 0001:000073B6  4691 0001:000073B8  4686 0001:000073BB  4692 0001:000073C3
  4695 0001:000073C8  4696 0001:000073D4  4697 0001:000073E2  4698 0001:000073E8
  4701 0001:000073FC  4702 0001:00007401  4703 0001:0000741C  4704 0001:00007422
  4707 0001:0000742A  4708 0001:00007445  4709 0001:0000744B  4712 0001:00007454
  4717 0001:00007474  4718 0001:00007483  4720 0001:00007489  4721 0001:0000748E
  4722 0001:00007494  4724 0001:000074A6  4727 0001:000074B8  4728 0001:000074CC
  4801 0001:000074D0  4802 0001:000074DC  4803 0001:000074E3  4805 0001:000074FB
  4808 0001:0000753B  4855 0001:00007540  4856 0001:00007549  4858 0001:0000756F
  4868 0001:00007574  4869 0001:00007580  4870 0001:0000758E  4879 0001:00007594
  4881 0001:000075A3  4882 0001:000075BE  4887 0001:000075C8  4890 0001:000075CC
  4892 0001:000075DB  4893 0001:000075F6  4898 0001:00007600  4912 0001:00007604
  4913 0001:00007610  4914 0001:0000761C  4916 0001:0000763A  4928 0001:00007640
  4930 0001:00007647  4935 0001:00007650  4943 0001:00007654  4944 0001:00007660
  4945 0001:00007678  4947 0001:0000767E  4948 0001:00007687  4950 0001:00007690
  4951 0001:000076A0  4955 0001:000076B5  4956 0001:000076BF  4971 0001:000076C4
  4972 0001:000076CD  4973 0001:000076DD  4995 0001:000076E4  4996 0001:000076ED
  4997 0001:000076FE  4998 0001:00007716  5004 0001:0000771C  5005 0001:00007746
  5006 0001:0000774A  5008 0001:00007750  5009 0001:00007765  5010 0001:0000776F
  5012 0001:00007777  5014 0001:0000778D  5020 0001:000077BE  5021 0001:00007817
  5348 0001:0000781C  5349 0001:00007828  5350 0001:00007833  5351 0001:0000783E
  5353 0001:00007844  5355 0001:00007867  5356 0001:00007876  5368 0001:00007879
  5351 0001:0000787C  5370 0001:00007885  5375 0001:0000788C  5376 0001:000078AF
  5377 0001:000078BF  5378 0001:000078D9  5379 0001:00007919  5384 0001:0000792C
  5385 0001:00007938  5386 0001:00007948  5387 0001:0000795C  5392 0001:0000796C
  5393 0001:00007978  5394 0001:00007988  5395 0001:000079B0  5396 0001:000079B3
  5397 0001:000079C7  5430 0001:000079D8  5431 0001:000079E4  5432 0001:000079F4
  5433 0001:00007A09  5438 0001:00007A1C  5439 0001:00007A28  5440 0001:00007A38
  5441 0001:00007A4B  5442 0001:00007A61  5443 0001:00007A69  5450 0001:00007A7C
  5451 0001:00007A8B  5453 0001:00007AB9  5851 0001:00007AC0  5852 0001:00007AC6
  5853 0001:00007ACC  5855 0001:00007AD4  5856 0001:00007AD9  5858 0001:00007AF5
  5859 0001:00007B03  5860 0001:00007B1D  5861 0001:00007B3A  5970 0001:00007B40
  5972 0001:00007B49  5977 0001:00007B63  5980 0001:00007B68  5982 0001:00007B71
  5987 0001:00007B8D  6003 0001:00007B94  6004 0001:00007B96  6005 0001:00007B98
  6006 0001:00007B9D  6007 0001:00007B9F  6008 0001:00007BA1  6009 0001:00007BA6
  6010 0001:00007BA8  6011 0001:00007BAA  6025 0001:00007BAC  6026 0001:00007BBB
  6027 0001:00007BC1  6028 0001:00007BD2  6078 0001:00007BD8  6079 0001:00007BD9
  6080 0001:00007BDA  6081 0001:00007BDB  6082 0001:00007BDD  6083 0001:00007BDF
  6084 0001:00007BE1  6085 0001:00007BE3  6086 0001:00007BE5  6087 0001:00007BE7
  6088 0001:00007BE9  6089 0001:00007BEB  6090 0001:00007BEC  6091 0001:00007BEE
  6092 0001:00007BF0  6093 0001:00007BF2  6094 0001:00007BF4  6095 0001:00007BF6
  6096 0001:00007BF9  6097 0001:00007BFB  6098 0001:00007BFD  6099 0001:00007C00
  6100 0001:00007C02  6101 0001:00007C03  6102 0001:00007C05  6103 0001:00007C06
  6104 0001:00007C07  6105 0001:00007C08  6224 0001:00007C0C  6225 0001:00007C0D
  6226 0001:00007C0E  6227 0001:00007C0F  6228 0001:00007C11  6229 0001:00007C13
  6230 0001:00007C15  6231 0001:00007C17  6232 0001:00007C19  6233 0001:00007C1B
  6234 0001:00007C1D  6235 0001:00007C1F  6236 0001:00007C21  6237 0001:00007C23
  6238 0001:00007C25  6239 0001:00007C27  6240 0001:00007C29  6241 0001:00007C2C
  6242 0001:00007C2E  6243 0001:00007C30  6244 0001:00007C32  6245 0001:00007C34
  6246 0001:00007C36  6247 0001:00007C39  6248 0001:00007C3C  6249 0001:00007C3E
  6250 0001:00007C41  6251 0001:00007C43  6252 0001:00007C46  6253 0001:00007C48
  6254 0001:00007C4A  6255 0001:00007C4B  6256 0001:00007C4C  6257 0001:00007C4D
  6260 0001:00007C50  6261 0001:00007C5C  6264 0001:00007C64  6266 0001:00007C6C
  6267 0001:00007C71  6269 0001:00007C73  6262 0001:00007C76  6271 0001:00007C83
  6300 0001:00007C88  6301 0001:00007C89  6302 0001:00007C8A  6303 0001:00007C8B
  6304 0001:00007C8D  6305 0001:00007C8F  6306 0001:00007C91  6307 0001:00007C93
  6308 0001:00007C95  6309 0001:00007C97  6310 0001:00007C99  6311 0001:00007C9E
  6312 0001:00007CA0  6313 0001:00007CA2  6314 0001:00007CA3  6315 0001:00007CA5
  6316 0001:00007CA7  6317 0001:00007CA9  6318 0001:00007CAE  6319 0001:00007CB0
  6320 0001:00007CB2  6321 0001:00007CB4  6322 0001:00007CB6  6323 0001:00007CB8
  6324 0001:00007CBB  6325 0001:00007CBD  6326 0001:00007CBE  6327 0001:00007CC0
  6328 0001:00007CC2  6329 0001:00007CC4  6330 0001:00007CC5  6331 0001:00007CC7
  6332 0001:00007CC9  6333 0001:00007CCA  6334 0001:00007CCC  6335 0001:00007CCE
  6336 0001:00007CD1  6337 0001:00007CD3  6338 0001:00007CD5  6339 0001:00007CD6
  6340 0001:00007CD7  6341 0001:00007CD8  6387 0001:00007CDC  6388 0001:00007CE5
  6389 0001:00007CE9  6390 0001:00007CF4  6391 0001:00007CFC  6392 0001:00007D03
  6406 0001:00007D08  6407 0001:00007D11  6409 0001:00007D1E  6410 0001:00007D2A
  6412 0001:00007D43  6431 0001:00007D48  6432 0001:00007D57  6433 0001:00007D64
  6434 0001:00007D77  6435 0001:00007D85  6436 0001:00007D8D  6437 0001:00007DAB
  6440 0001:00007DB0  6441 0001:00007DBD  6442 0001:00007DC7  6444 0001:00007DD9
  6445 0001:00007DE0  6448 0001:00007DE8  6449 0001:00007DEF  6450 0001:00007DF7
  6455 0001:00007DFC  6456 0001:00007E0B  6458 0001:00007E2F  6473 0001:00007E38
  6474 0001:00007E44  6475 0001:00007E45  6476 0001:00007E46  6477 0001:00007E47
  6478 0001:00007E49  6484 0001:00007E4B  6486 0001:00007E4D  6487 0001:00007E50
  6488 0001:00007E53  6489 0001:00007E56  6490 0001:00007E58  6491 0001:00007E5B
  6492 0001:00007E5E  6495 0001:00007E61  6496 0001:00007E63  6499 0001:00007E65
  6500 0001:00007E67  6501 0001:00007E69  6502 0001:00007E6A  6503 0001:00007E6C
  6506 0001:00007E6E  6507 0001:00007E6F  6508 0001:00007E70  6511 0001:00007E72
  6512 0001:00007E74  6513 0001:00007E77  6516 0001:00007E7C  6517 0001:00007E7E
  6518 0001:00007E80  6519 0001:00007E81  6520 0001:00007E83  6521 0001:00007E85
  6522 0001:00007E88  6523 0001:00007E8B  6524 0001:00007E8E  6525 0001:00007E90
  6526 0001:00007E92  6527 0001:00007E94  6528 0001:00007E96  6529 0001:00007E97
  6530 0001:00007E9C  6531 0001:00007E9E  6532 0001:00007EA0  6533 0001:00007EA3
  6534 0001:00007EA5  6535 0001:00007EA7  6536 0001:00007EA8  6538 0001:00007EAA
  6539 0001:00007EAD  6540 0001:00007EB2  6541 0001:00007EB4  6542 0001:00007EB6
  6543 0001:00007EB8  6544 0001:00007EBA  6545 0001:00007EBB  6546 0001:00007EC0
  6547 0001:00007EC3  6548 0001:00007EC6  6549 0001:00007EC7  6551 0001:00007EC8
  6553 0001:00007ECD  6554 0001:00007ECE  6555 0001:00007ED1  6556 0001:00007ED3
  6557 0001:00007ED5  6559 0001:00007ED7  6560 0001:00007EDB  6561 0001:00007EDD
  6562 0001:00007EDF  6563 0001:00007EE1  6564 0001:00007EE3  6566 0001:00007EE5
  6568 0001:00007EE7  6569 0001:00007EE9  6570 0001:00007EEB  6571 0001:00007EED
  6572 0001:00007EEF  6573 0001:00007EF1  6574 0001:00007EF3  6575 0001:00007EF5
  6576 0001:00007EF7  6577 0001:00007EF9  6578 0001:00007EFB  6579 0001:00007EFD
  6580 0001:00007EFF  6581 0001:00007F01  6582 0001:00007F05  6583 0001:00007F07
  6584 0001:00007F08  6587 0001:00007F0B  6589 0001:00007F10  6590 0001:00007F11
  6591 0001:00007F12  6592 0001:00007F15  6595 0001:00007F1A  6596 0001:00007F1C
  6597 0001:00007F1E  6598 0001:00007F20  6599 0001:00007F22  6600 0001:00007F24
  6601 0001:00007F26  6602 0001:00007F28  6603 0001:00007F2E  6604 0001:00007F30
  6605 0001:00007F33  6606 0001:00007F35  6607 0001:00007F37  6608 0001:00007F39
  6609 0001:00007F3A  6610 0001:00007F3C  6611 0001:00007F3D  6612 0001:00007F42
  6613 0001:00007F45  6614 0001:00007F48  6615 0001:00007F4A  6616 0001:00007F4D
  6617 0001:00007F50  6618 0001:00007F55  6619 0001:00007F58  6620 0001:00007F5A
  6621 0001:00007F5C  6622 0001:00007F5E  6623 0001:00007F60  6624 0001:00007F61
  6627 0001:00007F62  6628 0001:00007F64  6629 0001:00007F66  6630 0001:00007F6B
  6631 0001:00007F6E  6632 0001:00007F71  6633 0001:00007F73  6634 0001:00007F76
  6635 0001:00007F79  6636 0001:00007F7C  6637 0001:00007F7E  6645 0001:00007F82
  6649 0001:00007F89  6650 0001:00007F8D  6651 0001:00007F91  6652 0001:00007F95
  6653 0001:00007F99  6654 0001:00007F9D  6655 0001:00007FA1  6656 0001:00007FA5
  6657 0001:00007FA9  6658 0001:00007FAD  6659 0001:00007FB1  6660 0001:00007FB5
  6661 0001:00007FB9  6662 0001:00007FBD  6663 0001:00007FC1  6664 0001:00007FC5
  6665 0001:00007FC9  6673 0001:00007FCD  6676 0001:00007FCF  6677 0001:00007FD4
  6678 0001:00007FD7  6679 0001:00007FDA  6697 0001:00007FDC  6698 0001:00007FDF
  6707 0001:00007FE4  6708 0001:00007FE7  6709 0001:00007FEA  6710 0001:00007FED
  6711 0001:00007FEF  6712 0001:00007FF1  6713 0001:00007FF3  6714 0001:00007FF6
  6715 0001:00007FFC  6716 0001:00008001  6717 0001:00008004  6718 0001:0000800A
  6719 0001:0000800F  6720 0001:00008012  6721 0001:00008018  6827 0001:0000801A
  6828 0001:0000801D  6829 0001:00008020  6830 0001:00008022  6831 0001:00008025
  6832 0001:00008027  6833 0001:00008029  6834 0001:0000802C  6835 0001:00008032
  6836 0001:00008037  6837 0001:0000803A  6838 0001:00008040  6839 0001:00008045
  6840 0001:00008048  6841 0001:0000804E  6891 0001:00008053  6892 0001:00008056
  6893 0001:0000805C  6894 0001:00008061  6897 0001:00008062  6898 0001:00008065
  6899 0001:0000806B  6900 0001:0000806F  6901 0001:00008071  6902 0001:00008073
  6905 0001:00008076  6907 0001:0000807B  6908 0001:0000807E  6911 0001:00008080
  6912 0001:00008082  6915 0001:00008083  6916 0001:00008086  6917 0001:0000808C
  6918 0001:0000808E  6919 0001:0000808F  6920 0001:00008092  6923 0001:00008094
  6924 0001:00008099  6927 0001:0000809B  6930 0001:000080A0  6934 0001:000080A3
  6935 0001:000080A6  6936 0001:000080AC  6937 0001:000080AE  6938 0001:000080B1
  6939 0001:000080B2  6940 0001:000080B5  6941 0001:000080B7  6942 0001:000080B8
  6943 0001:000080BB  6944 0001:000080BD  6947 0001:000080BF  6948 0001:000080C2
  6949 0001:000080C8  6952 0001:000080CA  6953 0001:000080CC  6954 0001:000080CE
  6957 0001:000080D1  6958 0001:000080D4  6959 0001:000080D6  6960 0001:000080D7
  6961 0001:000080DA  6964 0001:000080DB  6965 0001:000080DE  6966 0001:000080E4
  6967 0001:000080E6  6968 0001:000080E7  6969 0001:000080E9  6970 0001:000080EB
  6971 0001:000080EE  6972 0001:000080F0  6973 0001:000080F2  6974 0001:000080F4
  6975 0001:000080F5  6976 0001:000080F7  6977 0001:000080F9  6978 0001:000080FA
  6981 0001:000080FB  6982 0001:000080FE  6983 0001:00008104  6984 0001:00008109
  6985 0001:0000810E  6986 0001:00008111  6989 0001:00008116  6990 0001:00008118
  6993 0001:0000811A  6996 0001:0000811C  6997 0001:0000811E  6998 0001:00008120
  6999 0001:00008123  7000 0001:00008125  7001 0001:00008127  7002 0001:0000812A
  7003 0001:0000812C  7004 0001:0000812E  7005 0001:00008131  7006 0001:00008133
  7007 0001:00008135  7008 0001:00008138  7009 0001:0000813A  7010 0001:0000813D
  7011 0001:00008143  7012 0001:00008145  7013 0001:0000814A  7014 0001:0000814D
  7015 0001:0000814F  7016 0001:00008151  7017 0001:00008156  7018 0001:00008159
  7019 0001:0000815B  7020 0001:00008162  7021 0001:00008164  7022 0001:00008167
  7023 0001:0000816C  7024 0001:0000816F  7025 0001:00008171  7026 0001:00008176
  7027 0001:00008177  7028 0001:00008178  7029 0001:00008179  7030 0001:0000817C
  7031 0001:0000817E  7032 0001:00008181  7033 0001:00008184  7034 0001:00008189
  7035 0001:0000818B  7036 0001:0000818E  7039 0001:0000818F  7040 0001:00008190
  7041 0001:00008191  7042 0001:00008194  7043 0001:00008197  7044 0001:0000819C
  7045 0001:0000819D  7046 0001:0000819E  7049 0001:0000819F  7050 0001:000081A4
  7051 0001:000081A5  7052 0001:000081A6  7053 0001:000081A7  7069 0001:000081B0
  7070 0001:000081BC  7071 0001:000081BD  7072 0001:000081BE  7073 0001:000081BF
  7074 0001:000081C1  7080 0001:000081C3  7082 0001:000081C5  7083 0001:000081C8
  7084 0001:000081CB  7085 0001:000081CE  7086 0001:000081D0  7087 0001:000081D3
  7088 0001:000081D6  7091 0001:000081D9  7092 0001:000081DB  7095 0001:000081DD
  7096 0001:000081DF  7097 0001:000081E1  7098 0001:000081E2  7099 0001:000081E4
  7102 0001:000081E6  7103 0001:000081E7  7104 0001:000081E8  7107 0001:000081EA
  7108 0001:000081EC  7109 0001:000081EF  7112 0001:000081F4  7113 0001:000081F6
  7114 0001:000081F8  7115 0001:000081F9  7116 0001:000081FB  7117 0001:000081FD
  7118 0001:00008200  7119 0001:00008203  7120 0001:00008206  7121 0001:00008208
  7122 0001:0000820A  7123 0001:0000820C  7124 0001:0000820E  7125 0001:0000820F
  7126 0001:00008214  7127 0001:00008216  7128 0001:00008218  7129 0001:0000821B
  7130 0001:0000821D  7131 0001:0000821F  7132 0001:00008220  7134 0001:00008222
  7135 0001:00008225  7136 0001:0000822A  7137 0001:0000822C  7138 0001:0000822E
  7139 0001:00008230  7140 0001:00008232  7141 0001:00008233  7142 0001:00008238
  7143 0001:0000823B  7144 0001:0000823E  7145 0001:0000823F  7147 0001:00008240
  7149 0001:00008245  7150 0001:00008246  7151 0001:00008249  7152 0001:0000824B
  7153 0001:0000824D  7155 0001:0000824F  7156 0001:00008253  7157 0001:00008255
  7158 0001:00008257  7159 0001:00008259  7160 0001:0000825B  7162 0001:0000825D
  7164 0001:0000825F  7165 0001:00008261  7166 0001:00008263  7167 0001:00008265
  7168 0001:00008267  7169 0001:00008269  7170 0001:0000826B  7171 0001:0000826D
  7172 0001:0000826F  7173 0001:00008271  7174 0001:00008273  7175 0001:00008275
  7176 0001:00008277  7177 0001:00008279  7178 0001:0000827D  7179 0001:0000827F
  7180 0001:00008280  7183 0001:00008283  7185 0001:00008288  7186 0001:00008289
  7187 0001:0000828A  7188 0001:0000828D  7191 0001:00008292  7192 0001:00008294
  7193 0001:00008296  7194 0001:00008298  7195 0001:0000829A  7196 0001:0000829C
  7197 0001:0000829E  7198 0001:000082A0  7199 0001:000082A6  7200 0001:000082A8
  7201 0001:000082AB  7202 0001:000082AD  7203 0001:000082AF  7204 0001:000082B1
  7205 0001:000082B2  7206 0001:000082B4  7207 0001:000082B5  7208 0001:000082BA
  7209 0001:000082BD  7210 0001:000082C0  7211 0001:000082C2  7212 0001:000082C5
  7213 0001:000082C8  7214 0001:000082CD  7215 0001:000082D0  7216 0001:000082D2
  7217 0001:000082D4  7218 0001:000082D6  7219 0001:000082D8  7220 0001:000082D9
  7223 0001:000082DA  7224 0001:000082DC  7225 0001:000082DE  7226 0001:000082E3
  7227 0001:000082E6  7228 0001:000082E9  7229 0001:000082EB  7230 0001:000082EE
  7231 0001:000082F1  7232 0001:000082F4  7233 0001:000082F6  7241 0001:000082FA
  7245 0001:00008301  7246 0001:00008305  7247 0001:00008309  7248 0001:0000830D
  7249 0001:00008311  7250 0001:00008315  7251 0001:00008319  7252 0001:0000831D
  7253 0001:00008321  7254 0001:00008325  7255 0001:00008329  7256 0001:0000832D
  7257 0001:00008331  7258 0001:00008335  7259 0001:00008339  7260 0001:0000833D
  7261 0001:00008341  7269 0001:00008345  7272 0001:00008347  7273 0001:0000834C
  7274 0001:0000834F  7275 0001:00008352  7293 0001:00008354  7294 0001:00008357
  7303 0001:0000835C  7304 0001:0000835F  7305 0001:00008362  7306 0001:00008365
  7307 0001:00008367  7308 0001:00008369  7309 0001:0000836B  7310 0001:0000836E
  7311 0001:00008374  7312 0001:00008379  7313 0001:0000837C  7314 0001:00008382
  7315 0001:00008387  7316 0001:0000838A  7317 0001:00008390  7321 0001:00008392
  7322 0001:00008395  7323 0001:00008398  7324 0001:0000839A  7325 0001:0000839D
  7326 0001:0000839F  7327 0001:000083A1  7328 0001:000083A4  7329 0001:000083AA
  7330 0001:000083AF  7331 0001:000083B2  7332 0001:000083B8  7333 0001:000083BD
  7334 0001:000083C0  7335 0001:000083C6  7338 0001:000083CB  7339 0001:000083CE
  7340 0001:000083D4  7341 0001:000083D9  7344 0001:000083DA  7345 0001:000083DD
  7346 0001:000083E3  7347 0001:000083E7  7348 0001:000083E9  7349 0001:000083EB
  7352 0001:000083EE  7354 0001:000083F3  7355 0001:000083F6  7358 0001:000083F8
  7359 0001:000083FA  7362 0001:000083FB  7363 0001:000083FE  7364 0001:00008404
  7365 0001:00008406  7366 0001:00008407  7367 0001:0000840A  7370 0001:0000840C
  7371 0001:00008411  7374 0001:00008413  7377 0001:00008418  7381 0001:0000841B
  7382 0001:0000841E  7383 0001:00008424  7384 0001:00008426  7385 0001:00008429
  7386 0001:0000842A  7387 0001:0000842D  7388 0001:0000842F  7389 0001:00008430
  7390 0001:00008433  7391 0001:00008435  7394 0001:00008437  7395 0001:0000843A
  7396 0001:00008440  7399 0001:00008442  7400 0001:00008444  7401 0001:00008446
  7404 0001:00008449  7405 0001:0000844C  7406 0001:0000844E  7407 0001:0000844F
  7408 0001:00008452  7411 0001:00008453  7412 0001:00008456  7413 0001:0000845C
  7414 0001:0000845E  7415 0001:0000845F  7416 0001:00008461  7417 0001:00008463
  7418 0001:00008466  7419 0001:00008468  7420 0001:0000846A  7421 0001:0000846C
  7422 0001:0000846D  7423 0001:0000846F  7424 0001:00008471  7425 0001:00008472
  7428 0001:00008473  7429 0001:00008476  7430 0001:0000847C  7431 0001:00008481
  7432 0001:00008486  7433 0001:00008489  7436 0001:0000848E  7437 0001:00008490
  7440 0001:00008492  7443 0001:00008494  7444 0001:00008496  7445 0001:00008498
  7446 0001:0000849B  7447 0001:0000849D  7448 0001:0000849F  7449 0001:000084A2
  7450 0001:000084A4  7451 0001:000084A6  7452 0001:000084A9  7453 0001:000084AB
  7454 0001:000084AD  7455 0001:000084B0  7456 0001:000084B2  7457 0001:000084B5
  7458 0001:000084BB  7459 0001:000084BD  7460 0001:000084C2  7461 0001:000084C5
  7462 0001:000084C7  7463 0001:000084C9  7464 0001:000084CE  7465 0001:000084D1
  7466 0001:000084D3  7467 0001:000084D6  7468 0001:000084DA  7469 0001:000084DC
  7470 0001:000084DF  7471 0001:000084E4  7472 0001:000084E7  7473 0001:000084E9
  7474 0001:000084EE  7475 0001:000084EF  7476 0001:000084F0  7477 0001:000084F1
  7478 0001:000084F4  7479 0001:000084F5  7480 0001:000084F8  7481 0001:000084FA
  7482 0001:000084FD  7483 0001:00008500  7484 0001:00008505  7485 0001:00008507
  7486 0001:0000850A  7489 0001:0000850B  7490 0001:0000850C  7491 0001:0000850D
  7492 0001:00008510  7493 0001:00008513  7494 0001:00008518  7495 0001:00008519
  7496 0001:0000851A  7499 0001:0000851B  7500 0001:00008520  7501 0001:00008521
  7502 0001:00008522  7503 0001:00008523  7531 0001:0000852C  7532 0001:0000853B
  7534 0001:00008547  7535 0001:0000856D  7538 0001:00008575  7539 0001:0000857D
  7555 0001:00008584  7556 0001:00008593  7557 0001:000085A5  7561 0001:000085AC
  7562 0001:000085BB  7563 0001:000085D1  7570 0001:000085D8  7571 0001:000085EE
  7572 0001:000085F5  7573 0001:00008604  7576 0001:0000862D  7577 0001:00008638
  7579 0001:0000863E  7583 0001:00008649  7584 0001:0000864F  7585 0001:00008657
  7586 0001:00008662  7581 0001:00008687  7589 0001:00008690  7592 0001:0000869D
  7593 0001:000086AE  7600 0001:000086B4  7601 0001:000086CA  7602 0001:000086D1
  7603 0001:000086E0  7607 0001:0000870D  7608 0001:00008718  7610 0001:0000871E
  7614 0001:00008729  7615 0001:0000872F  7616 0001:00008737  7617 0001:00008742
  7612 0001:0000876B  7620 0001:00008774  7623 0001:00008781  7624 0001:00008792
  8628 0001:00008798  8637 0001:00008799  8639 0001:0000879B  8640 0001:0000879C
  8641 0001:0000879E  8642 0001:000087A0  8643 0001:000087A2  8644 0001:000087A4
  8645 0001:000087A6  8646 0001:000087A8  8647 0001:000087AA  8648 0001:000087AC
  8649 0001:000087AE  8650 0001:000087B0  8651 0001:000087B2  8652 0001:000087B4
  8653 0001:000087B5  8654 0001:000087B6  8655 0001:000087B7  8656 0001:000087B9
  8657 0001:000087BB  8658 0001:000087C1  8659 0001:000087C4  8660 0001:000087C6
  8661 0001:000087C7  8662 0001:000087C8  8663 0001:000087CA  8664 0001:000087CC
  8665 0001:000087CE  8666 0001:000087D0  8667 0001:000087D1  8668 0001:000087D3
  8669 0001:000087D4  8670 0001:000087D6  8671 0001:000087D8  8672 0001:000087D9
  8673 0001:000087DA  8686 0001:000087DC  8687 0001:000087E2  8688 0001:000087E3
  8689 0001:000087E4  8690 0001:000087E5  8712 0001:000087E8  8713 0001:000087ED
  8714 0001:000087F0  8715 0001:000087F5  8716 0001:000087F8  8717 0001:000087FD
  8718 0001:00008800  8719 0001:00008805  8720 0001:00008808  8721 0001:0000880D
  8722 0001:00008810  8724 0001:00008817  8725 0001:0000881C  8726 0001:0000881F
  8727 0001:00008821  8728 0001:00008824  8729 0001:00008827  8730 0001:00008829
  8731 0001:0000882E  8732 0001:00008831  8733 0001:00008833  8734 0001:00008838
  8735 0001:0000883B  8736 0001:0000883C  8737 0001:00008841  8738 0001:00008845
  8739 0001:00008847  8740 0001:0000884A  8741 0001:0000884B  8742 0001:0000884E
  8743 0001:00008853  8744 0001:00008856  8745 0001:0000885A  8746 0001:0000885F
  8747 0001:00008862  8748 0001:00008864  8749 0001:00008866  8750 0001:0000886B
  8751 0001:00008872  8752 0001:00008875  8753 0001:0000887A  8754 0001:0000887C
  8755 0001:0000887E  8756 0001:00008881  8757 0001:00008885  8758 0001:00008888
  8759 0001:0000888A  8760 0001:0000888D  8761 0001:0000888F  8762 0001:00008893
  8763 0001:00008896  8764 0001:00008898  8765 0001:0000889A  8766 0001:000088A1
  8767 0001:000088A4  8768 0001:000088A6  8769 0001:000088A9  8770 0001:000088AB
  8771 0001:000088AD  8772 0001:000088B0  8773 0001:000088B1  8774 0001:000088B2
  8775 0001:000088B3  8778 0001:000088B8  8779 0001:000088BC  8780 0001:000088C0
  8781 0001:000088C4  8782 0001:000088C8  8784 0001:000088CC  8790 0001:000088D2
  8791 0001:000088D3  8792 0001:000088D5  8793 0001:000088D7  8794 0001:000088D9
  8795 0001:000088DA  8801 0001:000088DB  8802 0001:000088DF  8803 0001:000088E1
  8804 0001:000088E3  8805 0001:000088E4  8811 0001:000088E5  8812 0001:000088EA
  8813 0001:000088EE  8814 0001:000088F0  8815 0001:000088F3  8816 0001:000088F5
  8817 0001:000088F8  8818 0001:000088FA  8819 0001:000088FC  8820 0001:000088FE
  8821 0001:00008900  8822 0001:00008901  8823 0001:00008904  8824 0001:00008906
  8825 0001:00008909  8826 0001:0000890A  8827 0001:0000890C  8828 0001:0000890E
  8829 0001:00008910  8830 0001:00008912  8831 0001:00008917  8832 0001:00008918
  8833 0001:00008919  8834 0001:0000891B  8835 0001:0000891D  8836 0001:0000891E
  8837 0001:00008920  8838 0001:00008921  8839 0001:00008923  8840 0001:00008925
  8841 0001:00008927  8842 0001:0000892A  8843 0001:0000892C  8844 0001:0000892D
  8845 0001:0000892F  8846 0001:00008931  8847 0001:00008932  8848 0001:00008934
  8849 0001:00008936  8850 0001:00008938  8851 0001:0000893A  8852 0001:0000893C
  8853 0001:0000893E  8854 0001:00008940  8860 0001:00008941  8861 0001:00008946
  8862 0001:0000894B  8863 0001:0000894E  8864 0001:00008950  8865 0001:00008953
  8866 0001:00008954  8867 0001:00008959  8868 0001:0000895A  8869 0001:0000895C
  8873 0001:0000895E  8874 0001:00008961  8875 0001:00008964  8876 0001:00008966
  8884 0001:00008968  8885 0001:0000896A  8886 0001:0000896D  8887 0001:00008971
  8888 0001:00008972  8889 0001:00008977  8896 0001:00008978  8902 0001:0000897D
  8903 0001:00008980  8904 0001:00008983  8905 0001:00008985  8906 0001:0000898A
  8907 0001:0000898E  8908 0001:00008990  8909 0001:00008992  8910 0001:00008994
  8911 0001:00008995  8912 0001:00008997  8913 0001:00008999  8914 0001:0000899D
  8915 0001:0000899F  8916 0001:000089A1  8917 0001:000089A2  8918 0001:000089A4
  8919 0001:000089A6  8920 0001:000089A8  8921 0001:000089A9  8922 0001:000089AE
  8923 0001:000089AF  8924 0001:000089B0  8925 0001:000089B2  8926 0001:000089B3
  8927 0001:000089B5  8928 0001:000089B8  8929 0001:000089BA  8930 0001:000089BC
  8931 0001:000089BD  8932 0001:000089BF  8933 0001:000089C1  8934 0001:000089C3
  8935 0001:000089C5  8936 0001:000089C8  8937 0001:000089CA  8938 0001:000089CC
  8939 0001:000089CD  8940 0001:000089CF  8941 0001:000089D1  8942 0001:000089D2
  8943 0001:000089D3  8944 0001:000089D5  8945 0001:000089D6  8946 0001:000089D8
  8947 0001:000089DD  8948 0001:000089DE  8949 0001:000089DF  8950 0001:000089E1
  8956 0001:000089E2  8957 0001:000089E4  8958 0001:000089E7  8959 0001:000089EC
  8960 0001:000089F0  8961 0001:000089F2  8962 0001:000089F5  8963 0001:000089FA
  8964 0001:000089FC  8965 0001:000089FE  8966 0001:00008A00  8967 0001:00008A02
  8968 0001:00008A09  8969 0001:00008A0C  8970 0001:00008A11  8971 0001:00008A13
  8972 0001:00008A15  8973 0001:00008A17  8974 0001:00008A18  8975 0001:00008A19
  8976 0001:00008A1B  8977 0001:00008A1D  8978 0001:00008A1F  8979 0001:00008A21
  8980 0001:00008A22  8981 0001:00008A24  8982 0001:00008A29  8983 0001:00008A2B
  8984 0001:00008A30  8985 0001:00008A31  8986 0001:00008A32  8987 0001:00008A33
  8988 0001:00008A35  8994 0001:00008A36  8995 0001:00008A37  8996 0001:00008A3A
  8997 0001:00008A3C  8998 0001:00008A3E  8999 0001:00008A41  9000 0001:00008A43
  9001 0001:00008A44  9006 0001:00008A45  9007 0001:00008A4A  9008 0001:00008A4F
  9009 0001:00008A54  9010 0001:00008A59  9011 0001:00008A5E  9012 0001:00008A63
  9013 0001:00008A68  9014 0001:00008A6D  9015 0001:00008A72  9016 0001:00008A77
  9017 0001:00008A7C  9018 0001:00008A81  9019 0001:00008A86  9020 0001:00008A8B
  9021 0001:00008A90  9022 0001:00008A95  9023 0001:00008A9A  9024 0001:00008A9F
  9025 0001:00008AA4  9028 0001:00008AA9  9042 0001:00008AB0  9043 0001:00008AB6
  9044 0001:00008AB7  9045 0001:00008AB8  9046 0001:00008AB9  9053 0001:00008ABC
  9054 0001:00008ABF  9055 0001:00008AC2  9056 0001:00008AC5  9057 0001:00008AC8
  9058 0001:00008ACB  9059 0001:00008ACE  9060 0001:00008AD1  9061 0001:00008AD4
  9062 0001:00008AD7  9063 0001:00008ADA  9064 0001:00008ADC  9065 0001:00008ADF
  9066 0001:00008AE2  9067 0001:00008AE5  9068 0001:00008AE8  9069 0001:00008AEF
  9070 0001:00008AF4  9071 0001:00008AF7  9072 0001:00008AF9  9073 0001:00008AFC
  9074 0001:00008AFF  9075 0001:00008B01  9076 0001:00008B06  9077 0001:00008B09
  9078 0001:00008B0B  9079 0001:00008B10  9080 0001:00008B13  9081 0001:00008B14
  9082 0001:00008B19  9083 0001:00008B1D  9084 0001:00008B1F  9085 0001:00008B22
  9086 0001:00008B23  9087 0001:00008B26  9088 0001:00008B2B  9089 0001:00008B2E
  9090 0001:00008B32  9091 0001:00008B37  9092 0001:00008B3A  9093 0001:00008B3C
  9094 0001:00008B3E  9095 0001:00008B43  9096 0001:00008B4A  9097 0001:00008B4D
  9098 0001:00008B52  9099 0001:00008B54  9100 0001:00008B56  9101 0001:00008B59
  9102 0001:00008B5D  9103 0001:00008B60  9104 0001:00008B62  9105 0001:00008B65
  9106 0001:00008B67  9107 0001:00008B6B  9108 0001:00008B6E  9109 0001:00008B70
  9110 0001:00008B72  9111 0001:00008B79  9112 0001:00008B7C  9113 0001:00008B7E
  9114 0001:00008B81  9115 0001:00008B83  9116 0001:00008B85  9117 0001:00008B88
  9118 0001:00008B89  9119 0001:00008B8A  9120 0001:00008B8B  9123 0001:00008B90
  9124 0001:00008B94  9125 0001:00008B98  9126 0001:00008B9C  9127 0001:00008BA0
  9129 0001:00008BA4  9135 0001:00008BAA  9136 0001:00008BAB  9137 0001:00008BAD
  9138 0001:00008BAF  9139 0001:00008BB1  9140 0001:00008BB2  9146 0001:00008BB3
  9147 0001:00008BB7  9148 0001:00008BB9  9149 0001:00008BBB  9150 0001:00008BBC
  9156 0001:00008BBD  9157 0001:00008BC2  9158 0001:00008BC6  9159 0001:00008BC8
  9160 0001:00008BCB  9161 0001:00008BCD  9162 0001:00008BD0  9163 0001:00008BD2
  9164 0001:00008BD4  9165 0001:00008BD6  9166 0001:00008BD8  9167 0001:00008BD9
  9168 0001:00008BDC  9169 0001:00008BDE  9170 0001:00008BE1  9171 0001:00008BE2
  9172 0001:00008BE4  9173 0001:00008BE6  9174 0001:00008BE8  9175 0001:00008BEA
  9176 0001:00008BEF  9177 0001:00008BF0  9178 0001:00008BF1  9179 0001:00008BF3
  9180 0001:00008BF5  9181 0001:00008BF6  9182 0001:00008BF8  9183 0001:00008BF9
  9184 0001:00008BFB  9185 0001:00008BFD  9186 0001:00008BFF  9187 0001:00008C02
  9188 0001:00008C04  9189 0001:00008C05  9190 0001:00008C07  9191 0001:00008C09
  9192 0001:00008C0A  9193 0001:00008C0C  9194 0001:00008C0E  9195 0001:00008C10
  9196 0001:00008C12  9197 0001:00008C14  9198 0001:00008C16  9199 0001:00008C18
  9205 0001:00008C19  9206 0001:00008C1E  9207 0001:00008C23  9208 0001:00008C26
  9209 0001:00008C28  9210 0001:00008C2B  9211 0001:00008C2C  9212 0001:00008C31
  9213 0001:00008C32  9214 0001:00008C34  9218 0001:00008C36  9219 0001:00008C39
  9220 0001:00008C3C  9221 0001:00008C3E  9229 0001:00008C40  9230 0001:00008C42
  9231 0001:00008C45  9232 0001:00008C49  9233 0001:00008C4A  9234 0001:00008C4F
  9241 0001:00008C50  9247 0001:00008C55  9248 0001:00008C58  9249 0001:00008C5B
  9250 0001:00008C5D  9251 0001:00008C62  9252 0001:00008C66  9253 0001:00008C68
  9254 0001:00008C6A  9255 0001:00008C6C  9256 0001:00008C6D  9257 0001:00008C6F
  9258 0001:00008C71  9259 0001:00008C75  9260 0001:00008C77  9261 0001:00008C79
  9262 0001:00008C7A  9263 0001:00008C7C  9264 0001:00008C7E  9265 0001:00008C80
  9266 0001:00008C81  9267 0001:00008C86  9268 0001:00008C87  9269 0001:00008C88
  9270 0001:00008C8A  9271 0001:00008C8B  9272 0001:00008C8D  9273 0001:00008C90
  9274 0001:00008C92  9275 0001:00008C94  9276 0001:00008C95  9277 0001:00008C97
  9278 0001:00008C99  9279 0001:00008C9B  9280 0001:00008C9D  9281 0001:00008CA0
  9282 0001:00008CA2  9283 0001:00008CA4  9284 0001:00008CA5  9285 0001:00008CA7
  9286 0001:00008CA9  9287 0001:00008CAA  9288 0001:00008CAB  9289 0001:00008CAD
  9290 0001:00008CAE  9291 0001:00008CB0  9292 0001:00008CB5  9293 0001:00008CB6
  9294 0001:00008CB7  9295 0001:00008CB9  9301 0001:00008CBA  9302 0001:00008CBC
  9303 0001:00008CBF  9304 0001:00008CC4  9305 0001:00008CC8  9306 0001:00008CCA
  9307 0001:00008CCD  9308 0001:00008CD2  9309 0001:00008CD4  9310 0001:00008CD6
  9311 0001:00008CD8  9312 0001:00008CDA  9313 0001:00008CE1  9314 0001:00008CE4
  9315 0001:00008CE9  9316 0001:00008CEB  9317 0001:00008CED  9318 0001:00008CEF
  9319 0001:00008CF0  9320 0001:00008CF1  9321 0001:00008CF3  9322 0001:00008CF5
  9323 0001:00008CF7  9324 0001:00008CF9  9325 0001:00008CFA  9326 0001:00008CFC
  9327 0001:00008D01  9328 0001:00008D03  9329 0001:00008D08  9330 0001:00008D09
  9331 0001:00008D0A  9332 0001:00008D0B  9333 0001:00008D0D  9339 0001:00008D0E
  9340 0001:00008D0F  9341 0001:00008D12  9342 0001:00008D14  9343 0001:00008D16
  9344 0001:00008D19  9345 0001:00008D1B  9346 0001:00008D1C  9351 0001:00008D1D
  9352 0001:00008D22  9353 0001:00008D27  9354 0001:00008D2C  9355 0001:00008D31
  9356 0001:00008D36  9357 0001:00008D3B  9358 0001:00008D40  9359 0001:00008D45
  9360 0001:00008D4A  9361 0001:00008D4F  9362 0001:00008D54  9363 0001:00008D59
  9364 0001:00008D5E  9365 0001:00008D63  9366 0001:00008D68  9367 0001:00008D6D
  9368 0001:00008D72  9369 0001:00008D77  9370 0001:00008D7C  9373 0001:00008D81
 10106 0001:00008D88 10107 0001:00008D8E 10108 0001:00008D8F 10109 0001:00008D90
 10110 0001:00008D91 10111 0001:00008D93 10118 0001:00008D95 10120 0001:00008D9C
 10121 0001:00008D9F 10122 0001:00008DA1 10123 0001:00008DA6 10124 0001:00008DAB
 10125 0001:00008DB0 10131 0001:00008DB5 10132 0001:00008DB9 10133 0001:00008DBB
 10134 0001:00008DC0 10135 0001:00008DC2 10136 0001:00008DC7 10138 0001:00008DC9
 10139 0001:00008DCF 10142 0001:00008DD1 10143 0001:00008DD4 10144 0001:00008DD6
 10145 0001:00008DDD 10146 0001:00008DDF 10147 0001:00008DE0 10148 0001:00008DE2
 10149 0001:00008DE6 10150 0001:00008DEB 10151 0001:00008DED 10152 0001:00008DF2
 10153 0001:00008DF8 10154 0001:00008DFB 10155 0001:00008DFC 10156 0001:00008DFF
 10157 0001:00008E04 10158 0001:00008E07 10159 0001:00008E09 10160 0001:00008E0A
 10161 0001:00008E0D 10162 0001:00008E12 10163 0001:00008E13 10164 0001:00008E15
 10165 0001:00008E18 10166 0001:00008E1E 10167 0001:00008E20 10168 0001:00008E24
 10169 0001:00008E25 10170 0001:00008E2B 10171 0001:00008E2D 10172 0001:00008E33
 10173 0001:00008E36 10174 0001:00008E39 10175 0001:00008E3C 10176 0001:00008E41
 10177 0001:00008E42 10178 0001:00008E46 10179 0001:00008E48 10180 0001:00008E4B
 10181 0001:00008E4E 10182 0001:00008E52 10183 0001:00008E54 10184 0001:00008E55
 10185 0001:00008E57 10186 0001:00008E59 10187 0001:00008E5A 10188 0001:00008E5D
 10189 0001:00008E60 10190 0001:00008E62 10191 0001:00008E64 10192 0001:00008E69
 10193 0001:00008E6C 10194 0001:00008E6E 10195 0001:00008E71 10196 0001:00008E74
 10197 0001:00008E76 10198 0001:00008E7B 10199 0001:00008E7D 10200 0001:00008E82
 10201 0001:00008E83 10202 0001:00008E85 10203 0001:00008E89 10204 0001:00008E8E
 10205 0001:00008E90 10206 0001:00008E92 10207 0001:00008E98 10208 0001:00008E9B
 10209 0001:00008E9D 10210 0001:00008EA2 10211 0001:00008EA7 10212 0001:00008EA8
 10213 0001:00008EAA 10214 0001:00008EAF 10215 0001:00008EB1 10217 0001:00008EB5
 10218 0001:00008EB8 10219 0001:00008EBC 10220 0001:00008EBF 10221 0001:00008EC2
 10222 0001:00008EC3 10223 0001:00008EC5 10226 0001:00008EC7 10227 0001:00008ECB
 10228 0001:00008ECF 10229 0001:00008ED3 10235 0001:00008ED7 10236 0001:00008ED9
 10237 0001:00008EDC 10238 0001:00008EDE 10239 0001:00008EE0 10240 0001:00008EE6
 10241 0001:00008EE8 10242 0001:00008EEA 10243 0001:00008EEC 10244 0001:00008EEE
 10245 0001:00008EF1 10246 0001:00008EF3 10247 0001:00008EF6 10248 0001:00008EF8
 10249 0001:00008EFA 10250 0001:00008EFC 10251 0001:00008EFF 10252 0001:00008F01
 10253 0001:00008F06 10254 0001:00008F07 10255 0001:00008F0C 10256 0001:00008F12
 10257 0001:00008F14 10258 0001:00008F15 10259 0001:00008F1A 10260 0001:00008F20
 10261 0001:00008F23 10262 0001:00008F26 10263 0001:00008F29 10264 0001:00008F2B
 10265 0001:00008F30 10266 0001:00008F32 10267 0001:00008F34 10268 0001:00008F37
 10269 0001:00008F3E 10270 0001:00008F41 10271 0001:00008F44 10272 0001:00008F45
 10273 0001:00008F47 10274 0001:00008F49 10275 0001:00008F4E 10276 0001:00008F52
 10277 0001:00008F54 10278 0001:00008F57 10279 0001:00008F59 10280 0001:00008F5B
 10281 0001:00008F5D 10282 0001:00008F5F 10283 0001:00008F60 10284 0001:00008F62
 10285 0001:00008F64 10286 0001:00008F66 10287 0001:00008F68 10288 0001:00008F69
 10289 0001:00008F6E 10290 0001:00008F72 10291 0001:00008F74 10292 0001:00008F77
 10293 0001:00008F79 10294 0001:00008F7A 10295 0001:00008F7C 10296 0001:00008F7E
 10297 0001:00008F80 10298 0001:00008F81 10299 0001:00008F82 10300 0001:00008F84
 10301 0001:00008F86 10302 0001:00008F8A 10303 0001:00008F8C 10304 0001:00008F8F
 10305 0001:00008F90 10306 0001:00008F93 10307 0001:00008F95 10308 0001:00008F98
 10309 0001:00008F9B 10310 0001:00008F9D 10311 0001:00008F9F 10312 0001:00008FA1
 10313 0001:00008FA4 10314 0001:00008FA7 10315 0001:00008FAA 10318 0001:00008FAB
 10319 0001:00008FAC 10320 0001:00008FAD 10321 0001:00008FAE 10339 0001:00008FB4
 10340 0001:00008FBA 10341 0001:00008FBB 10342 0001:00008FBC 10343 0001:00008FBD
 10344 0001:00008FBF 10354 0001:00008FC1 10355 0001:00008FC8 10356 0001:00008FCD
 10357 0001:00008FD0 10359 0001:00008FD2 10360 0001:00008FD6 10364 0001:00008FD9
 10366 0001:00008FDF 10367 0001:00008FE1 10368 0001:00008FE6 10369 0001:00008FE8
 10370 0001:00008FEB 10371 0001:00008FED 10372 0001:00008FF0 10373 0001:00008FF2
 10374 0001:00008FF3 10375 0001:00008FF5 10376 0001:00008FFA 10377 0001:00008FFC
 10378 0001:00008FFE 10379 0001:00009001 10380 0001:00009003 10381 0001:00009004
 10382 0001:00009009 10383 0001:0000900B 10384 0001:0000900D 10385 0001:0000900F
 10386 0001:00009011 10387 0001:00009013 10388 0001:00009015 10389 0001:00009017
 10390 0001:00009018 10391 0001:00009019 10392 0001:0000901E 10393 0001:0000901F
 10394 0001:00009021 10395 0001:00009026 10396 0001:00009029 10397 0001:0000902B
 10398 0001:0000902D 10399 0001:00009030 10400 0001:00009032 10401 0001:00009035
 10402 0001:00009036 10403 0001:00009039 10404 0001:0000903E 10405 0001:0000903F
 10406 0001:00009042 10407 0001:00009044 10408 0001:00009046 10409 0001:00009049
 10410 0001:0000904B 10411 0001:0000904D 10412 0001:0000904F 10413 0001:00009051
 10414 0001:00009054 10415 0001:00009058 10416 0001:0000905A 10417 0001:0000905C
 10418 0001:0000905E 10419 0001:00009060 10420 0001:00009062 10421 0001:00009065
 10422 0001:00009068 10423 0001:00009069 10427 0001:0000906B 10428 0001:0000906C
 10429 0001:0000906E 10430 0001:00009070 10431 0001:00009072 10432 0001:00009074
 10433 0001:00009075 10440 0001:00009076 10441 0001:00009078 10442 0001:0000907A
 10443 0001:0000907B 10444 0001:0000907D 10445 0001:0000907F 10451 0001:00009081
 10453 0001:00009087 10454 0001:0000908A 10455 0001:0000908D 10456 0001:0000908E
 10457 0001:00009090 10458 0001:00009091 10465 0001:00009092 10466 0001:00009094
 10467 0001:00009096 10468 0001:00009098 10469 0001:0000909B 10470 0001:0000909D
 10471 0001:000090A0 10472 0001:000090A2 10473 0001:000090A3 10474 0001:000090A5
 10475 0001:000090A7 10476 0001:000090A9 10477 0001:000090AB 10478 0001:000090AC
 10479 0001:000090AF 10480 0001:000090B1 10481 0001:000090B7 10482 0001:000090B9
 10483 0001:000090BC 10484 0001:000090BE 10485 0001:000090C0 10488 0001:000090C1
 10489 0001:000090C2 10490 0001:000090C3 10491 0001:000090C4 10664 0001:000090C8
 10665 0001:000090D1 10667 0001:000090F1 10681 0001:000090F8 10682 0001:00009101
 10684 0001:00009121 10712 0001:00009128 10713 0001:00009137 10715 0001:0000915D
 10783 0001:00009164 10784 0001:0000916D 10785 0001:00009183 10786 0001:0000919F
 10809 0001:000091A4 10810 0001:000091B0 10811 0001:000091C8 10822 0001:000091CC
 10823 0001:000091D8 10824 0001:000091ED 10825 0001:000091F3 10826 0001:000091FF
 10841 0001:00009204 10842 0001:00009210 10843 0001:00009225 10844 0001:0000922B
 10845 0001:00009237 10884 0001:0000923C 10885 0001:00009248 10886 0001:00009260
 10901 0001:00009264 10902 0001:00009267 10909 0001:00009268 10911 0001:0000926A
 10912 0001:0000926C 10913 0001:0000926F 10914 0001:00009275 10915 0001:00009278
 10916 0001:0000927B 10917 0001:0000927C 10918 0001:0000927D 10919 0001:0000927E
 10920 0001:00009280 10921 0001:00009282 10922 0001:00009284 10923 0001:00009286
 10924 0001:00009289 10925 0001:0000928F 10926 0001:00009291 10927 0001:00009293
 10928 0001:00009299 10929 0001:0000929E 10930 0001:000092A0 10931 0001:000092A3
 10932 0001:000092A4 11016 0001:000092A8 11017 0001:000092BA 11018 0001:000092BE
 11020 0001:000092DB 11024 0001:00009315 11026 0001:0000931C 11029 0001:00009328
 11030 0001:0000933A 11031 0001:00009358 11032 0001:00009365 11037 0001:0000936C
 11038 0001:0000937B 11039 0001:0000939C 11040 0001:000093B0 11041 0001:000093C4
 11046 0001:000093CC 11047 0001:000093D4 11048 0001:0000940D 11054 0001:00009410
 11055 0001:00009423 11056 0001:00009427 11057 0001:00009440 11060 0001:0000948A
 11061 0001:000094B4 11062 0001:000094BC 11063 0001:00009504 11065 0001:0000950B
 11068 0001:00009514 11069 0001:00009526 11070 0001:0000953F 11071 0001:0000954C
 11083 0001:00009550 11084 0001:0000955F 11085 0001:00009573 11087 0001:00009579
 11088 0001:00009581 11089 0001:00009589 11090 0001:00009591 11091 0001:00009599
 11094 0001:000095A2 11095 0001:000095B4 11096 0001:000095B7 11097 0001:000095BD
 11099 0001:000095C6 11100 0001:000095CD 11097 0001:000095D3 11102 0001:000095DC
 11103 0001:000095EF 11105 0001:000095F6 11106 0001:000095FA 11108 0001:00009600
 11109 0001:00009609 11110 0001:0000961D 11111 0001:00009628 11112 0001:0000963C
 11114 0001:00009643 11115 0001:00009647 11117 0001:0000964D 11118 0001:00009655
 11119 0001:00009661 11120 0001:00009673 11123 0001:00009679 11124 0001:00009689
 11125 0001:00009693 11126 0001:0000969B 11121 0001:0000969F 11128 0001:000096A1
 11129 0001:000096AB 11130 0001:000096B5 11132 0001:000096C3 11143 0001:000096CC
 11144 0001:000096DB 11145 0001:000096F3 11172 0001:000096FC 11173 0001:00009702
 11174 0001:00009724 11180 0001:0000972C 11181 0001:00009732 11182 0001:0000973B
 11183 0001:00009753 11228 0001:00009758 11229 0001:0000975E 11230 0001:00009767
 11233 0001:0000979C 11299 0001:000097A0 11300 0001:000097A6 11301 0001:000097AF
 11302 0001:000097BB 11326 0001:000097C0 11327 0001:000097CC 11328 0001:000097DD
 11329 0001:000097EB 11330 0001:0000980F 11331 0001:0000981B 11334 0001:00009820
 11335 0001:00009827 11336 0001:0000983E 11343 0001:00009844 11344 0001:00009850
 11346 0001:0000988D 11360 0001:00009894 11361 0001:00009898 11362 0001:000098A3
 11363 0001:000098B9 11364 0001:000098C9 11367 0001:000098CC 11368 0001:000098CF
 11370 0001:000098D8 11371 0001:000098FB 11373 0001:00009902 11376 0001:00009904
 11377 0001:00009907 11379 0001:00009910 11380 0001:0000993A 11382 0001:00009941
 11391 0001:00009944 11392 0001:0000996C 11395 0001:00009974 11396 0001:0000997F
 11397 0001:0000998A 11400 0001:00009995 11401 0001:000099A2 11404 0001:000099D0
 11405 0001:000099E3 11407 0001:000099ED 11409 0001:00009A00 11411 0001:00009A26
 11414 0001:00009A4A 11415 0001:00009A65 11420 0001:00009AB8 11427 0001:00009AC8
 11428 0001:00009AEA 11431 0001:00009AF2 11432 0001:00009AFD 11433 0001:00009B08
 11436 0001:00009B13 11437 0001:00009B19 11439 0001:00009B28 11441 0001:00009B35
 11444 0001:00009B5F 11445 0001:00009B72 11446 0001:00009B82 11448 0001:00009BBF
 11496 0001:00009BE0 11497 0001:00009BFF 11499 0001:00009C19 11500 0001:00009C22
 11501 0001:00009C26 11502 0001:00009C2A 11503 0001:00009C2E 11506 0001:00009C37
 11507 0001:00009C3F 11509 0001:00009C50 11510 0001:00009C67 11511 0001:00009C72
 11512 0001:00009C76 11514 0001:00009C7B 11515 0001:00009C86 11516 0001:00009C8C
 11517 0001:00009C99 11519 0001:00009CA2 11520 0001:00009CB2 11522 0001:00009CB8
 11525 0001:00009D4F 11526 0001:00009D56 11527 0001:00009D5D 11528 0001:00009D63
 11529 0001:00009D86 11533 0001:00009D9E 11534 0001:00009DA5 11535 0001:00009DAC
 11539 0001:00009DCB 11540 0001:00009DD2 11541 0001:00009DD9 11545 0001:00009DF8
 11546 0001:00009DFF 11547 0001:00009E06 11548 0001:00009E13 11549 0001:00009E29
 11551 0001:00009E43 11556 0001:00009E5D 11557 0001:00009E64 11560 0001:00009E77
 11561 0001:00009E7E 11563 0001:00009E94 11564 0001:00009EBB 11565 0001:00009EE2
 11567 0001:00009EF6 11572 0001:00009F0A 11573 0001:00009F11 11574 0001:00009F18
 11575 0001:00009F1C 11578 0001:00009F27 11580 0001:00009F3A 11581 0001:00009F45
 11583 0001:00009F4A 11585 0001:00009F78 11587 0001:00009F7E 11590 0001:00009FC0
 11591 0001:00009FC4 11595 0001:00009FC6 11597 0001:00009FCE 11576 0001:00009FD1
 11599 0001:00009FDD 11600 0001:00009FE5 11601 0001:00009FEB 11602 0001:0000A006
 11603 0001:0000A013 11607 0001:0000A029 11608 0001:0000A030 11609 0001:0000A037
 11610 0001:0000A044 11614 0001:0000A05A 11615 0001:0000A061 11616 0001:0000A068
 11617 0001:0000A075 11621 0001:0000A08B 11622 0001:0000A092 11623 0001:0000A098
 11624 0001:0000A0AC 11628 0001:0000A0C0 11629 0001:0000A0C7 11630 0001:0000A0CE
 11631 0001:0000A0DB 11635 0001:0000A0F1 11636 0001:0000A0F8 11637 0001:0000A0FF
 11639 0001:0000A115 11640 0001:0000A120 11641 0001:0000A132 11642 0001:0000A136
 11644 0001:0000A13F 11646 0001:0000A155 11647 0001:0000A160 11648 0001:0000A172
 11649 0001:0000A176 11651 0001:0000A17F 11653 0001:0000A195 11654 0001:0000A19C
 11655 0001:0000A1AD 11656 0001:0000A1BC 11657 0001:0000A1C0 11659 0001:0000A1C9
 11661 0001:0000A1DF 11662 0001:0000A1E6 11663 0001:0000A208 11665 0001:0000A211
 11667 0001:0000A227 11668 0001:0000A22E 11669 0001:0000A250 11671 0001:0000A259
 11675 0001:0000A270 11676 0001:0000A277 11677 0001:0000A286 11678 0001:0000A28D
 11680 0001:0000A2A6 11681 0001:0000A2BA 11685 0001:0000A2CE 11686 0001:0000A2DB
 11688 0001:0000A2F4 11689 0001:0000A301 11692 0001:0000A317 11695 0001:0000A31F
 11696 0001:0000A332 11698 0001:0000A33F 11693 0001:0000A342 11700 0001:0000A354
 11701 0001:0000A367 11704 0001:0000A374 11504 0001:0000A386 11707 0001:0000A392
 11709 0001:0000A3BD 11711 0001:0000A3E8 11712 0001:0000A3FD 11713 0001:0000A405
 11714 0001:0000A40D 11715 0001:0000A431 11716 0001:0000A448 12133 0001:0000A454
 12134 0001:0000A45B 12135 0001:0000A46F 12145 0001:0000A474 12146 0001:0000A47B
 12147 0001:0000A48F 12157 0001:0000A494 12158 0001:0000A49B 12159 0001:0000A4AB
 12168 0001:0000A4B0 12169 0001:0000A4BC 12170 0001:0000A4CD 12186 0001:0000A4D4
 12187 0001:0000A4E0 12188 0001:0000A4EA 12189 0001:0000A507 12190 0001:0000A50F
 12197 0001:0000A514 12198 0001:0000A523 12199 0001:0000A527 12200 0001:0000A52D
 12201 0001:0000A538 12202 0001:0000A540 12205 0001:0000A548 12206 0001:0000A567
 12203 0001:0000A56A 12208 0001:0000A58F 12210 0001:0000A599 12211 0001:0000A5A8
 12212 0001:0000A5B0 12213 0001:0000A5BA 12215 0001:0000A5C1 12219 0001:0000A5C8
 12220 0001:0000A5EB 12221 0001:0000A5EF 12223 0001:0000A5F5 12224 0001:0000A600
 12226 0001:0000A62A 12227 0001:0000A637 12230 0001:0000A65B 12233 0001:0000A660
 12234 0001:0000A66F 12235 0001:0000A673 12236 0001:0000A67E 12238 0001:0000A69E
 12239 0001:0000A6A3 12241 0001:0000A6AA 12246 0001:0000A6B0 12247 0001:0000A6B9
 12248 0001:0000A6BD 12251 0001:0000A6C6 12252 0001:0000A6E4 12253 0001:0000A6EA
 12254 0001:0000A6F0 12255 0001:0000A6F6 12257 0001:0000A6FC 12249 0001:0000A6FF
 12262 0001:0000A70C 12263 0001:0000A713 12266 0001:0000A718 12269 0001:0000A726
 12270 0001:0000A740 12272 0001:0000A754 12267 0001:0000A759 12274 0001:0000A77A
 12279 0001:0000A780 12280 0001:0000A789 12281 0001:0000A78E 12283 0001:0000A795
 12284 0001:0000A7A2 12286 0001:0000A7C4 12287 0001:0000A7D1 12289 0001:0000A7D3
 12281 0001:0000A7D6 12290 0001:0000A7DF 12303 0001:0000A7E4 12305 0001:0000A7ED
 12307 0001:0000A7F6 12308 0001:0000A7FC 12309 0001:0000A821 12310 0001:0000A82A
 12313 0001:0000A832 12315 0001:0000A838 12316 0001:0000A847 12318 0001:0000A84C
 12319 0001:0000A878 12320 0001:0000A87E 12321 0001:0000A884 12322 0001:0000A88A
 12323 0001:0000A88E 12324 0001:0000A892 12325 0001:0000A89F 12326 0001:0000A8A4
 12328 0001:0000A8B7 12329 0001:0000A8C2 12330 0001:0000A8E4 12333 0001:0000A8F1
 12334 0001:0000A905 12335 0001:0000A90D 12337 0001:0000A95A 12339 0001:0000A973
 12340 0001:0000A98D 12341 0001:0000A99C 12342 0001:0000A9BC 12343 0001:0000A9DC
 12345 0001:0000A9FA 12346 0001:0000AA00 12348 0001:0000AA11 12350 0001:0000AA17
 12351 0001:0000AA2B 12352 0001:0000AA3E 12353 0001:0000AA51 12357 0001:0000AA58
 12358 0001:0000AA61 12360 0001:0000AA67 12363 0001:0000AA79 12366 0001:0000AA89
 12367 0001:0000AA9A 12368 0001:0000AAA5 12370 0001:0000AACA 12371 0001:0000AAD7
 12374 0001:0000AAE9 12375 0001:0000AB0C 12376 0001:0000AB17 12380 0001:0000AB86
 12381 0001:0000ABC3 12482 0001:0000ABE0 12483 0001:0000ABEF 12484 0001:0000ABF3
 12485 0001:0000ABFA 12486 0001:0000AC23 12487 0001:0000AC2A 12488 0001:0000AC53
 12489 0001:0000AC5A 12490 0001:0000AC6B 12491 0001:0000AC85 12492 0001:0000AC8B
 12493 0001:0000AC91 12494 0001:0000AC97 12496 0001:0000ACAC 12497 0001:0000ACC6
 12499 0001:0000ACDB 12500 0001:0000ACF5 12501 0001:0000AD0A 12504 0001:0000AD24
 12505 0001:0000AD2A 12506 0001:0000AD53 12508 0001:0000AD5A 12509 0001:0000AD83
 12510 0001:0000AD8A 12512 0001:0000AD90 12513 0001:0000AD9E 12514 0001:0000ADAB
 12516 0001:0000ADB3 12517 0001:0000ADBE 12518 0001:0000ADDE 12565 0001:0000ADFC
 12566 0001:0000AE05 12567 0001:0000AE14 12568 0001:0000AE30 12593 0001:0000AE34
 12594 0001:0000AE40 12595 0001:0000AE47 12596 0001:0000AE72 12608 0001:0000AE78
 12609 0001:0000AE81 12610 0001:0000AE90 12611 0001:0000AEAC 12636 0001:0000AEB0
 12637 0001:0000AEBC 12638 0001:0000AEC3 12639 0001:0000AEEE 12651 0001:0000AEF4
 12652 0001:0000AEFD 12653 0001:0000AF0C 12654 0001:0000AF28 12680 0001:0000AF2C
 12681 0001:0000AF38 12682 0001:0000AF3C 12683 0001:0000AF43 12684 0001:0000AF4B
 12688 0001:0000AF7C 12690 0001:0000AF8C 12691 0001:0000AF9A 12693 0001:0000AFA8
 12694 0001:0000AFB7 12725 0001:0000AFC0 12726 0001:0000AFCF 12729 0001:0000AFF4
 12730 0001:0000B00F 12731 0001:0000B020 12747 0001:0000B024 12748 0001:0000B036
 12749 0001:0000B052 12750 0001:0000B077 12762 0001:0000B080 12763 0001:0000B08F
 12764 0001:0000B0A6 12765 0001:0000B0AE 12766 0001:0000B0B7 12803 0001:0000B0BC
 12804 0001:0000B0CB 12805 0001:0000B0DF 12806 0001:0000B0F8 12808 0001:0000B100
 12809 0001:0000B11A 12810 0001:0000B122 12812 0001:0000B129 12814 0001:0000B158
 12816 0001:0000B187 12810 0001:0000B18A 12817 0001:0000B190 12819 0001:0000B197
 12820 0001:0000B1A8 12822 0001:0000B1D6 12824 0001:0000B204 12817 0001:0000B207
 12825 0001:0000B22F 12884 0001:0000B234 12885 0001:0000B243 12886 0001:0000B257
 12887 0001:0000B270 12889 0001:0000B278 12890 0001:0000B2A0 12892 0001:0000B2A7
 12894 0001:0000B2D6 12896 0001:0000B305 12890 0001:0000B308 12897 0001:0000B30E
 12899 0001:0000B315 12900 0001:0000B326 12902 0001:0000B357 12904 0001:0000B388
 12897 0001:0000B38B 12905 0001:0000B3B3 12912 0001:0000B3B8 12913 0001:0000B3BE
 12914 0001:0000B3C3 12916 0001:0000B3CC 12918 0001:0000B3D2 12915 0001:0000B3D5
 12919 0001:0000B3E2 12920 0001:0000B3F4 12921 0001:0000B3FE 12926 0001:0000B404
 12927 0001:0000B41D 12928 0001:0000B422 12930 0001:0000B42B 12932 0001:0000B431
 12929 0001:0000B434 12933 0001:0000B441 12934 0001:0000B460 12935 0001:0000B487
 12941 0001:0000B490 12942 0001:0000B4A9 12944 0001:0000B4D1 12947 0001:0000B4DC
 12948 0001:0000B4F2 12949 0001:0000B4F9 12948 0001:0000B50A 12950 0001:0000B510
 12953 0001:0000B543 12961 0001:0000B554 12962 0001:0000B57C 12963 0001:0000B583
 12964 0001:0000B58B 12966 0001:0000B5B3 12968 0001:0000B5C2 12969 0001:0000B5DD
 12973 0001:0000B5E5 12974 0001:0000B5F7 12975 0001:0000B617 12971 0001:0000B61A
 12979 0001:0000B62C 12980 0001:0000B637 12985 0001:0000B63C 12987 0001:0000B654
 12988 0001:0000B662 12989 0001:0000B682 12992 0001:0000B68D 12994 0001:0000B6AA
 12995 0001:0000B6BA 12997 0001:0000B6C2 12999 0001:0000B6DF 13000 0001:0000B6EF
 13002 0001:0000B6F5 13004 0001:0000B712 13005 0001:0000B722 13007 0001:0000B727
 13008 0001:0000B739 13010 0001:0000B74B 13011 0001:0000B76B 12983 0001:0000B76E
 13014 0001:0000B7A1 13122 0001:0000B7F8 13123 0001:0000B7FB 13124 0001:0000B7FD
 13125 0001:0000B7FF 13127 0001:0000B804 13138 0001:0000B808 13139 0001:0000B81A
 13140 0001:0000B82C 13143 0001:0000B854 13144 0001:0000B86B 13147 0001:0000B87A
 13148 0001:0000B886 13149 0001:0000B8A6 13150 0001:0000B8AE 13151 0001:0000B8B6
 13153 0001:0000B8C8 13154 0001:0000B8D6 13155 0001:0000B8E1 13157 0001:0000B8FC
 13159 0001:0000B921 13161 0001:0000B9A1 13162 0001:0000B9AF 13200 0001:0000B9C0
 13201 0001:0000B9CF 13202 0001:0000B9E5 13204 0001:0000B9EF 13205 0001:0000B9FE
 13206 0001:0000BA11 13207 0001:0000BA37 13212 0001:0000BA53 13213 0001:0000BA72
 13215 0001:0000BA89 13251 0001:0000BA9C 13252 0001:0000BAB7 13253 0001:0000BAE0
 13257 0001:0000BAE4 13258 0001:0000BB13 13259 0001:0000BB6B 13267 0001:0000BB74
 13268 0001:0000BB8F 13269 0001:0000BBB8 13279 0001:0000BBBC 13280 0001:0000BBEE
 13281 0001:0000BC56 13284 0001:0000BC60 13285 0001:0000BC7B 13286 0001:0000BC89
 13287 0001:0000BCAD 13291 0001:0000BCB4 13292 0001:0000BCE3 13293 0001:0000BD03
 13294 0001:0000BD44 13328 0001:0000BD4C 13329 0001:0000BD53 13330 0001:0000BD5C
 13331 0001:0000BD64 13353 0001:0000BD88 13354 0001:0000BD8E 13355 0001:0000BD93
 13356 0001:0000BD9D 13357 0001:0000BDB5 13358 0001:0000BDBB 13359 0001:0000BDD6
 13360 0001:0000BDFB 13361 0001:0000BE07 13405 0001:0000BE2C 13406 0001:0000BE38
 13408 0001:0000BE4A 13410 0001:0000BE54 13413 0001:0000BE5E 13414 0001:0000BE6D
 13417 0001:0000BE84 13419 0001:0000BE8C 13420 0001:0000BE97 13436 0001:0000BE9C
 13437 0001:0000BEC2 13438 0001:0000BEE2 13440 0001:0000BF4D 13448 0001:0000BF54
 13449 0001:0000BF56 13450 0001:0000BF59 13451 0001:0000BF5C 13452 0001:0000BF61
 13461 0001:0000BF64 13462 0001:0000BF73 13466 0001:0000BF84 13470 0001:0000BF95
 13477 0001:0000BF9C 13478 0001:0000BF9F 13479 0001:0000BFB6 13579 0001:0000BFB8
 13580 0001:0000BFC1 13582 0001:0000C01F 13584 0001:0000C025 13586 0001:0000C02B
 13590 0001:0000C031 13592 0001:0000C037 13594 0001:0000C03D 13597 0001:0000C043
 13599 0001:0000C049 13601 0001:0000C04F 13603 0001:0000C055 13605 0001:0000C05B
 13607 0001:0000C061 13609 0001:0000C068 13614 0001:0000C06C 13615 0001:0000C075
 13616 0001:0000C080 13617 0001:0000C092 13629 0001:0000C098 13630 0001:0000C0CC
 13632 0001:0000C0D5 13633 0001:0000C0DE 13635 0001:0000C0ED 13636 0001:0000C0FA
 13637 0001:0000C103 13638 0001:0000C115 13640 0001:0000C13F 13644 0001:0000C1DC
 13647 0001:0000C278 13649 0001:0000C27C 13650 0001:0000C298 13651 0001:0000C2A8
 13653 0001:0000C2BB 13654 0001:0000C2DF 13656 0001:0000C2EB 13658 0001:0000C31C
 13659 0001:0000C357 13692 0001:0000C35C 13693 0001:0000C368 13694 0001:0000C373
 13695 0001:0000C37D 13974 0001:0000C384 13975 0001:0000C387 13976 0001:0000C39E
 13977 0001:0000C3B5 13978 0001:0000C3C0 13979 0001:0000C3CB 13982 0001:0000C3D8
 13983 0001:0000C3E3 13986 0001:0000C3EE 13997 0001:0000C3FB 14004 0001:0000C408
 14007 0001:0000C40C 14008 0001:0000C40F 14010 0001:0000C418 14011 0001:0000C421
 14012 0001:0000C42B 14014 0001:0000C432 14016 0001:0000C43B 14017 0001:0000C444
 14018 0001:0000C44E 14020 0001:0000C455 14021 0001:0000C45E 14022 0001:0000C467
 14024 0001:0000C470 14025 0001:0000C479 14027 0001:0000C482 14032 0001:0000C48B
 14038 0001:0000C490 14039 0001:0000C499 14040 0001:0000C4A3 14043 0001:0000C4B3
 14044 0001:0000C4BE 14045 0001:0000C4C9 14046 0001:0000C4D4 14047 0001:0000C4DD
 14049 0001:0000C4EF 14050 0001:0000C4FA 14052 0001:0000C50C 14123 0001:0000C510
 14124 0001:0000C51C 14125 0001:0000C520 14126 0001:0000C536 14128 0001:0000C53C
 14132 0001:0000C555 14133 0001:0000C55E 14134 0001:0000C57E 14135 0001:0000C59A
 14137 0001:0000C5B8 14164 0001:0000C5BC 14165 0001:0000C5C8 14166 0001:0000C5CC
 14167 0001:0000C5D5 14168 0001:0000C5EC 14171 0001:0000C5F0 14172 0001:0000C5FC
 14173 0001:0000C600 14174 0001:0000C609 14175 0001:0000C61A 14178 0001:0000C620
 14179 0001:0000C62C 14180 0001:0000C644 14181 0001:0000C655 14186 0001:0000C65C
 14187 0001:0000C668 14188 0001:0000C66D 14189 0001:0000C680 14190 0001:0000C686
 14191 0001:0000C68F 14192 0001:0000C696 14193 0001:0000C69B 14195 0001:0000C6A3
 14196 0001:0000C6BB 14198 0001:0000C6CB 14199 0001:0000C6CE 14193 0001:0000C6D1
 14201 0001:0000C6DC 14206 0001:0000C6E0 14207 0001:0000C6EF 14208 0001:0000C6FA
 14209 0001:0000C701 14212 0001:0000C70A 14213 0001:0000C70D 14214 0001:0000C725
 14216 0001:0000C735 14210 0001:0000C738 14218 0001:0000C748 14219 0001:0000C770
 14220 0001:0000C77F 14221 0001:0000C787 14222 0001:0000C78F 14227 0001:0000C798
 14228 0001:0000C7A4 14229 0001:0000C7A9 14230 0001:0000C7BC 14232 0001:0000C7CB
 14233 0001:0000C7DE 14234 0001:0000C7F4 14236 0001:0000C7FB 14239 0001:0000C800
 14240 0001:0000C809 14245 0001:0000C810 14246 0001:0000C81C 14247 0001:0000C821
 14248 0001:0000C827 14249 0001:0000C83F 14251 0001:0000C848 14252 0001:0000C85A
 14253 0001:0000C867 14256 0001:0000C874 14257 0001:0000C87D 14262 0001:0000C884
 14268 0001:0000C88D 14269 0001:0000C896 14271 0001:0000C8A7 14273 0001:0000C8B1
 14276 0001:0000C8B8 14281 0001:0000C8C1 14283 0001:0000C8D0 14286 0001:0000C8D4
 14287 0001:0000C8E0 14289 0001:0000C8E7 14290 0001:0000C908 14291 0001:0000C91F
 14294 0001:0000C924 14295 0001:0000C930 14297 0001:0000C937 14298 0001:0000C958
 14299 0001:0000C972 14302 0001:0000C978 14303 0001:0000C984 14305 0001:0000C9BF
 14308 0001:0000C9C4 14309 0001:0000C9D3 14310 0001:0000C9D7 14311 0001:0000C9F9
 14312 0001:0000CA19 14320 0001:0000CA20 14321 0001:0000CA2C 14322 0001:0000CA37
 14323 0001:0000CA51 14324 0001:0000CA61 14332 0001:0000CA74 14333 0001:0000CA80
 14334 0001:0000CA8B 14335 0001:0000CAA5 14336 0001:0000CABA 14341 0001:0000CAC0
 14342 0001:0000CACC 14343 0001:0000CAD1 14344 0001:0000CAEB 14345 0001:0000CAF1
 14346 0001:0000CB05 14433 0001:0000CB0C 14434 0001:0000CB18 14435 0001:0000CB1D
 14436 0001:0000CB49 14437 0001:0000CB54 14438 0001:0000CB5F 14441 0001:0000CB6F
 14443 0001:0000CB80 14445 0001:0000CBA7 14451 0001:0000CBB0 14452 0001:0000CBB3
 14439 0001:0000CBC1 14454 0001:0000CBD7 14455 0001:0000CBDF 14458 0001:0000CBE4
 14459 0001:0000CBF0 14460 0001:0000CBFE 14461 0001:0000CC04 14463 0001:0000CC0A
 14465 0001:0000CC10 14466 0001:0000CC16 14467 0001:0000CC19 14463 0001:0000CC27
 14470 0001:0000CC30 14473 0001:0000CC34 14474 0001:0000CC40 14475 0001:0000CC4E
 14478 0001:0000CC54 14480 0001:0000CC6A 14486 0001:0000CC6D 14487 0001:0000CC70
 14475 0001:0000CC7E 14489 0001:0000CC87 14495 0001:0000CC8C 14496 0001:0000CCA8
 14497 0001:0000CCBC 14498 0001:0000CD00 14516 0001:0000CD04 14517 0001:0000CD0A
 14520 0001:0000CD21 14523 0001:0000CD28 14524 0001:0000CD47 14523 0001:0000CD59
 14525 0001:0000CD5E 14521 0001:0000CD62 14528 0001:0000CD7E 14562 0001:0000CD84
 14563 0001:0000CD88 14564 0001:0000CDA2 14566 0001:0000CDA8 14568 0001:0000CDB3
 14569 0001:0000CDBD 14570 0001:0000CDC7 14572 0001:0000CDD1 14573 0001:0000CDD9
 14575 0001:0000CDE7 14576 0001:0000CDEF 14578 0001:0000CDF6 14579 0001:0000CE06
 14582 0001:0000CE12 14583 0001:0000CE23 14585 0001:0000CE30 14587 0001:0000CE3B
 14588 0001:0000CE42 14593 0001:0000CE4E 14594 0001:0000CE55 14595 0001:0000CE6E
 14597 0001:0000CE77 14598 0001:0000CE7E 14602 0001:0000CE83 14603 0001:0000CE8A
 14602 0001:0000CE9A 14604 0001:0000CEA3 14605 0001:0000CEAC 14606 0001:0000CEC9
 14608 0001:0000CED0 14609 0001:0000CEE4 14611 0001:0000CEED 14606 0001:0000CEF0
 14616 0001:0000CEFB 14617 0001:0000CF0C 14618 0001:0000CF1D 14619 0001:0000CF26
 14621 0001:0000CF2D 14646 0001:0000CF54 14647 0001:0000CF72 14648 0001:0000CF77
 14649 0001:0000CF7C 14650 0001:0000CF8A 14651 0001:0000CF92 14652 0001:0000CFB2
 14653 0001:0000CFD7 14654 0001:0000CFFC 14655 0001:0000D010 14656 0001:0000D024
 14657 0001:0000D049 14658 0001:0000D05D 14659 0001:0000D08B 14660 0001:0000D0B9
 14661 0001:0000D0CD 14662 0001:0000D0F0 14663 0001:0000D113 14664 0001:0000D11B
 14665 0001:0000D123 14666 0001:0000D147 14667 0001:0000D156 14668 0001:0000D163
 14669 0001:0000D187 14670 0001:0000D1AB 14672 0001:0000D1BA 14673 0001:0000D1C7
 14674 0001:0000D1E4 14675 0001:0000D201 14676 0001:0000D244 14846 0001:0000D2E8
 14847 0001:0000D30C 14848 0001:0000D31B 14850 0001:0000D323 14852 0001:0000D32B
 14855 0001:0000D336 14856 0001:0000D357 14857 0001:0000D37C 14858 0001:0000D3A2
 14859 0001:0000D3B7 14860 0001:0000D3CC 14861 0001:0000D3F2 14862 0001:0000D407
 14863 0001:0000D436 14864 0001:0000D465 14865 0001:0000D47A 14866 0001:0000D49E
 14867 0001:0000D4C2 14868 0001:0000D4CA 14869 0001:0000D4D2 14870 0001:0000D4F6
 14871 0001:0000D505 14872 0001:0000D512 14873 0001:0000D536 14874 0001:0000D55A
 14876 0001:0000D569 14877 0001:0000D576 14878 0001:0000D594 14879 0001:0000D5B2
 14881 0001:0000D5F6 14889 0001:0000D69C 14890 0001:0000D6C8 14892 0001:0000D6CE
 14893 0001:0000D6D9 14896 0001:0000D6E6 14897 0001:0000D6F1 14899 0001:0000D6FC
 14900 0001:0000D707 14903 0001:0000D714 14904 0001:0000D722 14906 0001:0000D728
 14907 0001:0000D736 14909 0001:0000D73B 14910 0001:0000D768 14911 0001:0000D786
 14913 0001:0000D78C 14914 0001:0000D79A 14916 0001:0000D79C 14901 0001:0000D7BA
 14918 0001:0000D7EE 15443 0001:0000D7F8 15631 0001:0000D800 15632 0001:0000D819
 15633 0001:0000D821 15634 0001:0000D827 15637 0001:0000D863 15638 0001:0000D878
 15639 0001:0000D881 15640 0001:0000D8A6 15653 0001:0000D8AC 15654 0001:0000D8B5
 15655 0001:0000D8C0 15656 0001:0000D8C9 15695 0001:0000D8D0 15698 0001:0000D8D6
 15699 0001:0000D8DE 15700 0001:0000D8E8 15696 0001:0000D8F5 15702 0001:0000D8FE
 15811 0001:0000D904 15812 0001:0000D908 15813 0001:0000D915 15814 0001:0000D91B
 15815 0001:0000D92E 15816 0001:0000D937 15817 0001:0000D941 15824 0001:0000D968
 15825 0001:0000D96D 15826 0001:0000D96E 15827 0001:0000D972 15828 0001:0000D973
 15832 0001:0000D974 15833 0001:0000D979 15834 0001:0000D97A 15835 0001:0000D97E
 15836 0001:0000D97F 15840 0001:0000D980 15841 0001:0000D982 15842 0001:0000D984
 15847 0001:0000D988 15848 0001:0000D989 15849 0001:0000D98D 15896 0001:0000D990
 15897 0001:0000D9A1 15899 0001:0000D9A6 15900 0001:0000D9B3 15901 0001:0000D9BF
 15903 0001:0000D9C5 15904 0001:0000D9CB 15905 0001:0000D9D3 15901 0001:0000D9DB
 15907 0001:0000D9E1 15897 0001:0000D9E4 15908 0001:0000D9EA 15909 0001:0000DA06
 15914 0001:0000DA0C 15915 0001:0000DA15 15916 0001:0000DA1E 15917 0001:0000DA2C
 15924 0001:0000DA30 15925 0001:0000DA3C 15926 0001:0000DA47 15928 0001:0000DA4F
 15930 0001:0000DA60 15929 0001:0000DA68 15932 0001:0000DA79 15934 0001:0000DA7F
 15936 0001:0000DA8A 15938 0001:0000DA90 15939 0001:0000DA9D 15940 0001:0000DAA6
 15945 0001:0000DAB0 15946 0001:0000DAB8 15949 0001:0000DAD1 15950 0001:0000DAD9
 15958 0001:0000DAE0 15959 0001:0000DAEC 15960 0001:0000DAF6 15961 0001:0000DB00
 15966 0001:0000DB04 15967 0001:0000DB0D 15968 0001:0000DB24 15970 0001:0000DB2A
 15971 0001:0000DB3D 15973 0001:0000DB46 15974 0001:0000DB51 15977 0001:0000DB53
 15968 0001:0000DB5B 15979 0001:0000DB64 15991 0001:0000DB68 15992 0001:0000DB80
 15993 0001:0000DB8A 15994 0001:0000DB94 15995 0001:0000DBA7 15996 0001:0000DBBA
 15997 0001:0000DBC4 15998 0001:0000DBF1 16001 0001:0000DBF8 16002 0001:0000DC09
 16003 0001:0000DC11 16004 0001:0000DC1F 16005 0001:0000DC2B 16006 0001:0000DC37
 16007 0001:0000DC50 16010 0001:0000DC54 16011 0001:0000DC5B 16012 0001:0000DC67
 16015 0001:0000DC6C 16016 0001:0000DC73 16017 0001:0000DC7F 16020 0001:0000DC84
 16021 0001:0000DC8B 16022 0001:0000DC97 16025 0001:0000DC9C 16026 0001:0000DCA3
 16027 0001:0000DCB6 16030 0001:0000DCBC 16031 0001:0000DCC3 16032 0001:0000DCD6
 16052 0001:0000DCDC 16067 0001:0000DCE5 16068 0001:0000DCE9 16069 0001:0000DCF1
 16073 0001:0000DD00 16075 0001:0000DD08 16077 0001:0000DD11 16080 0001:0000DD1F
 16082 0001:0000DD2A 16083 0001:0000DD30 16098 0001:0000DD3D 16104 0001:0000DD50
 16109 0001:0000DD56 16089 0001:0000DD5E 16120 0001:0000DD75 16123 0001:0000DD7D
 16124 0001:0000DD83 16126 0001:0000DD8E 16128 0001:0000DD97 16131 0001:0000DDAA
 16135 0001:0000DDB3 16140 0001:0000DDB8 16145 0001:0000DDC1 16146 0001:0000DDCF
 16147 0001:0000DDD5 16149 0001:0000DDDE 16150 0001:0000DDE6 16154 0001:0000DDF6
 16158 0001:0000DDFE 16160 0001:0000DE06 16161 0001:0000DE0F 16165 0001:0000DE1D
 16172 0001:0000DE24 16177 0001:0000DE2D 16178 0001:0000DE3B 16179 0001:0000DE41
 16181 0001:0000DE4C 16190 0001:0000DE59 16194 0001:0000DE5F 16204 0001:0000DE69
 16207 0001:0000DE77 16208 0001:0000DE80 16211 0001:0000DE88 16216 0001:0000DE8F
 16195 0001:0000DE97 16226 0001:0000DEA6 16232 0001:0000DEAC 16236 0001:0000DEB5
 16237 0001:0000DEC3 16238 0001:0000DEC9 16240 0001:0000DED2 16243 0001:0000DEE0
 16245 0001:0000DEED 16253 0001:0000DEFB 16254 0001:0000DF04 16255 0001:0000DF0E
 16257 0001:0000DF14 16258 0001:0000DF23 16265 0001:0000DF2B 16271 0001:0000DF30
 16272 0001:0000DF39 16273 0001:0000DF41 16274 0001:0000DF48 16275 0001:0000DF50
 16280 0001:0000DF54 16281 0001:0000DF63 16282 0001:0000DF89 16287 0001:0000DF90
 16288 0001:0000DFB3 16291 0001:0000E021 16594 0001:0000E308 16600 0001:0000E32F
 16601 0001:0000E334 16603 0001:0000E484 16575 0001:0000E488 16576 0001:0000E4B6
 16577 0001:0000E4CE 16587 0001:0000E4D3 16588 0001:0000E4D8 16590 0001:0000E4DD
 16592 0001:0000E4F7

Line numbers for VarUtils(varutils.pas) segment .text

   309 0001:0000E508   310 0001:0000E510   311 0001:0000E518   313 0001:0000E520
  1071 0001:0000E528  1072 0001:0000E52C  1073 0001:0000E535  1075 0001:0000E53E
  1076 0001:0000E55B  1080 0001:0000E560  1081 0001:0000E564  1082 0001:0000E56E
  1085 0001:0000E574  1086 0001:0000E578  1087 0001:0000E582  1090 0001:0000E588
  1091 0001:0000E58C  1092 0001:0000E596  1102 0001:0000E59C  1103 0001:0000E5B5
  1104 0001:0000E5BE  1106 0001:0000E5C7  1107 0001:0000E60A  1111 0001:0000E610
  1112 0001:0000E629  1113 0001:0000E632  1115 0001:0000E63B  1116 0001:0000E67E
  1120 0001:0000E684  1121 0001:0000E69D  1122 0001:0000E6A6  1124 0001:0000E6AF
  1125 0001:0000E6F2  1129 0001:0000E6F8  1130 0001:0000E711  1131 0001:0000E71A
  1133 0001:0000E723  1134 0001:0000E766  1138 0001:0000E76C  1139 0001:0000E785
  1140 0001:0000E78E  1142 0001:0000E797  1143 0001:0000E7DA  1149 0001:0000E7E0
  1150 0001:0000E7F9  1151 0001:0000E802  1154 0001:0000E80B  1155 0001:0000E82E
  1157 0001:0000E85B  1162 0001:0000E864  1163 0001:0000E888  1164 0001:0000E891
  1167 0001:0000E89A  1168 0001:0000E8B3  1170 0001:0000E8D8  1174 0001:0000E8E0
  1175 0001:0000E904  1176 0001:0000E90D  1179 0001:0000E916  1180 0001:0000E92F
  1182 0001:0000E954  1186 0001:0000E95C  1187 0001:0000E980  1188 0001:0000E989
  1191 0001:0000E992  1192 0001:0000E9AF  1194 0001:0000E9D4  1201 0001:0000E9DC
  1210 0001:0000E9E4  1211 0001:0000E9EC  1219 0001:0000E9F4  2028 0001:0000E9FC
  2029 0001:0000EA08  2030 0001:0000EA0E  2032 0001:0000EA17  2033 0001:0000EA2A
  2034 0001:0000EA30  2036 0001:0000EA39  2038 0001:0000EA40  2039 0001:0000EA44
  2045 0001:0000EA51  2076 0001:0000EA67  2077 0001:0000EA7D  2079 0001:0000EA93
  2080 0001:0000EAA9  2081 0001:0000EABF  2082 0001:0000EAD5  2083 0001:0000EAEB
  2084 0001:0000EB01  2085 0001:0000EB17  2086 0001:0000EB2D  2087 0001:0000EB43
  2089 0001:0000EB59  2091 0001:0000EB6F  2092 0001:0000EB85  2093 0001:0000EB9B
  2094 0001:0000EBB1  2095 0001:0000EBC7  2096 0001:0000EBDD  2098 0001:0000EBF3
  2099 0001:0000EC09  2100 0001:0000EC1F  2102 0001:0000EC35  2138 0001:0000ED7C
  2139 0001:0000ED88  2140 0001:0000ED8D

Line numbers for Variants(variants.pas) segment .text

   196 0001:0000ED90   519 0001:0000F368   520 0001:0000F37B   521 0001:0000F3B9
   524 0001:0000F3BC   525 0001:0000F3E1   527 0001:0000F452   530 0001:0000F458
   531 0001:0000F46B   532 0001:0000F4A9   540 0001:0000F4AC   541 0001:0000F4D1
   543 0001:0000F542   556 0001:0000F548   557 0001:0000F55B   558 0001:0000F599
   561 0001:0000F59C   562 0001:0000F5BC   563 0001:0000F62B   564 0001:0000F635
   565 0001:0000F65B   566 0001:0000F665   567 0001:0000F68B   568 0001:0000F6B1
   569 0001:0000F6D7   570 0001:0000F6FD   571 0001:0000F723   572 0001:0000F746
   574 0001:0000F769   577 0001:0000F7E8   581 0001:0000F7F0   582 0001:0000F7F4
   583 0001:0000F7F9   586 0001:0000F7FC   587 0001:0000F7FD   588 0001:0000F801
   589 0001:0000F812   590 0001:0000F81D   592 0001:0000F828   594 0001:0000F82D
   614 0001:0000F830   615 0001:0000F843   616 0001:0000F881   621 0001:0000F884
   622 0001:0000F887   623 0001:0000F88E   624 0001:0000F893   636 0001:0000F898
   638 0001:0000F8A5   639 0001:0000F8B9   640 0001:0000F8BA   641 0001:0000F8C4
   646 0001:0000F8C8   647 0001:0000F8CD   648 0001:0000F8CF   649 0001:0000F8D9
   650 0001:0000F8FB   651 0001:0000F8FF   654 0001:0000F903   655 0001:0000F910
   657 0001:0000F91F   658 0001:0000F924   660 0001:0000F936   661 0001:0000F942
   664 0001:0000F94C   668 0001:0000F966   669 0001:0000F971   671 0001:0000F984
   674 0001:0000F993   675 0001:0000F9A2   676 0001:0000F9B6   678 0001:0000F9BE
   679 0001:0000F9DD   681 0001:0000F9F9   682 0001:0000FA11   675 0001:0000FA15
   685 0001:0000FA18   686 0001:0000FA30   685 0001:0000FA3A   690 0001:0000FA3D
   692 0001:0000FA51   695 0001:0000FA70   697 0001:0000FA7B   701 0001:0000FA88
   702 0001:0000FA99   707 0001:0000FAA0   709 0001:0000FAA5   710 0001:0000FAAE
   713 0001:0000FABB   715 0001:0000FAC2   716 0001:0000FAC7   720 0001:0000FAD1
   721 0001:0000FAD8   724 0001:0000FAE2   725 0001:0000FAE9   728 0001:0000FAF2
   729 0001:0000FAFF   733 0001:0000FB0B   734 0001:0000FB16   739 0001:0000FB1C
   740 0001:0000FB23   742 0001:0000FB29   743 0001:0000FB2E   747 0001:0000FB30
   748 0001:0000FB31   749 0001:0000FB36   750 0001:0000FB37   818 0001:0000FB38
   820 0001:0000FB45   821 0001:0000FB59   822 0001:0000FB5A   823 0001:0000FB64
   828 0001:0000FB68   829 0001:0000FB6D   830 0001:0000FB6F   831 0001:0000FB79
   832 0001:0000FB9B   833 0001:0000FB9F   836 0001:0000FBA3   837 0001:0000FBB0
   839 0001:0000FBBF   840 0001:0000FBC4   842 0001:0000FBDE   843 0001:0000FBE4
   846 0001:0000FBEE   850 0001:0000FC02   851 0001:0000FC07   853 0001:0000FC14
   856 0001:0000FC1D   857 0001:0000FC2C   858 0001:0000FC40   860 0001:0000FC48
   861 0001:0000FC67   862 0001:0000FC83   863 0001:0000FC9B   857 0001:0000FC9F
   866 0001:0000FCA2   867 0001:0000FCB9   868 0001:0000FCBD   871 0001:0000FCC2
   872 0001:0000FCCD   873 0001:0000FCD8   876 0001:0000FCE1   877 0001:0000FCF9
   876 0001:0000FD03   881 0001:0000FD06   883 0001:0000FD1A   884 0001:0000FD39
   887 0001:0000FD52   889 0001:0000FD66   894 0001:0000FD75   895 0001:0000FD87
   899 0001:0000FD90   900 0001:0000FD95   905 0001:0000FD98   907 0001:0000FDA0
   908 0001:0000FDA7   911 0001:0000FDAE   912 0001:0000FDB7   915 0001:0000FDC5
   917 0001:0000FDCC   918 0001:0000FDD1   919 0001:0000FDD6   923 0001:0000FDE3
   925 0001:0000FDEA   926 0001:0000FDED   927 0001:0000FDF3   931 0001:0000FDFD
   932 0001:0000FE04   935 0001:0000FE14   936 0001:0000FE21   940 0001:0000FE32
   941 0001:0000FE3E   944 0001:0000FE44   946 0001:0000FE4A   950 0001:0000FE4E
   954 0001:0000FE55   955 0001:0000FE5C   958 0001:0000FE63   959 0001:0000FE67
   960 0001:0000FE6D   961 0001:0000FE73   964 0001:0000FE7B   965 0001:0000FE84
  2204 0001:0000FE88  2205 0001:0000FE8E  2207 0001:0000FEB9  2210 0001:0000FEC0
  2211 0001:0000FEC6  2213 0001:0000FEF1  2216 0001:0000FEF8  2217 0001:0000FF15
  2219 0001:0000FF3B  2221 0001:0000FF4C  2222 0001:0000FF6D  2224 0001:0000FF8E
  2226 0001:0000FFB5  2231 0001:0000FFBC  2232 0001:0000FFDE  2233 0001:0000FFE7
  2234 0001:0000FFF5  2236 0001:00010018  2238 0001:00010050  2240 0001:00010082
  2245 0001:00010088  2246 0001:00010094  2247 0001:0001009D  2248 0001:000100AB
  2249 0001:000100B5  2250 0001:000100BE  2252 0001:000100D5  2254 0001:000100E5
  2260 0001:000100EC  2261 0001:00010103  2262 0001:00010111  2264 0001:00010117
  2265 0001:00010120  2266 0001:0001012E  2267 0001:00010140  2269 0001:00010158
  2272 0001:0001016B  2275 0001:00010170  2276 0001:00010193  2277 0001:000101FD
  2280 0001:00010209  2281 0001:00010212  2282 0001:0001021F  2284 0001:00010231
  2285 0001:0001024C  2286 0001:00010266  2287 0001:00010287  2288 0001:000102A8
  2289 0001:000102C5  2290 0001:000102E2  2291 0001:00010312  2292 0001:0001032D
  2293 0001:00010348  2294 0001:00010364  2295 0001:0001037F  2296 0001:0001039D
  2298 0001:000103BA  2301 0001:000103CB  2303 0001:000103E4  2304 0001:000103F4
  2305 0001:00010403  2307 0001:0001041C  2308 0001:00010425  2309 0001:00010491
  2310 0001:000104AE  2311 0001:000104CA  2312 0001:000104ED  2313 0001:00010510
  2314 0001:0001052F  2315 0001:0001054E  2316 0001:0001055F  2317 0001:0001057C
  2318 0001:00010599  2319 0001:000105B6  2320 0001:000105D3  2321 0001:000105F0
  2323 0001:0001060C  2325 0001:0001061A  2328 0001:00010630  2329 0001:00010644
  2332 0001:000106AE  2345 0001:000106B4  2346 0001:000106D3  2347 0001:000106DC
  2348 0001:000106EA  2350 0001:0001070D  2352 0001:00010738  2354 0001:00010765
  2359 0001:0001076C  2360 0001:00010778  2361 0001:00010781  2362 0001:0001078F
  2363 0001:00010799  2364 0001:000107A2  2366 0001:000107B9  2368 0001:000107C9
  2374 0001:000107D0  2375 0001:000107FA  2376 0001:00010808  2378 0001:0001080E
  2379 0001:00010817  2380 0001:00010825  2381 0001:00010834  2383 0001:00010862
  2386 0001:00010892  2389 0001:00010898  2390 0001:000108BC  2391 0001:00010926
  2394 0001:00010932  2395 0001:0001093B  2396 0001:00010948  2398 0001:0001095A
  2399 0001:00010975  2400 0001:0001098F  2401 0001:000109B0  2402 0001:000109D1
  2403 0001:000109EE  2404 0001:00010A0B  2405 0001:00010A2E  2406 0001:00010A49
  2407 0001:00010A64  2408 0001:00010A80  2409 0001:00010A9B  2410 0001:00010AB9
  2412 0001:00010AD6  2415 0001:00010AE7  2417 0001:00010B00  2418 0001:00010B10
  2419 0001:00010B1F  2421 0001:00010B38  2422 0001:00010B41  2423 0001:00010BAD
  2424 0001:00010BCA  2425 0001:00010BE6  2426 0001:00010C09  2427 0001:00010C2C
  2428 0001:00010C4B  2429 0001:00010C6A  2430 0001:00010C7B  2431 0001:00010C98
  2432 0001:00010CB5  2433 0001:00010CD2  2434 0001:00010CEF  2435 0001:00010D0C
  2437 0001:00010D28  2439 0001:00010D36  2442 0001:00010D4C  2443 0001:00010D60
  2446 0001:00010DF1  2523 0001:00010DF8  2524 0001:00010E01  2525 0001:00010E08
  2526 0001:00010E0F  2527 0001:00010E18  2529 0001:00010E28  2530 0001:00010E2D
  2531 0001:00010E30  2590 0001:00010E34  2591 0001:00010E3A  2592 0001:00010E41
  2593 0001:00010E48  2594 0001:00010E4D  2595 0001:00010E59  2630 0001:00010E60
  2631 0001:00010E66  2632 0001:00010E6D  2633 0001:00010E74  2634 0001:00010E79
  2635 0001:00010E83  2639 0001:00010E88  2640 0001:00010E89  2641 0001:00010E8E
  2642 0001:00010E8F  2643 0001:00010E94  2644 0001:00010E97  2645 0001:00010E98
  2649 0001:00010E9C  2650 0001:00010E9D  2651 0001:00010EA2  2652 0001:00010EA3
  2653 0001:00010EA8  2654 0001:00010EAB  2655 0001:00010EAC  2659 0001:00010EB0
  2660 0001:00010EB1  2661 0001:00010EB6  2662 0001:00010EB7  2663 0001:00010EBC
  2664 0001:00010EBF  2665 0001:00010EC0  2668 0001:00010EC4  2669 0001:00010ECA
  2670 0001:00010ED1  2671 0001:00010ED8  2672 0001:00010EDD  2673 0001:00010EE2
  2674 0001:00010EEC  2682 0001:00010EF0  2683 0001:00010EF6  2684 0001:00010EFD
  2685 0001:00010F04  2686 0001:00010F09  2687 0001:00010F0E  2688 0001:00010F23
  3942 0001:00010F28  3943 0001:00010F2C  3944 0001:00010F2E  3945 0001:00010F31
  3946 0001:00010F34  3947 0001:00010F37  3948 0001:00010F39  3949 0001:00010F3E
  3950 0001:00010F40  3951 0001:00010F45  3953 0001:00010F48  3963 0001:000110AC
  3964 0001:000110D2  3965 0001:000110DF  3966 0001:000110F5  3967 0001:000110FC
  3968 0001:0001110D  3969 0001:00011114  3970 0001:00011122  3971 0001:00011130
  3973 0001:0001116B  3975 0001:00011193  3976 0001:00011198  3977 0001:000111A6
  3978 0001:000111AB  3979 0001:000111D9  4194 0001:0001121C  4195 0001:00011222
  4196 0001:00011229  4197 0001:0001122E  4198 0001:00011231  4210 0001:00011234
  4211 0001:0001123E  5008 0001:00011264  5009 0001:0001126E  5010 0001:00011278
  5011 0001:00011286  5012 0001:00011295  5013 0001:000112A2  5011 0001:000112A8
  5015 0001:000112BA  5017 0001:000112CC  5023 0001:000112D0  5024 0001:000112D3
  5025 0001:000112D8  5030 0001:000112DC  5031 0001:000112E6  5032 0001:000112F4
  5034 0001:00011308  5035 0001:0001130F  5041 0001:00011314  5042 0001:00011327
  5044 0001:0001133C  5046 0001:0001134C  5047 0001:00011353  5051 0001:0001135C
  5052 0001:0001135F  5053 0001:00011364  5068 0001:00011368  5069 0001:00011373
  5070 0001:00011380  5071 0001:00011395  5077 0001:000113A0  5078 0001:000113AB
  5079 0001:000113BA  5081 0001:000113CC  5082 0001:000113D3  5123 0001:000113DC
  5124 0001:000113ED  5125 0001:000113F7  5126 0001:00011405  5127 0001:00011411
  5129 0001:00011434  5132 0001:00011446  5133 0001:00011462  5137 0001:00011468
  5138 0001:0001146A  5142 0001:0001146C  5143 0001:0001146F  5144 0001:00011479
  5145 0001:0001147B  5150 0001:00011480  5151 0001:00011485  5152 0001:00011487
  5156 0001:00011488  5157 0001:0001148D  5161 0001:00011490  5162 0001:00011495
  5166 0001:00011498  5167 0001:0001149D  5171 0001:000114A0  5172 0001:000114A3
  5173 0001:000114AD  5174 0001:000114AF  5192 0001:000114B4  5193 0001:000114B9
  5253 0001:000114BC  5254 0001:000114BF  5255 0001:000114C4  5273 0001:000114C8
  5274 0001:000114CB  5275 0001:000114CE  5278 0001:000114D4  5279 0001:000114D7
  5280 0001:000114DA  5285 0001:000114E0  5286 0001:000114E7  5287 0001:000114F8
  5289 0001:000114FC  5290 0001:00011501  5541 0001:00011508  5543 0001:00011513
  5545 0001:00011533  5547 0001:00011539  5548 0001:00011543  5549 0001:00011551
  5550 0001:0001156C  5552 0001:00011572  5553 0001:00011580  5557 0001:000115A5
  5560 0001:000115BA  5566 0001:000115C0  5567 0001:000115E5  5568 0001:000115E9
  5569 0001:000115F3  5570 0001:00011601  5572 0001:00011614  5573 0001:0001161C
  5576 0001:00011652  5577 0001:00011657  5578 0001:0001165B  5580 0001:0001165D
  5570 0001:0001165E  5582 0001:0001166E  5584 0001:000116A0  5593 0001:000116A8
  5594 0001:000116AD  5776 0001:000116B0  5777 0001:000116CE  5778 0001:00011726
  5760 0001:00011728  5761 0001:00011742  5763 0001:0001174C  5764 0001:00011756
  5765 0001:00011760  5766 0001:0001176B  5768 0001:00011770  5769 0001:0001177D
  5770 0001:0001178A  5771 0001:00011797  5772 0001:000117A4  5774 0001:000117B1
  5775 0001:000117D0

Line numbers for RTLConsts(RTLConsts.pas) segment .text

   319 0001:000118F4   319 0001:000118FB

Line numbers for TypInfo(TypInfo.pas) segment .text

   693 0001:00011928   694 0001:0001192A   695 0001:0001192D   696 0001:00011931
   702 0001:00011934   703 0001:00011957   705 0001:0001195F   706 0001:0001196A
   708 0001:0001196F   709 0001:00011984   713 0001:00011998   714 0001:000119B1
   715 0001:000119C6   719 0001:000119E0   720 0001:000119E9   722 0001:000119EF
   723 0001:000119F9   720 0001:000119FC   725 0001:00011A02   727 0001:00011A2A
   736 0001:00011A3C   737 0001:00011A3D   738 0001:00011A3E   740 0001:00011A3F
   741 0001:00011A41   744 0001:00011A43   745 0001:00011A45   746 0001:00011A48
   747 0001:00011A4C   748 0001:00011A4E   749 0001:00011A51   752 0001:00011A55
   755 0001:00011A59   760 0001:00011A5B   761 0001:00011A5D   762 0001:00011A60
   766 0001:00011A62   767 0001:00011A66   768 0001:00011A69   769 0001:00011A6C
   770 0001:00011A6E   771 0001:00011A6F   774 0001:00011A71   777 0001:00011A73
   779 0001:00011A75   780 0001:00011A76   781 0001:00011A7A   782 0001:00011A7C
   786 0001:00011A7E   789 0001:00011A81   790 0001:00011A82   791 0001:00011A83
   792 0001:00011A84   795 0001:00011A88   796 0001:00011A94   797 0001:00011A9C
   801 0001:00011AA9   803 0001:00011AB7   804 0001:00011AC9   805 0001:00011AD0
   806 0001:00011AE2   808 0001:00011AEB   811 0001:00011AF8   813 0001:00011B09
   821 0001:00011B10   822 0001:00011B11   823 0001:00011B12   825 0001:00011B13
   826 0001:00011B15   828 0001:00011B17   829 0001:00011B19   830 0001:00011B1B
   831 0001:00011B1D   832 0001:00011B20   833 0001:00011B22   836 0001:00011B28
   837 0001:00011B2A   838 0001:00011B2D   839 0001:00011B31   840 0001:00011B34
   841 0001:00011B39   842 0001:00011B3B   843 0001:00011B3D   846 0001:00011B41
   847 0001:00011B45   848 0001:00011B48   849 0001:00011B4A   852 0001:00011B4C
   853 0001:00011B4E   854 0001:00011B4F   855 0001:00011B53   858 0001:00011B55
   859 0001:00011B58   860 0001:00011B5A   861 0001:00011B5C   862 0001:00011B5E
   865 0001:00011B60   866 0001:00011B62   867 0001:00011B65   868 0001:00011B68
   871 0001:00011B6A   874 0001:00011B6C   875 0001:00011B70   876 0001:00011B74
   877 0001:00011B77   878 0001:00011B79   879 0001:00011B7A   882 0001:00011B7C
   883 0001:00011B7D   884 0001:00011B7E   885 0001:00011B7F  1158 0001:00011B80
  1159 0001:00011B81  1160 0001:00011B82  1161 0001:00011B84  1162 0001:00011B86
  1163 0001:00011B88  1164 0001:00011B8B  1165 0001:00011B8D  1166 0001:00011B8F
  1167 0001:00011B92  1169 0001:00011B96  1170 0001:00011B99  1171 0001:00011B9D
  1172 0001:00011BA0  1173 0001:00011BA2  1176 0001:00011BA4  1177 0001:00011BA7
  1178 0001:00011BA9  1179 0001:00011BAB  1182 0001:00011BAD  1183 0001:00011BAF
  1186 0001:00011BB1  1187 0001:00011BB7  1188 0001:00011BB9  1189 0001:00011BBB
  1190 0001:00011BBE  1191 0001:00011BC0  1192 0001:00011BC3  1193 0001:00011BC6
  1194 0001:00011BC8  1196 0001:00011BCA  1197 0001:00011BCD  1198 0001:00011BCF
  1199 0001:00011BD2  1200 0001:00011BD4  1201 0001:00011BD7  1202 0001:00011BDA
  1203 0001:00011BDC  1204 0001:00011BE1  1206 0001:00011BE4  1207 0001:00011BE7
  1208 0001:00011BE9  1210 0001:00011BEE  1211 0001:00011BEF  1212 0001:00011BF0
  1221 0001:00011BF4  1222 0001:00011BF5  1223 0001:00011BF6  1224 0001:00011BF7
  1226 0001:00011BF9  1227 0001:00011BFB  1228 0001:00011BFD  1229 0001:00011BFF
  1230 0001:00011C02  1231 0001:00011C04  1232 0001:00011C06  1233 0001:00011C09
  1235 0001:00011C0D  1236 0001:00011C10  1237 0001:00011C16  1238 0001:00011C18
  1240 0001:00011C1A  1241 0001:00011C1D  1242 0001:00011C21  1243 0001:00011C23
  1246 0001:00011C25  1247 0001:00011C28  1248 0001:00011C2A  1249 0001:00011C2C
  1252 0001:00011C2E  1253 0001:00011C30  1256 0001:00011C32  1257 0001:00011C38
  1258 0001:00011C3A  1259 0001:00011C3C  1260 0001:00011C3F  1261 0001:00011C41
  1262 0001:00011C44  1263 0001:00011C47  1264 0001:00011C49  1266 0001:00011C4B
  1267 0001:00011C4C  1268 0001:00011C4D  1269 0001:00011C4E  1451 0001:00011C50
  1452 0001:00011C51  1453 0001:00011C52  1455 0001:00011C54  1456 0001:00011C57
  1457 0001:00011C5D  1458 0001:00011C5F  1460 0001:00011C61  1461 0001:00011C64
  1462 0001:00011C68  1463 0001:00011C6A  1466 0001:00011C6C  1467 0001:00011C6F
  1468 0001:00011C71  1469 0001:00011C73  1472 0001:00011C76  1473 0001:00011C78
  1476 0001:00011C7B  1477 0001:00011C81  1478 0001:00011C83  1479 0001:00011C85
  1480 0001:00011C87  1481 0001:00011C89  1482 0001:00011C8B  1483 0001:00011C8E
  1485 0001:00011C92  1486 0001:00011C93  1487 0001:00011C95  1488 0001:00011C97
  1490 0001:00011C99  1491 0001:00011C9A  1492 0001:00011C9C  1494 0001:00011C9E
  1495 0001:00011C9F  1496 0001:00011CA0  1511 0001:00011CA4  1512 0001:00011CB6
  1513 0001:00011CC9  1514 0001:00011CDA  1517 0001:00011CE0  1518 0001:00011CEC
  1519 0001:00011CF7  1570 0001:00011CFC  1571 0001:00011CFD  1572 0001:00011CFE
  1574 0001:00011D00  1575 0001:00011D03  1576 0001:00011D09  1577 0001:00011D0B
  1579 0001:00011D0D  1580 0001:00011D10  1581 0001:00011D14  1582 0001:00011D16
  1585 0001:00011D18  1586 0001:00011D1B  1587 0001:00011D1D  1588 0001:00011D1F
  1591 0001:00011D22  1592 0001:00011D24  1595 0001:00011D27  1596 0001:00011D2D
  1597 0001:00011D2F  1598 0001:00011D31  1601 0001:00011D36  1602 0001:00011D37
  1603 0001:00011D38  1615 0001:00011D3C  1616 0001:00011D5F  1617 0001:00011D6A
  1618 0001:00011D95  1633 0001:00011D9C  1634 0001:00011DAB  1635 0001:00011DC2
  1636 0001:00011DD2  1637 0001:00011DE2  1639 0001:00011DF0  1692 0001:00011DF4
  1693 0001:00011E17  1695 0001:00011E31  1698 0001:00011E4F  1699 0001:00011E58
  1701 0001:00011E67  1702 0001:00011E75  1706 0001:00011E82  1708 0001:00011E91
  1711 0001:00011EA3  1713 0001:00011EA9  1714 0001:00011EAF  1715 0001:00011EBB
  1717 0001:00011EC6  1721 0001:00011EF2  1789 0001:00011EF8  1790 0001:00011F04
  1791 0001:00011F0D  1793 0001:00011F1E  1795 0001:00011F31  1796 0001:00011F3F
  1797 0001:00011F68  1798 0001:00011F76  1799 0001:00011F84  1800 0001:00011F9F
  1801 0001:00011FAD  1806 0001:00011FC1  1808 0001:00011FD0  1811 0001:00011FE2
  1813 0001:00011FE8  1814 0001:00011FEE  1816 0001:00011FFE  1817 0001:00012027
  1818 0001:0001203C  1819 0001:00012051  1820 0001:00012067  1821 0001:0001207C
  1826 0001:00012097  1827 0001:000120C0  1828 0001:000120D8  1829 0001:000120F0
  1830 0001:00012109  1831 0001:00012121  1835 0001:0001213D  1838 0001:00012148
  1839 0001:00012154  1840 0001:0001215F  1890 0001:00012164  1891 0001:00012165
  1892 0001:00012166  1894 0001:00012168  1895 0001:0001216B  1896 0001:00012171
  1897 0001:00012173  1899 0001:00012175  1900 0001:00012178  1901 0001:0001217C
  1902 0001:0001217E  1905 0001:00012180  1906 0001:00012183  1907 0001:00012185
  1908 0001:00012187  1911 0001:0001218A  1912 0001:0001218C  1915 0001:0001218F
  1916 0001:00012195  1917 0001:00012197  1918 0001:00012199  1921 0001:0001219E
  1922 0001:0001219F  1923 0001:000121A0  1976 0001:000121A4  1977 0001:000121A5
  1978 0001:000121A8  1979 0001:000121AC  1980 0001:000121AE  1981 0001:000121B1
  1982 0001:000121B4  1983 0001:000121B6  1986 0001:000121B8  1987 0001:000121BB
  1988 0001:000121BD  1989 0001:000121BF  1992 0001:000121C1  1993 0001:000121C3
  1996 0001:000121C5  1997 0001:000121CB  1998 0001:000121CD  1999 0001:000121CF
  2000 0001:000121D2  2001 0001:000121D4  2004 0001:000121D7  2005 0001:000121D8
  2043 0001:000121DC  2047 0001:000121DF  2048 0001:000121E3  2049 0001:000121E6
  2050 0001:000121E8  2051 0001:000121EB  2052 0001:000121EE  2053 0001:000121F1
  2056 0001:000121F3  2057 0001:000121F6  2058 0001:000121F8  2059 0001:000121FA
  2062 0001:000121FC  2063 0001:000121FE  2066 0001:00012200  2067 0001:00012206
  2068 0001:00012208  2069 0001:0001220B  2070 0001:0001220E  2071 0001:00012210
  2074 0001:00012213  2130 0001:00012218  2131 0001:00012227  2132 0001:00012230
  2134 0001:0001223F  2135 0001:0001224D  2139 0001:0001225A  2141 0001:00012269
  2144 0001:0001227B  2146 0001:00012281  2147 0001:00012287  2148 0001:00012293
  2150 0001:0001229E  2152 0001:000122AD  2154 0001:00012304  2154 0001:0001230B

Line numbers for ActiveX(ActiveX.pas) segment .text

  6690 0001:0001233C  6690 0001:00012343

Line numbers for Classes(classes.pas) segment .text

  1288 0001:00012F10  1783 0001:000131C8  1784 0001:000131E3  1785 0001:000131ED
  1786 0001:000131FF  1787 0001:00013211  1788 0001:00013223  1789 0001:0001324C
  1792 0001:00013250  1793 0001:00013261  1794 0001:0001326F  1795 0001:0001327A
  1796 0001:00013285  1797 0001:0001329E  1802 0001:000132A4  1803 0001:000132B0
  1805 0001:000132C9  1806 0001:000132DA  1807 0001:000132E9  1803 0001:000132EC
  1808 0001:000132F1  1809 0001:00013302  1811 0001:00013308  1812 0001:00013319
  1814 0001:0001331B  1815 0001:00013323  1868 0001:00013328  1869 0001:00013334
  1870 0001:00013353  1875 0001:00013358  1883 0001:00013364  1884 0001:00013376
  1885 0001:00013390  1883 0001:000133A1  1886 0001:000133A7  1887 0001:000133B9
  1888 0001:000133D3  1886 0001:000133E4  1889 0001:000133EA  1890 0001:000133FE
  1891 0001:00013418  1889 0001:00013429  1892 0001:0001342F  1917 0001:00013434
  1918 0001:0001344C  1919 0001:00013456  1920 0001:00013468  1922 0001:00013474
  1923 0001:00013489  1924 0001:00013497  1925 0001:000134B9  1930 0001:000134C0
  1931 0001:000134D1  1932 0001:000134DD  1933 0001:000134F6  1932 0001:0001350C
  1934 0001:00013511  1935 0001:0001351C  1936 0001:00013538  1954 0001:0001353C
  1955 0001:00013548  1956 0001:0001354D  1957 0001:00013566  1959 0001:00013577
  1960 0001:0001358E  1961 0001:00013594  1956 0001:00013597  1962 0001:0001359F
  2019 0001:000135A4  2020 0001:000135AB  2021 0001:000135B7  2063 0001:000135BC
  2064 0001:000135C3  2065 0001:000135CF  2079 0001:000135D4  2080 0001:000135E0
  2082 0001:000135F2  2083 0001:00013603  2084 0001:0001360E  2086 0001:0001361A
  2087 0001:00013622  2089 0001:00013630  2080 0001:00013633  2090 0001:00013639
  2132 0001:00013640  2133 0001:0001364C  2134 0001:00013651  2135 0001:0001365B
  2136 0001:00013669  2137 0001:00013682  2139 0001:00013693  2140 0001:000136A1
  2141 0001:000136AE  2136 0001:000136B1  2143 0001:000136C3  2145 0001:000136D8
  2171 0001:000136DC  2172 0001:000136DF  2173 0001:000136E1  2174 0001:000136E3
  2176 0001:000136E6  2179 0001:000136E8  2180 0001:00013704  2181 0001:00013752
  2184 0001:00013758  2185 0001:00013761  2186 0001:0001376B  2187 0001:00013779
  2189 0001:00013796  2191 0001:000137AB  2249 0001:000137B0  2250 0001:000137B7
  2251 0001:000137C1  2252 0001:000137CF  2254 0001:000137E9  2256 0001:000137FB
  2411 0001:00013800  2412 0001:00013809  2413 0001:0001380E  2414 0001:0001381B
  2415 0001:00013829  2416 0001:00013838  2417 0001:00013846  2419 0001:00013851
  2420 0001:0001385A  2421 0001:00013861  2415 0001:00013864  2423 0001:00013877
  2425 0001:0001388C  2475 0001:00013890  2476 0001:0001389A  2477 0001:0001389F
  2479 0001:000138A8  2481 0001:000138B9  2482 0001:000138D0  2483 0001:000138D6
  2479 0001:000138D9  2485 0001:000138E2  2746 0001:000138E8  2747 0001:000138F9
  2748 0001:0001390F  2751 0001:00013914  2752 0001:00013921  2753 0001:0001392A
  2754 0001:00013935  2755 0001:0001393C  2756 0001:0001394B  2757 0001:00013951
  2758 0001:00013957  2759 0001:00013967  2762 0001:0001396C  2763 0001:00013973
  2764 0001:0001397D  2765 0001:00013987  2770 0001:0001398C  2771 0001:00013999
  2772 0001:000139AA  2773 0001:000139BD  2774 0001:000139CB  2775 0001:000139D1
  2776 0001:000139DC  2778 0001:00013A08  2779 0001:00013A0E  2780 0001:00013A1B
  2785 0001:00013A20  2786 0001:00013A23  2787 0001:00013A26  2789 0001:00013A28
  2790 0001:00013A37  2791 0001:00013A63  2794 0001:00013A68  2795 0001:00013A8B
  2796 0001:00013AC3  2824 0001:00013AC8  2825 0001:00013AD4  2826 0001:00013AE5
  2827 0001:00013AF8  2828 0001:00013B0A  2833 0001:00013B10  2834 0001:00013B19
  2835 0001:00013B22  2837 0001:00013B37  2838 0001:00013B40  2840 0001:00013B49
  2841 0001:00013B50  2842 0001:00013B61  2845 0001:00013B68  2846 0001:00013B74
  2848 0001:00013B7B  2847 0001:00013B7E  2849 0001:00013B9A  2850 0001:00013BA5
  2851 0001:00013BAF  2869 0001:00013BB4  2870 0001:00013BBD  2871 0001:00013BD2
  2892 0001:00013BD8  2893 0001:00013BE8  2894 0001:00013BF9  2895 0001:00013C0C
  2897 0001:00013C1D  2898 0001:00013C2C  2899 0001:00013C3B  2900 0001:00013C41
  2901 0001:00013C4E  2902 0001:00013C54  2904 0001:00013C61  2907 0001:00013C68
  2908 0001:00013C74  2909 0001:00013C82  2910 0001:00013C88  2911 0001:00013C96
  2923 0001:00013C9C  2924 0001:00013CA8  2925 0001:00013CBC  2926 0001:00013CCF
  2928 0001:00013CDA  2929 0001:00013CEB  2931 0001:00013CF4  2936 0001:00013CF8
  2937 0001:00013D04  2938 0001:00013D13  2939 0001:00013D26  2940 0001:00013D31
  2941 0001:00013D3C  2942 0001:00013D47  2944 0001:00013D6B  2945 0001:00013D80
  2944 0001:00013D8E  2946 0001:00013D93  2947 0001:00013D9C  2954 0001:00013DA0
  2956 0001:00013DAF  2957 0001:00013DB5  2958 0001:00013DBB  2961 0001:00013DCE
  2960 0001:00013DD1  2963 0001:00013DE6  2962 0001:00013DE9  2964 0001:00013DFC
  2966 0001:00013E04  2967 0001:00013E10  2968 0001:00013E22  2969 0001:00013E2E
  2970 0001:00013E31  2972 0001:00013E34  2973 0001:00013E3C  2974 0001:00013E44
  2975 0001:00013E56  2976 0001:00013E5C  2977 0001:00013E68  2980 0001:00013E70
  2981 0001:00013E7C  2982 0001:00013E8E  2983 0001:00013EA6  2988 0001:00013EAC
  2989 0001:00013EB9  2990 0001:00013EBE  2991 0001:00013ECC  2993 0001:00013ED2
  2994 0001:00013ED8  2995 0001:00013EE6  2996 0001:00013EF1  2998 0001:00013F01
  3001 0001:00013F08  3002 0001:00013F17  3090 0001:00013F1C  3091 0001:00013F34
  3092 0001:00013F3E  3093 0001:00013F4A  3094 0001:00013F5C  3095 0001:00013F7E
  3098 0001:00013F84  3099 0001:00013F95  3100 0001:00013F9D  3101 0001:00013FAB
  3102 0001:00013FB6  3104 0001:00013FD1  3105 0001:00013FD9  3107 0001:00013FFB
  3110 0001:00014000  3111 0001:0001400C  3112 0001:00014014  3113 0001:00014022
  3115 0001:0001403C  3116 0001:0001404C  3117 0001:00014055  3119 0001:00014078
  3121 0001:00014088  3134 0001:0001408C  3135 0001:00014095  3136 0001:000140A1
  3137 0001:000140AD  3150 0001:000140B4  3151 0001:000140BB  3152 0001:000140C7
  3478 0001:000140CC  3479 0001:000140DD  3480 0001:000140E5  3481 0001:00014101
  3484 0001:00014108  3485 0001:00014114  3486 0001:00014130  3491 0001:00014134
  3492 0001:00014156  3493 0001:0001415C  3494 0001:0001417C  3495 0001:00014189
  3496 0001:000141F9  3499 0001:0001420C  3500 0001:00014218  3501 0001:00014223
  3504 0001:00014228  3505 0001:00014234  3510 0001:00014238  3511 0001:0001425B
  3512 0001:00014279  3514 0001:00014289  3515 0001:000142A1  3516 0001:000142A7
  3518 0001:000142DE  3521 0001:000142F0  3522 0001:000142F9  3523 0001:00014301
  3735 0001:00014308  3736 0001:00014311  3737 0001:00014322  3738 0001:00014330
  3770 0001:00014334  3771 0001:0001433B  3773 0001:00014347  3774 0001:0001434F
  3776 0001:0001435F  3775 0001:0001436F  3778 0001:00014388  3781 0001:00014398
  3977 0001:0001439C  3978 0001:000143AD  3979 0001:000143B7  3980 0001:000143D3
  3983 0001:000143D8  3984 0001:000143E5  3985 0001:000143F0  3986 0001:00014401
  3989 0001:00014408  3990 0001:00014418  3991 0001:00014426  3992 0001:00014437
  4002 0001:0001443C  4003 0001:0001445C  4004 0001:00014464  4005 0001:00014472
  4006 0001:0001448A  4005 0001:000144B5  4008 0001:000144C7  4010 0001:000144F4
  4013 0001:000144FC  4014 0001:00014508  4016 0001:0001451A  4017 0001:00014522
  4018 0001:00014530  4019 0001:00014538  4020 0001:00014544  4021 0001:00014550
  4022 0001:0001455C  4023 0001:00014568  4025 0001:00014580  4029 0001:00014590
  4030 0001:0001459B  4033 0001:000145A0  4034 0001:000145A7  4035 0001:000145BA
  4036 0001:000145C0  4041 0001:000145C4  4042 0001:000145C8  4044 0001:000145D4
  4045 0001:000145D8  4046 0001:000145F0  4048 0001:0001460B  4049 0001:0001461F
  4051 0001:00014624  4052 0001:00014631  4053 0001:00014659  4056 0001:00014670
  4057 0001:00014677  4058 0001:0001467D  4059 0001:00014690  4064 0001:00014694
  4065 0001:000146B7  4066 0001:000146BB  4067 0001:000146C6  4068 0001:000146D3
  4069 0001:00014719  4070 0001:00014742  4075 0001:00014748  4076 0001:0001474B
  4077 0001:0001474E  4079 0001:00014750  4080 0001:0001475F  4081 0001:0001478B
  4084 0001:00014790  4085 0001:000147B3  4086 0001:000147E9  4092 0001:000147F0
  4093 0001:00014816  4094 0001:0001481E  4095 0001:0001482C  4096 0001:0001483A
  4097 0001:00014848  4098 0001:00014864  4099 0001:0001487C  4100 0001:0001488A
  4102 0001:000148A5  4104 0001:000148D7  4118 0001:000148DC  4119 0001:000148E5
  4120 0001:000148F3  4177 0001:000148F8  4178 0001:00014904  4179 0001:0001490C
  4182 0001:00014910  4183 0001:0001492C  4184 0001:00014967  4191 0001:0001496C
  4192 0001:00014992  4193 0001:0001499D  4194 0001:000149A2  4195 0001:000149AF
  4196 0001:000149EF  4197 0001:000149FC  4198 0001:00014A04  4200 0001:00014A17
  4201 0001:00014A25  4202 0001:00014A30  4204 0001:00014A36  4205 0001:00014A44
  4207 0001:00014A4A  4208 0001:00014A55  4210 0001:00014A5B  4211 0001:00014A69
  4213 0001:00014A6F  4198 0001:00014A72  4214 0001:00014AA1  4227 0001:00014AB4
  4228 0001:00014AD4  4229 0001:00014AEC  4228 0001:00014B0F  4230 0001:00014B14
  4231 0001:00014B3B  4237 0001:00014B40  4238 0001:00014B66  4240 0001:00014B7E
  4241 0001:00014B8C  4242 0001:00014BAC  4243 0001:00014BD9  4238 0001:00014BDC
  4244 0001:00014BE1  4245 0001:00014C15  4248 0001:00014C1C  4249 0001:00014C28
  4250 0001:00014C40  4249 0001:00014C53  4251 0001:00014C58  4252 0001:00014C62
  4256 0001:00014C68  4257 0001:00014C78  4258 0001:00014C86  4259 0001:00014C94
  4264 0001:00014C9C  4265 0001:00014CA8  4266 0001:00014CBC  4267 0001:00014CCA
  4269 0001:00014CE2  4271 0001:00014CF2  4277 0001:00014CF8  4278 0001:00014D18
  4279 0001:00014D20  4280 0001:00014D2E  4281 0001:00014D44  4282 0001:00014D51
  4283 0001:00014D5F  4285 0001:00014D77  4287 0001:00014DA4  4293 0001:00014DAC
  4294 0001:00014DCF  4296 0001:00014DD7  4297 0001:00014DDF  4298 0001:00014DED
  4299 0001:00014DFB  4300 0001:00014E09  4301 0001:00014E14  4303 0001:00014E33
  4306 0001:00014E60  4311 0001:00014E68  4312 0001:00014E78  4313 0001:00014E86
  4314 0001:00014E91  4315 0001:00014EA3  4318 0001:00014EA8  4319 0001:00014EB7
  4322 0001:00014EBC  4323 0001:00014EDB  4324 0001:00014EE3  4325 0001:00014EEB
  4326 0001:00014EF9  4327 0001:00014F03  4329 0001:00014F32  4331 0001:00014F42
  4332 0001:00014F67  4337 0001:00014F6C  4338 0001:00014F78  4339 0001:00014F8F
  4340 0001:00014F9D  4342 0001:00014FB5  4344 0001:00014FC5  4349 0001:00014FCC
  4350 0001:00014FEB  4351 0001:00014FF6  4352 0001:00015028  4355 0001:0001502C
  4357 0001:00015038  4367 0001:0001503C  4368 0001:00015048  4369 0001:0001505C
  4370 0001:0001506A  4371 0001:00015081  4374 0001:00015088  4375 0001:000150A7
  4376 0001:000150DA  4382 0001:000150E0  4383 0001:000150FF  4384 0001:00015107
  4385 0001:00015115  4386 0001:0001511D  4387 0001:00015123  4390 0001:0001512B
  4391 0001:00015133  4392 0001:00015147  4393 0001:00015158  4394 0001:00015163
  4395 0001:0001516E  4388 0001:00015179  4398 0001:0001518E  4400 0001:000151BB
  4403 0001:000151C0  4404 0001:000151CC  4424 0001:000151D0  4425 0001:000151F0
  4426 0001:000151F8  4427 0001:00015231  4428 0001:00015256  4524 0001:0001525C
  4525 0001:0001526B  4526 0001:0001527C  4529 0001:00015280  4530 0001:00015289
  4531 0001:00015292  4532 0001:0001529C  4533 0001:000152A8  4536 0001:000152AC
  4537 0001:000152B8  4539 0001:000152CC  4540 0001:000152D3  4542 0001:000152DC
  4565 0001:000152E0  4566 0001:000152F1  4567 0001:000152FC  4568 0001:00015307
  4569 0001:00015315  4570 0001:00015335  4571 0001:0001533D  4572 0001:00015355
  4575 0001:0001535C  4576 0001:00015369  4577 0001:0001537C  4580 0001:00015384
  4581 0001:00015394  4582 0001:0001539D  4584 0001:000153A8  4585 0001:000153BD
  4587 0001:000153CD  4589 0001:000153DD  4590 0001:000153F5  4593 0001:000153FC
  4594 0001:00015404  4595 0001:00015417  4596 0001:00015423  4599 0001:00015428
  4600 0001:00015430  4601 0001:00015443  4602 0001:0001544F  4605 0001:00015454
  4606 0001:0001545B  4608 0001:00015464  4609 0001:0001546F  4610 0001:00015486
  4611 0001:0001548E  4612 0001:00015498  4614 0001:000154A3  4617 0001:000154A8
  4618 0001:000154B5  4619 0001:000154D7  4620 0001:000154E2  4621 0001:000154F9
  4622 0001:000154FF  4623 0001:0001550A  4625 0001:00015536  4626 0001:00015541
  4629 0001:00015548  4630 0001:00015557  4631 0001:00015579  4632 0001:0001559B
  4633 0001:000155A6  4634 0001:000155B4  4635 0001:000155BF  4641 0001:000155C4
  4642 0001:000155D3  4643 0001:000155E2  4644 0001:000155F1  4645 0001:000155F9
  4646 0001:00015603  4647 0001:0001560B  4648 0001:00015614  4649 0001:00015620
  4650 0001:00015629  4655 0001:00015630  4656 0001:00015640  4657 0001:00015644
  4658 0001:00015649  4659 0001:00015653  4661 0001:0001565B  4662 0001:00015666
  4663 0001:00015680  4665 0001:0001568F  4666 0001:00015696  4668 0001:0001569C
  4669 0001:000156A0  4659 0001:000156AF  4673 0001:000156B7  4674 0001:000156C2
  4677 0001:000156C8  4678 0001:000156D7  4679 0001:000156F9  4680 0001:0001570D
  4683 0001:00015714  4684 0001:0001571D  4685 0001:00015729  4688 0001:00015730
  4689 0001:00015739  4690 0001:00015745  4693 0001:0001574C  4694 0001:00015758
  4695 0001:0001577A  4696 0001:0001578D  4701 0001:00015794  4702 0001:0001579D
  4703 0001:000157BB  4704 0001:000157CD  4705 0001:000157D4  4706 0001:000157E5
  4709 0001:000157EC  4710 0001:000157F9  4711 0001:00015812  4712 0001:00015831
  4715 0001:00015838  4716 0001:00015848  4717 0001:00015858  4721 0001:00015860
  4722 0001:00015870  4723 0001:00015889  4724 0001:000158AB  4725 0001:000158C0
  4728 0001:000158C8  4729 0001:000158D7  4730 0001:000158E2  4731 0001:000158F8
  4732 0001:00015903  4734 0001:0001592D  4736 0001:0001593C  4737 0001:00015943
  4738 0001:0001594C  4740 0001:00015957  4741 0001:0001595D  4742 0001:00015968
  4745 0001:00015970  4746 0001:0001597F  4747 0001:00015998  4748 0001:000159BA
  4749 0001:000159C5  4750 0001:000159D9  4751 0001:000159E4  4754 0001:000159E8
  4755 0001:000159F7  4756 0001:00015A19  4757 0001:00015A24  4758 0001:00015A34
  4759 0001:00015A3F  4764 0001:00015A44  4766 0001:00015A53  4767 0001:00015A59
  4768 0001:00015A5F  4770 0001:00015A6C  4771 0001:00015A81  4772 0001:00015A94
  4774 0001:00015A9C  4775 0001:00015AAA  4776 0001:00015AB2  4777 0001:00015ABA
  4778 0001:00015AC2  4779 0001:00015AC8  4780 0001:00015ACB  4782 0001:00015ACE
  4783 0001:00015AD6  4784 0001:00015AF0  4785 0001:00015AF6  4786 0001:00015B02
  4789 0001:00015B08  4790 0001:00015B14  4791 0001:00015B25  4792 0001:00015B2E
  4795 0001:00015B34  4796 0001:00015B40  4798 0001:00015B4B  4799 0001:00015B5C
  4801 0001:00015B65  4804 0001:00015B6C  4805 0001:00015B78  4806 0001:00015B96
  4809 0001:00015B9C  4810 0001:00015BAC  4812 0001:00015BD2  4815 0001:00015BD8
  4816 0001:00015BDF  4817 0001:00015BEF  4820 0001:00015BF4  4821 0001:00015C00
  4823 0001:00015C12  4824 0001:00015C1D  4825 0001:00015C32  4827 0001:00015C3D
  4830 0001:00015C44  4831 0001:00015C53  4832 0001:00015C5C  4834 0001:00015C6C
  4835 0001:00015C7D  4849 0001:00015C84  4850 0001:00015C8D  4851 0001:00015CA7
  4854 0001:00015CAC  4855 0001:00015CB3  4856 0001:00015CC3  4861 0001:00015CC8
  4862 0001:00015CD1  4863 0001:00015CE5  4864 0001:00015CF9  4865 0001:00015D0F
  4868 0001:00015D14  4871 0001:00015D20  4874 0001:00015D24  4875 0001:00015D2B
  4876 0001:00015D39  4879 0001:00015D40  4885 0001:00015D47  4886 0001:00015D6D
  4887 0001:00015D84  4888 0001:00015D91  4893 0001:00015D98  4894 0001:00015DA1
  4895 0001:00015DDE  4903 0001:00015DE4  4909 0001:00015DF4  4910 0001:00015E02
  4912 0001:00015E0F  4911 0001:00015E1A  4913 0001:00015E2B  4914 0001:00015E38
  4915 0001:00015E46  4916 0001:00015E4E  4917 0001:00015E55  4918 0001:00015E6C
  4921 0001:00015E70  4924 0001:00015E7D  4925 0001:00015EA3  4926 0001:00015EBA
  4927 0001:00015ED9  4930 0001:00015EE0  4931 0001:00015EF0  4932 0001:00015F09
  4933 0001:00015F20  4936 0001:00015F28  4937 0001:00015F38  4938 0001:00015F51
  4939 0001:00015F68  4947 0001:00015F70  4948 0001:00015F7C  4950 0001:00015F88
  4951 0001:00015F94  4953 0001:00015FA1  4954 0001:00015FAD  4955 0001:00015FCF
  4956 0001:00015FDA  4959 0001:00015FEA  4960 0001:0001600A  4961 0001:00016018
  4962 0001:00016026  4957 0001:00016030  4965 0001:00016049  4967 0001:00016062
  5059 0001:00016068  5060 0001:00016083  5061 0001:0001608D  5062 0001:000160B1
  5065 0001:000160B8  5066 0001:000160C7  5067 0001:000160DB  5068 0001:000160E9
  5071 0001:000160F0  5072 0001:000160FF  5073 0001:00016113  5074 0001:00016121
  5077 0001:00016128  5078 0001:00016134  5079 0001:00016156  5082 0001:0001615C
  5083 0001:00016168  5084 0001:00016176  5087 0001:0001617C  5088 0001:00016183
  5090 0001:00016193  5095 0001:000161A4  5100 0001:000161AC  5102 0001:000161C7
  5106 0001:000161F6  5109 0001:000161FC  5110 0001:00016234  5112 0001:0001623C
  5113 0001:00016253  5114 0001:00016260  5118 0001:000162AB  5119 0001:000162C3
  5120 0001:000162CC  5122 0001:00016352  5125 0001:0001635C  5126 0001:0001636D
  5127 0001:00016381  5128 0001:0001639D  5134 0001:000163A4  5135 0001:000163B3
  5136 0001:000163BC  5137 0001:000163C5  5140 0001:000163CC  5141 0001:000163DB
  5143 0001:000163EA  5144 0001:000163F9  5146 0001:000163FF  5147 0001:0001640D
  5148 0001:00016424  5149 0001:0001642D  5152 0001:0001642F  5153 0001:00016437
  5156 0001:0001643C  5157 0001:0001644C  5158 0001:0001645F  5159 0001:0001646A
  5160 0001:00016475  5162 0001:00016484  5163 0001:00016490  5188 0001:00016494
  5189 0001:000164A5  5190 0001:000164AD  5191 0001:000164C9  5194 0001:000164D0
  5195 0001:000164D7  5196 0001:000164E1  5197 0001:000164E9  5198 0001:000164F1
  5223 0001:000164F4  5224 0001:00016500  5225 0001:0001651B  5226 0001:00016524
  5231 0001:00016528  5232 0001:00016535  5233 0001:0001653E  5234 0001:00016549
  5235 0001:00016552  5236 0001:00016568  5239 0001:00016570  5240 0001:0001657C
  5241 0001:00016591  5242 0001:000165A5  5243 0001:000165AE  5245 0001:000165BB
  5248 0001:000165C3  5252 0001:000165CE  5256 0001:000165D5  5257 0001:000165DE
  5259 0001:000165F5  5266 0001:00016611  5269 0001:00016631  5274 0001:00016638
  5275 0001:00016647  5277 0001:00016656  5278 0001:00016662  5280 0001:00016668
  5282 0001:00016673  5283 0001:0001667E  5284 0001:00016689  5286 0001:00016692
  5287 0001:000166A9  5288 0001:000166B2  5289 0001:000166B8  5292 0001:000166BA
  5293 0001:000166C2  5399 0001:000166C8  5400 0001:000166E3  5401 0001:000166EC
  5402 0001:000166FA  5403 0001:0001671E  5406 0001:00016724  5407 0001:00016735
  5408 0001:0001675D  5411 0001:00016764  5412 0001:00016770  5413 0001:00016779
  5439 0001:00016858  5440 0001:00016873  5441 0001:0001687C  5442 0001:00016885
  5443 0001:0001688E  5444 0001:0001689C  5445 0001:000168C5  5451 0001:000168CC
  5452 0001:000168D5  5453 0001:000168D9  5454 0001:000168E2  5455 0001:000168EA
  5456 0001:000168FA  5457 0001:00016902  5458 0001:00016916  5459 0001:0001692D
  5460 0001:00016934  5463 0001:00016938  5464 0001:00016944  5465 0001:00016958
  5470 0001:0001695C  5471 0001:0001697B  5472 0001:00016983  5473 0001:00016989
  5474 0001:000169B3  5475 0001:000169BB  5476 0001:000169EC  5483 0001:000169F0
  5484 0001:00016A0F  5485 0001:00016A14  5486 0001:00016A1E  5487 0001:00016A24
  5490 0001:00016A2F  5491 0001:00016A37  5492 0001:00016A49  5493 0001:00016A5A
  5494 0001:00016A68  5495 0001:00016A7F  5496 0001:00016A85  5497 0001:00016A8B
  5498 0001:00016A96  5499 0001:00016AA1  5500 0001:00016AAC  5488 0001:00016AB2
  5502 0001:00016ABE  5503 0001:00016AE4  5641 0001:00016AF8  5642 0001:00016B04
  5643 0001:00016B11  5644 0001:00016B1E  5645 0001:00016B2C  5647 0001:00016B3B
  5648 0001:00016B49  5651 0001:00016B72  5652 0001:00016B7D  5654 0001:00016B85
  5645 0001:00016B88  5656 0001:00016B9B  5658 0001:00016BAD  5664 0001:00016BB4
  5665 0001:00016BBD  5666 0001:00016BC6  5667 0001:00016BD3  5668 0001:00016BE1
  5670 0001:00016BF0  5671 0001:00016BFE  5673 0001:00016C09  5674 0001:00016C14
  5676 0001:00016C1C  5668 0001:00016C1F  5678 0001:00016C32  5680 0001:00016C44
  5706 0001:00016C48  5707 0001:00016C4F  5708 0001:00016C63  5711 0001:00016C68
  5712 0001:00016C6B  5713 0001:00016C75  5716 0001:00016C78  5717 0001:00016C81
  5718 0001:00016CA8  5721 0001:00016CAC  5722 0001:00016CB8  5723 0001:00016CC6
  5724 0001:00016CD4  5727 0001:00016CD8  5728 0001:00016CEA  5729 0001:00016D05
  5730 0001:00016D21  5744 0001:00016D28  5745 0001:00016D34  5747 0001:00016D41
  5748 0001:00016D47  5749 0001:00016D4F  5751 0001:00016D54  5755 0001:00016D58
  5756 0001:00016D67  5758 0001:00016D80  5759 0001:00016D89  5761 0001:00016D94
  5768 0001:00016D9C  5769 0001:00016DAB  5771 0001:00016DCC  5773 0001:00016DD8
  5774 0001:00016DDE  5775 0001:00016DE6  5776 0001:00016DED  5778 0001:00016DF2
  5779 0001:00016E01  5780 0001:00016E0F  5781 0001:00016E1F  5782 0001:00016E2A
  5783 0001:00016E3B  5784 0001:00016E42  5786 0001:00016E58  5788 0001:00016E68
  5790 0001:00016E73  5793 0001:00016E7C  5794 0001:00016E85  5795 0001:00016E93
  5796 0001:00016E9C  5806 0001:00016EA0  5807 0001:00016EAD  5808 0001:00016EB1
  5809 0001:00016ED1  5815 0001:00016ED8  5816 0001:00016EEB  5817 0001:00016F11
  5818 0001:00016F19  5819 0001:00016F3A  5820 0001:00016F48  5825 0001:00016F50
  5826 0001:00016F59  5827 0001:00016F66  5828 0001:00016F74  5829 0001:00016F83
  5830 0001:00016F91  5832 0001:00016FAD  5833 0001:00016FB5  5834 0001:00016FC0
  5828 0001:00016FC3  5836 0001:00016FD6  5838 0001:00016FE8  5845 0001:00016FEC
  5846 0001:00017008  5847 0001:00017015  5848 0001:00017023  5849 0001:00017040
  5851 0001:00017051  5852 0001:0001705F  5853 0001:0001706A  5859 0001:0001707B
  5860 0001:0001708E  5862 0001:000170A0  5863 0001:000170BA  5866 0001:000170CC
  5867 0001:000170D6  5848 0001:000170D9  5869 0001:000170EF  5871 0001:0001711C
  5883 0001:00017120  5884 0001:00017127  5885 0001:0001713D  5886 0001:00017145
  5887 0001:0001714D  5892 0001:00017150  5893 0001:00017159  5895 0001:00017162
  5896 0001:00017196  5897 0001:000171A1  5899 0001:000171A9  5906 0001:000171B0
  5907 0001:000171BF  5910 0001:000171CC  5911 0001:000171D7  5912 0001:000171DD
  5914 0001:000171F3  5915 0001:00017202  5916 0001:00017211  5912 0001:00017214
  5917 0001:00017219  5908 0001:00017224  5919 0001:0001722F  5920 0001:00017238
  5922 0001:0001724B  5923 0001:00017259  5926 0001:00017260  5927 0001:00017269
  5928 0001:00017288  5931 0001:0001728C  5932 0001:00017295  5933 0001:000172A0
  5934 0001:000172A9  5937 0001:000172B0  5938 0001:000172BC  5939 0001:000172C4
  5940 0001:000172CC  5944 0001:000172D0  5945 0001:000172D1  5946 0001:000172D2
  5947 0001:000172D3  5948 0001:000172D5  5949 0001:000172D7  5950 0001:000172D9
  5951 0001:000172DB  5952 0001:000172DE  5953 0001:000172E1  5954 0001:000172E3
  5955 0001:000172E5  5956 0001:000172EA  5957 0001:000172ED  5958 0001:000172EF
  5959 0001:000172F1  5960 0001:000172F3  5961 0001:000172F4  5962 0001:000172F6
  5963 0001:000172F9  5964 0001:000172FC  5965 0001:000172FF  5966 0001:00017301
  5967 0001:00017303  5968 0001:00017306  5969 0001:00017307  5970 0001:00017309
  5971 0001:0001730B  5972 0001:0001730E  5973 0001:00017310  5974 0001:00017311
  5975 0001:00017313  5976 0001:00017315  5977 0001:00017316  5978 0001:00017317
  5979 0001:00017318  5982 0001:0001731C  5983 0001:00017324  5984 0001:00017341
  5985 0001:00017361  5986 0001:00017369  5996 0001:00017370  5997 0001:0001738C
  5998 0001:00017397  5999 0001:000173A2  6000 0001:000173A7  6001 0001:000173CF
  6006 0001:000173D4  6007 0001:000173E0  6008 0001:000173E8  6009 0001:000173F6
  6012 0001:0001740C  6013 0001:00017422  6014 0001:0001742D  6015 0001:00017437
  6016 0001:0001744E  6010 0001:00017456  6018 0001:00017462  6020 0001:00017477
  6022 0001:00017487  6035 0001:000174B0  6036 0001:000174B9  6037 0001:000174D4
  6036 0001:000174F1  6038 0001:000174F6  6043 0001:000174FC  6044 0001:00017506
  6045 0001:0001751E  6047 0001:0001752F  6048 0001:00017555  6049 0001:00017577
  6044 0001:0001757A  6050 0001:0001757F  6055 0001:00017584  6056 0001:00017591
  6057 0001:000175AC  6058 0001:000175B2  6060 0001:000175D8  6056 0001:00017601
  6061 0001:00017606  6064 0001:0001760C  6065 0001:00017610  6066 0001:0001762E
  6069 0001:00017634  6070 0001:0001763D  6071 0001:00017641  6072 0001:00017655
  6073 0001:0001766D  6074 0001:00017674  6075 0001:00017681  6076 0001:0001769A
  6081 0001:000176A0  6082 0001:000176A7  6083 0001:000176B5  6084 0001:000176C9
  6085 0001:000176D1  6086 0001:000176DE  6087 0001:000176FA  6089 0001:00017703
  6090 0001:0001770F  6092 0001:00017718  6093 0001:00017723  6095 0001:0001772F
  6096 0001:0001773D  6098 0001:00017763  6099 0001:0001776B  6102 0001:00017775
  6104 0001:0001778F  6106 0001:000177AD  6109 0001:000177B4  6110 0001:000177BA
  6111 0001:000177C8  6112 0001:000177E0  6113 0001:000177F7  6114 0001:00017816
  6116 0001:00017831  6118 0001:0001784F  6121 0001:00017854  6122 0001:0001785A
  6123 0001:00017868  6124 0001:00017892  6125 0001:000178AA  6127 0001:000178D7
  6129 0001:000178F5  6133 0001:000178FC  6134 0001:00017924  6135 0001:00017932
  6136 0001:0001793D  6137 0001:00017948  6138 0001:00017951  6139 0001:0001795A
  6140 0001:00017968  6141 0001:0001796E  6142 0001:00017974  6143 0001:0001797A
  6144 0001:00017983  6145 0001:0001798A  6146 0001:00017994  6147 0001:000179A2
  6148 0001:000179AC  6149 0001:000179B4  6150 0001:000179C3  6151 0001:000179D0
  6152 0001:000179E8  6153 0001:000179F1  6154 0001:000179FA  6155 0001:00017A02
  6156 0001:00017A11  6157 0001:00017A1C  6158 0001:00017A24  6159 0001:00017A33
  6160 0001:00017A4E  6162 0001:00017A5D  6164 0001:00017A6F  6165 0001:00017A79
  6170 0001:00017A89  6171 0001:00017A93  6174 0001:00017AB0  6175 0001:00017AC3
  6178 0001:00017ADA  6179 0001:00017AE3  6181 0001:00017B27  6184 0001:00017B38
  6185 0001:00017B44  6187 0001:00017B4D  6188 0001:00017B5F  6189 0001:00017B6D
  6190 0001:00017B78  6192 0001:00017B8D  6195 0001:00017B9D  6196 0001:00017BA8
  6201 0001:00017BAC  6202 0001:00017BBB  6203 0001:00017BD2  6204 0001:00017BDA
  6205 0001:00017BE3  6206 0001:00017BEC  6207 0001:00017BFE  6208 0001:00017C0C
  6209 0001:00017C1E  6210 0001:00017C35  6211 0001:00017C4B  6213 0001:00017C60
  6214 0001:00017C69  6216 0001:00017C7A  6219 0001:00017C80  6220 0001:00017C89
  6222 0001:00017CA7  6223 0001:00017CAD  6225 0001:00017CC5  6228 0001:00017CCC
  6229 0001:00017CD5  6231 0001:00017CF3  6232 0001:00017CF9  6234 0001:00017D11
  6237 0001:00017D18  6238 0001:00017D21  6240 0001:00017D3F  6241 0001:00017D45
  6243 0001:00017D63  6246 0001:00017D6C  6247 0001:00017D75  6249 0001:00017D93
  6250 0001:00017D99  6252 0001:00017DB1  6257 0001:00017DB8  6258 0001:00017DC4
  6261 0001:00017E0B  6262 0001:00017E1B  6263 0001:00017E2A  6266 0001:00017E43
  6268 0001:00017E52  6270 0001:00017E61  6272 0001:00017E70  6274 0001:00017E7F
  6276 0001:00017E84  6282 0001:00017EC4  6283 0001:00017ECD  6286 0001:00017EE3
  6287 0001:00017EF3  6291 0001:00017EFC  6292 0001:00017F0C  6295 0001:00017F15
  6297 0001:00017F27  6299 0001:00017F2F  6302 0001:00017F34  6303 0001:00017F3D
  6305 0001:00017F49  6306 0001:00017F51  6309 0001:00017F63  6310 0001:00017F78
  6313 0001:00017F7C  6314 0001:00017F83  6315 0001:00017F8D  6318 0001:00017F90
  6319 0001:00017F97  6320 0001:00017FA1  6325 0001:00017FA4  6326 0001:00017FB3
  6327 0001:00017FBE  6329 0001:00017FCC  6330 0001:00017FD7  6331 0001:00017FE1
  6333 0001:00017FF6  6346 0001:00018000  6347 0001:0001801F  6348 0001:00018027
  6349 0001:0001803C  6350 0001:0001804D  6351 0001:00018074  6352 0001:000180FB
  6355 0001:00018100  6356 0001:00018103  6357 0001:0001810E  6358 0001:00018118
  6360 0001:0001811C  6361 0001:0001813E  6362 0001:0001814C  6363 0001:00018157
  6364 0001:00018165  6365 0001:0001816C  6366 0001:00018177  6367 0001:0001817D
  6370 0001:00018184  6371 0001:0001818C  6372 0001:000181A4  6373 0001:000181BC
  6374 0001:000181C4  6375 0001:000181DC  6376 0001:000181E2  6377 0001:000181F0
  6378 0001:000181F5  6379 0001:00018201  6380 0001:0001820F  6381 0001:00018228
  6382 0001:0001822E  6368 0001:00018231  6384 0001:00018236  6385 0001:0001824E
  6388 0001:00018264  6389 0001:0001826B  6390 0001:00018276  6391 0001:0001827D
  6392 0001:00018286  6395 0001:000182AF  6398 0001:000182DC  6399 0001:000182DF
  6401 0001:00018321  6415 0001:00018328  6416 0001:00018337  6417 0001:00018346
  6418 0001:00018359  6420 0001:00018369  6421 0001:0001836E  6425 0001:00018374
  6426 0001:00018383  6427 0001:000183B6  6431 0001:000183BC  6432 0001:000183D3
  6433 0001:00018412  6438 0001:00018418  6439 0001:0001842D  6441 0001:0001843C
  6442 0001:00018447  6443 0001:0001844F  6446 0001:00018465  6447 0001:000184D1
  6449 0001:000184D8  6450 0001:0001850A  6451 0001:00018513  6454 0001:0001854A
  6455 0001:00018554  6456 0001:0001855E  6458 0001:000185B8  6459 0001:000185C4
  6461 0001:000185E4  6463 0001:000185FE  6465 0001:0001861A  6467 0001:00018642
  6469 0001:00018661  6471 0001:0001867F  6473 0001:0001869D  6475 0001:000186BA
  6478 0001:000186CC  6479 0001:000186D4  6483 0001:000186E6  6484 0001:000186EE
  6487 0001:00018708  6490 0001:00018728  6492 0001:00018734  6493 0001:0001873C
  6497 0001:0001874E  6498 0001:0001876D  6499 0001:00018776  6502 0001:0001878C
  6504 0001:00018795  6506 0001:000187AC  6508 0001:000187EA  6629 0001:000187F0
  6630 0001:00018812  6631 0001:00018820  6632 0001:00018831  6633 0001:00018841
  6636 0001:00018846  6637 0001:00018851  6638 0001:00018857  6634 0001:0001886B
  6641 0001:0001887C  6642 0001:00018884  6644 0001:000188AE  6657 0001:000188B8
  6658 0001:000188C4  6659 0001:000188D4  6660 0001:000188E3  6661 0001:000188FA
  6666 0001:00018900  6667 0001:0001891F  6668 0001:0001892F  6671 0001:00018947
  6672 0001:0001894C  6674 0001:0001895E  6676 0001:00018970  6678 0001:00018982
  6680 0001:00018987  6681 0001:00018992  6683 0001:000189BF  6689 0001:000189C4
  6690 0001:000189E6  6691 0001:000189F6  6694 0001:00018A11  6695 0001:00018A16
  6698 0001:00018A28  6699 0001:00018A38  6700 0001:00018A43  6704 0001:00018A57
  6705 0001:00018A67  6706 0001:00018A72  6707 0001:00018A80  6710 0001:00018A8D
  6713 0001:00018AB7  6716 0001:00018ABC  6717 0001:00018AC5  6718 0001:00018AD8
  6728 0001:00018ADC  6729 0001:00018AF8  6730 0001:00018B26  6735 0001:00018B2C
  6736 0001:00018B31  6737 0001:00018B4B  6738 0001:00018B56  6743 0001:00018B58
  6744 0001:00018B61  6745 0001:00018B74  6746 0001:00018B86  6749 0001:00018B8C
  6752 0001:00018B91  6753 0001:00018BAD  6754 0001:00018BBF  6755 0001:00018BD9
  6750 0001:00018BE4  6757 0001:00018BF3  6758 0001:00018BFE  6760 0001:00018C00
  6761 0001:00018C1C  6763 0001:00018C90  6764 0001:00018C9C  6765 0001:00018CAE
  6766 0001:00018CC0  6767 0001:00018CD2  6768 0001:00018CE4  6770 0001:00018CF4
  6771 0001:00018D02  6772 0001:00018D0C  6773 0001:00018D1A  6774 0001:00018D23
  6775 0001:00018D32  6776 0001:00018D41  6777 0001:00018D50  6778 0001:00018D5E
  6779 0001:00018D6D  6781 0001:00018D96  6864 0001:00018D9C  6865 0001:00018DB8
  6866 0001:00018DC3  6867 0001:00018DE8  6873 0001:00018DEC  6874 0001:00018E0F
  6876 0001:00018E15  6877 0001:00018E23  6878 0001:00018E2E  6880 0001:00018E3B
  6881 0001:00018E4F  6882 0001:00018E59  6883 0001:00018E6F  6884 0001:00018E99
  6890 0001:00018EA0  6891 0001:00018EC3  6892 0001:00018ECE  6893 0001:00018ED3
  6894 0001:00018EDC  6895 0001:00018EED  6897 0001:00018EF3  6898 0001:00018EFD
  6899 0001:00018F14  6900 0001:00018F1A  6902 0001:00018F61  6905 0001:00018F68
  6906 0001:00018F75  6907 0001:00018F8E  6910 0001:00018F94  6911 0001:00018FA4
  6912 0001:00018FC1  6913 0001:00018FCE  6916 0001:00018FD4  6917 0001:00018FE1
  6918 0001:00018FF5  6919 0001:00019012  6920 0001:00019026  6921 0001:00019030
  6922 0001:00019043  6923 0001:0001905B  6924 0001:00019066  6929 0001:0001906C
  6930 0001:0001907B  6931 0001:00019081  6933 0001:0001908A  6934 0001:0001909D
  6938 0001:000190A6  6939 0001:000190B7  6930 0001:000190BC  6941 0001:000190C2
  6953 0001:000190C8  6954 0001:000190E8  6956 0001:000190F5  6957 0001:000190FA
  6958 0001:00019109  6959 0001:00019117  6961 0001:00019126  6962 0001:00019139
  6963 0001:00019147  6965 0001:0001915B  6966 0001:00019172  6967 0001:00019180
  6968 0001:0001918B  6969 0001:0001919B  6970 0001:000191A9  6972 0001:000191BA
  6974 0001:000191E4  6975 0001:000191FB  6976 0001:00019208  6978 0001:00019223
  6981 0001:00019240  6982 0001:00019248  6984 0001:0001927D  6986 0001:00019294
  6987 0001:000192B5  6988 0001:000192BD  6989 0001:0001932C  6990 0001:0001933C
  6991 0001:00019349  6992 0001:00019365  6993 0001:00019381  6994 0001:0001939A
  6995 0001:000193AF  6996 0001:000193C4  6997 0001:000193D9  6998 0001:000193EE
  7000 0001:00019406  7001 0001:0001941E  7002 0001:00019435  7003 0001:0001944C
  7005 0001:00019460  7007 0001:000194A4  7075 0001:000194A8  7076 0001:000194A9
  7077 0001:000194AA  7078 0001:000194AB  7079 0001:000194AD  7080 0001:000194AF
  7081 0001:000194B1  7082 0001:000194B3  7083 0001:000194B6  7084 0001:000194B9
  7085 0001:000194BB  7086 0001:000194BD  7087 0001:000194C2  7088 0001:000194C5
  7089 0001:000194C7  7090 0001:000194C9  7091 0001:000194CB  7092 0001:000194CD
  7093 0001:000194CE  7094 0001:000194D1  7095 0001:000194D4  7096 0001:000194D7
  7097 0001:000194D9  7098 0001:000194DB  7099 0001:000194DE  7100 0001:000194DF
  7101 0001:000194E1  7102 0001:000194E3  7103 0001:000194E6  7104 0001:000194E8
  7105 0001:000194E9  7106 0001:000194EB  7107 0001:000194ED  7108 0001:000194EE
  7109 0001:000194EF  7110 0001:000194F0  7130 0001:000194F4  7131 0001:000194FB
  7132 0001:00019512  7133 0001:0001951A  7341 0001:00019520  7342 0001:0001952C
  7344 0001:00019538  7345 0001:00019542  7347 0001:00019554  7349 0001:00019566
  7350 0001:00019570  7354 0001:00019582  7355 0001:0001958C  7357 0001:0001959C
  7371 0001:000195A0  7372 0001:000195A7  7373 0001:000195B1  7376 0001:000195B4
  7377 0001:000195BB  7378 0001:000195C5  8002 0001:000195C8  8003 0001:000195D7
  8005 0001:000195E4  8006 0001:000195EF  8007 0001:000195F9  8008 0001:00019609
  8012 0001:00019619  8013 0001:00019624  8015 0001:0001962D  8016 0001:00019637
  8019 0001:00019649  8020 0001:00019653  8022 0001:00019663  8024 0001:00019671
  8027 0001:00019678  8028 0001:00019697  8029 0001:000196CD  8049 0001:000196D4
  8050 0001:000196E0  8051 0001:000196F0  8072 0001:000196F4  8073 0001:00019703
  8075 0001:00019716  8076 0001:0001972E  8077 0001:0001974A  8078 0001:0001974E
  8073 0001:00019751  8079 0001:00019756  8111 0001:0001975C  8112 0001:0001976B
  8113 0001:00019771  8115 0001:00019777  8116 0001:0001978E  8117 0001:000197B5
  8118 0001:000197B8  8119 0001:000197BC  8113 0001:000197BF  8121 0001:000197C5
  8122 0001:000197D1  9229 0001:000197D8  9230 0001:000197DB  9232 0001:000197E5
  9233 0001:000197FA  9234 0001:00019803  9239 0001:00019808  9242 0001:00019810
  9243 0001:00019813  9245 0001:0001981D  9250 0001:00019828  9258 0001:0001982C
  9260 0001:0001982F  9265 0001:0001983A  9273 0001:0001983C  9275 0001:00019843
  9276 0001:00019856  9285 0001:0001985B  9294 0001:00019860  9296 0001:00019863
  9301 0001:0001986E  9304 0001:00019870  9305 0001:00019873  9306 0001:0001987D
  9309 0001:00019880  9310 0001:00019883  9311 0001:0001988D  9317 0001:00019890
  9318 0001:0001989C  9319 0001:000198AB  9320 0001:000198D4  9321 0001:000198DA
  9323 0001:000198E4  9324 0001:000198E9  9325 0001:000198EE  9326 0001:000198F8
  9327 0001:00019906  9328 0001:00019917  9329 0001:00019925  9330 0001:0001993D
  9334 0001:0001994C  9335 0001:00019959  9336 0001:00019963  9337 0001:0001996D
  9338 0001:0001997B  9339 0001:00019989  9341 0001:000199A3  9344 0001:000199C2
  9347 0001:000199D4  9332 0001:000199E0  9355 0001:000199FA  9358 0001:00019A17
  9360 0001:00019A2C  9365 0001:00019A34  9369 0001:00019A40  9370 0001:00019A4E
  9371 0001:00019A57  9372 0001:00019A65  9374 0001:00019A7C  9377 0001:00019A99
  9378 0001:00019AA2  9379 0001:00019AAB  9380 0001:00019AB2  9381 0001:00019AB9
  9382 0001:00019ABE  9384 0001:00019ACC  9396 0001:00019ADF  9403 0001:00019AE8
  9404 0001:00019B17  9405 0001:00019B21  9406 0001:00019B26  9407 0001:00019B2F
  9409 0001:00019B38  9410 0001:00019B59  9411 0001:00019B62  9419 0001:00019BCE
  9422 0001:00019BD4  9423 0001:00019BE5  9425 0001:00019BF7  9426 0001:00019BFF
  9427 0001:00019C08  9428 0001:00019C10  9431 0001:00019C18  9439 0001:00019C2D
  9440 0001:00019C3B  9441 0001:00019C46  9442 0001:00019C59  9445 0001:00019C60
  9446 0001:00019C67  9447 0001:00019C70  9448 0001:00019C78  9451 0001:00019C7C
  9452 0001:00019C9B  9453 0001:00019CA1  9454 0001:00019CFA  9457 0001:00019D00
  9458 0001:00019D0C  9459 0001:00019D12  9460 0001:00019D21  9463 0001:00019D28
  9464 0001:00019D30  9465 0001:00019D46  9468 0001:00019D4C  9469 0001:00019D53
  9470 0001:00019D6E  9559 0001:00019D74  9560 0001:00019D81  9561 0001:00019D90
  9565 0001:00019D9E  9566 0001:00019DAE  9571 0001:00019DBC  9572 0001:00019DC6
  9573 0001:00019DD4  9574 0001:00019DDD  9575 0001:00019DEE  9576 0001:00019DF4
  9577 0001:00019E01  9578 0001:00019E06  9579 0001:00019E10  9581 0001:00019E21
  9582 0001:00019E2B  9583 0001:00019E39  9585 0001:00019E51  9592 0001:00019E70
  9596 0001:00019E8F  9599 0001:00019EA0  9601 0001:00019EB4  9604 0001:00019EBC
  9605 0001:00019EC3  9606 0001:00019ECC  9607 0001:00019ED4  9608 0001:00019EE3
  9609 0001:00019EF3  9663 0001:00019EF8  9664 0001:00019F01  9665 0001:00019F10
  9666 0001:00019F1F  9667 0001:00019F25  9668 0001:00019F2C  9695 0001:00019F30
  9696 0001:00019F37  9697 0001:00019F3E  9705 0001:00019F44  9706 0001:00019F4D
  9707 0001:00019F56  9709 0001:00019F65  9710 0001:00019F6A  9714 0001:00019F72
  9715 0001:00019F78  9716 0001:00019F89  9717 0001:00019FA0  9718 0001:00019FAF
  9719 0001:00019FB5  9720 0001:00019FBC  9721 0001:00019FC4  9722 0001:00019FCF
  9723 0001:00019FED  9743 0001:00019FF4  9744 0001:0001A00F  9745 0001:0001A01B
  9746 0001:0001A047  9749 0001:0001A050  9750 0001:0001A062  9751 0001:0001A06A
  9754 0001:0001A075  9753 0001:0001A094  9755 0001:0001A0A9  9757 0001:0001A0B4
  9758 0001:0001A0BC  9759 0001:0001A0D3  9760 0001:0001A0EF  9763 0001:0001A0F4
  9764 0001:0001A0FB  9765 0001:0001A104  9766 0001:0001A10C  9785 0001:0001A110
  9786 0001:0001A11C  9787 0001:0001A12B  9790 0001:0001A130  9791 0001:0001A13C
  9792 0001:0001A14B  9795 0001:0001A150  9796 0001:0001A15C  9797 0001:0001A16B
  9800 0001:0001A170  9801 0001:0001A17C  9802 0001:0001A18B  9805 0001:0001A190
  9806 0001:0001A19C  9807 0001:0001A1B7  9808 0001:0001A1C5  9809 0001:0001A1CE
  9812 0001:0001A1D4  9813 0001:0001A1E0  9814 0001:0001A1E8  9815 0001:0001A1F6
  9817 0001:0001A202  9818 0001:0001A20D  9820 0001:0001A215  9823 0001:0001A21C
  9824 0001:0001A22A  9825 0001:0001A239  9826 0001:0001A24D  9827 0001:0001A258
  9828 0001:0001A262  9829 0001:0001A26B  9830 0001:0001A277  9831 0001:0001A284
  9834 0001:0001A28C  9835 0001:0001A299  9836 0001:0001A2AC  9837 0001:0001A2B9
  9838 0001:0001A2C3  9839 0001:0001A2CE  9844 0001:0001A2D4  9847 0001:0001A2DF
  9848 0001:0001A2ED  9850 0001:0001A30F  9852 0001:0001A31C  9853 0001:0001A327
  9845 0001:0001A331  9855 0001:0001A33A  9860 0001:0001A344  9861 0001:0001A34D
  9863 0001:0001A356  9864 0001:0001A35E  9865 0001:0001A367  9866 0001:0001A380
  9865 0001:0001A396  9868 0001:0001A39B  9871 0001:0001A3A0  9872 0001:0001A3AC
  9874 0001:0001A3B5  9875 0001:0001A3C3  9877 0001:0001A3CF  9878 0001:0001A3DA
  9881 0001:0001A3E2  9884 0001:0001A3E8  9885 0001:0001A3F4  9886 0001:0001A3FF
  9887 0001:0001A40A  9893 0001:0001A410  9894 0001:0001A420  9895 0001:0001A42C
  9896 0001:0001A437  9898 0001:0001A440  9899 0001:0001A44D  9901 0001:0001A453
  9902 0001:0001A46C  9903 0001:0001A46F  9904 0001:0001A47D  9899 0001:0001A48A
  9907 0001:0001A490  9913 0001:0001A498  9914 0001:0001A4A5  9915 0001:0001A4AA
  9916 0001:0001A4B3  9917 0001:0001A4C2  9919 0001:0001A4EF  9921 0001:0001A51C
  9924 0001:0001A540  9925 0001:0001A549  9926 0001:0001A550  9929 0001:0001A554
  9930 0001:0001A560  9933 0001:0001A568  9934 0001:0001A571  9935 0001:0001A579
  9938 0001:0001A580  9939 0001:0001A589  9940 0001:0001A592  9943 0001:0001A598
  9944 0001:0001A5A4  9945 0001:0001A5B2  9948 0001:0001A5B8  9949 0001:0001A5C1
  9950 0001:0001A5CD  9953 0001:0001A5D4  9954 0001:0001A5E3  9957 0001:0001A5E8
  9958 0001:0001A5F1  9959 0001:0001A5F9  9962 0001:0001A600  9963 0001:0001A60C
  9966 0001:0001A610  9967 0001:0001A617  9968 0001:0001A61F  9971 0001:0001A624
  9972 0001:0001A62B  9973 0001:0001A633  9976 0001:0001A638  9977 0001:0001A63F
  9978 0001:0001A647  9981 0001:0001A64C  9983 0001:0001A653  9986 0001:0001A658
  9987 0001:0001A664  9988 0001:0001A66F  9991 0001:0001A674  9992 0001:0001A680
  9993 0001:0001A68B  9997 0001:0001A690  9998 0001:0001A6A0 10000 0001:0001A6CF
 10001 0001:0001A6F6 10002 0001:0001A708 10003 0001:0001A71D 10006 0001:0001A724
 10007 0001:0001A731 10008 0001:0001A740 10011 0001:0001A748 10012 0001:0001A754
 10017 0001:0001A758 10018 0001:0001A764 10019 0001:0001A773 10021 0001:0001A78C
 10022 0001:0001A79D 10023 0001:0001A7AF 10019 0001:0001A7B2 10024 0001:0001A7B7
 10025 0001:0001A7BF 10028 0001:0001A7C4 10029 0001:0001A7D1 10031 0001:0001A7E5
 10032 0001:0001A7F7 10033 0001:0001A81E 10034 0001:0001A827 10035 0001:0001A841
 10036 0001:0001A855 10037 0001:0001A85F 10038 0001:0001A86A 10040 0001:0001A874
 10043 0001:0001A87C 10044 0001:0001A888 10045 0001:0001A896 10055 0001:0001A89C
 10056 0001:0001A8A8 10057 0001:0001A8C4 10058 0001:0001A8D8 10061 0001:0001A8DC
 10062 0001:0001A8E5 10063 0001:0001A8EE 10064 0001:0001A8FC 10065 0001:0001A904
 10102 0001:0001A908 10103 0001:0001A917 10104 0001:0001A91D 10105 0001:0001A927
 10106 0001:0001A92F 10107 0001:0001A935 10108 0001:0001A96A 10127 0001:0001A970
 10128 0001:0001A97F 10130 0001:0001A988 10131 0001:0001A9B2 10132 0001:0001A9B8
 10134 0001:0001A9CF 10137 0001:0001A9D4 10138 0001:0001A9E0 10139 0001:0001A9EE
 10140 0001:0001A9F4 10141 0001:0001AA02 10144 0001:0001AA08 10145 0001:0001AA14
 10146 0001:0001AA22 10147 0001:0001AA28 10148 0001:0001AA36 10172 0001:0001AA3C
 10174 0001:0001AA4C 10175 0001:0001AA55 10188 0001:0001AA6B 10189 0001:0001AA7F
 10198 0001:0001AA84 10199 0001:0001AA93 10204 0001:0001AA9C 10206 0001:0001AAA0
 10209 0001:0001AAA9 10210 0001:0001AAC2 10214 0001:0001AACB 10216 0001:0001AAE4
 10219 0001:0001AAEC 10221 0001:0001AAF0 10222 0001:0001AAF9 10224 0001:0001AB02
 10228 0001:0001AB14 10231 0001:0001AB1C 10233 0001:0001AB20 10234 0001:0001AB29
 10236 0001:0001AB32 10240 0001:0001AB44 10296 0001:0001AB4C 10297 0001:0001AB55
 10298 0001:0001AB5E 10720 0001:0001AB64 10721 0001:0001AB6A 10722 0001:0001AB77
 10723 0001:0001AB85 10724 0001:0001AB9B 10723 0001:0001ABAE 10726 0001:0001ABC0
 10728 0001:0001ABD2 10729 0001:0001ABDC 10732 0001:0001ABE0 10733 0001:0001ABE7
 10734 0001:0001ABEF 11090 0001:0001ABF4 11091 0001:0001AC17 11092 0001:0001AC21
 11093 0001:0001AC26 11094 0001:0001AC2F 11095 0001:0001AC39 11096 0001:0001AC49
 11097 0001:0001AC53 11098 0001:0001AC5D 11099 0001:0001AC67 11100 0001:0001AC71
 11101 0001:0001AC76 11103 0001:0001AC9F 11076 0001:0001ACA4 11077 0001:0001ACBE
 11078 0001:0001ACC3 11080 0001:0001ACCD 11085 0001:0001ACEC 11086 0001:0001ACFD
 11087 0001:0001AD0E 11089 0001:0001AD34

Line numbers for ListsU(..\ListsU.pas) segment .text

   250 0001:0001ADC4   251 0001:0001ADDF   252 0001:0001ADE9   253 0001:0001ADEF
   255 0001:0001ADF6   256 0001:0001AE2E   259 0001:0001AE34   260 0001:0001AE3B
   261 0001:0001AE43   262 0001:0001AE4B   263 0001:0001AE53   269 0001:0001AE58
   271 0001:0001AE61   272 0001:0001AEA1   273 0001:0001AEAA   276 0001:0001AEBB
   277 0001:0001AED2   279 0001:0001AF05   280 0001:0001AF10   281 0001:0001AF49
   277 0001:0001AF4C   282 0001:0001AF51   284 0001:0001AF63   287 0001:0001AF68
   288 0001:0001AF74   290 0001:0001AF99   291 0001:0001AFA7   292 0001:0001AFBA
   293 0001:0001AFC2   294 0001:0001AFD0   295 0001:0001AFDE   296 0001:0001AFE6
   299 0001:0001AFEC   300 0001:0001AFF8   302 0001:0001B005   303 0001:0001B02A
   304 0001:0001B04C   305 0001:0001B05A   306 0001:0001B06D   308 0001:0001B075
   311 0001:0001B085   312 0001:0001B08D   315 0001:0001B094   316 0001:0001B0A0
   317 0001:0001B0A9   319 0001:0001B0D0   320 0001:0001B0D8   415 0001:0001B10C
   415 0001:0001B113

Line numbers for MMSystem(MMSystem.pas) segment .text

  4547 0001:0001B114  4549 0001:0001B11C  4551 0001:0001B124  4668 0001:0001B15C
  4668 0001:0001B163

Line numbers for SyncObjs(SyncObjs.pas) segment .text

    88 0001:0001B354    89 0001:0001B35B    92 0001:0001B360    93 0001:0001B367
    99 0001:0001B36C   100 0001:0001B37D   101 0001:0001B389   102 0001:0001B3A5
   110 0001:0001B3AC   111 0001:0001B3C7   112 0001:0001B40A   160 0001:0001B410
   161 0001:0001B417   162 0001:0001B423   175 0001:0001B428   177 0001:0001B42F
   182 0001:0001B43B   187 0001:0001B440   188 0001:0001B458   189 0001:0001B485
   194 0001:0001B48C   195 0001:0001B4A4   196 0001:0001B4AE   197 0001:0001B4D5
   200 0001:0001B4DC   201 0001:0001B4ED   202 0001:0001B4F9   203 0001:0001B515
   206 0001:0001B51C   207 0001:0001B523   208 0001:0001B52F   211 0001:0001B534
   212 0001:0001B53B   213 0001:0001B547   225 0001:0001B57C   225 0001:0001B583

Line numbers for GPHugeF(gphugef.pas) segment .text

   584 0001:0001B648   585 0001:0001B654   586 0001:0001B658   587 0001:0001B662
   589 0001:0001B67E   590 0001:0001B684   591 0001:0001B689   592 0001:0001B68F
   596 0001:0001B6B9   619 0001:0001B6C0   620 0001:0001B6DB   621 0001:0001B6E5
   622 0001:0001B6EF   623 0001:0001B6F7   624 0001:0001B6FE   625 0001:0001B70F
   626 0001:0001B718   627 0001:0001B721   628 0001:0001B728   629 0001:0001B735
   630 0001:0001B73E   631 0001:0001B748   632 0001:0001B771   637 0001:0001B778
   638 0001:0001B789   639 0001:0001B791   640 0001:0001B7AD   678 0001:0001B7B4
   679 0001:0001B7BA   680 0001:0001B7C3   682 0001:0001B7C9   683 0001:0001B7D6
   684 0001:0001B7ED   685 0001:0001B7FA   687 0001:0001B82C   697 0001:0001B830
   698 0001:0001B83F   699 0001:0001B845   700 0001:0001B873   701 0001:0001B885
   703 0001:0001B892   704 0001:0001B898   705 0001:0001B8A1   707 0001:0001B8AA
   710 0001:0001B8B3   711 0001:0001B8BA   712 0001:0001B8C1   713 0001:0001B8C9
   714 0001:0001B8D2   715 0001:0001B8DE   716 0001:0001B8EA   718 0001:0001B8F3
   721 0001:0001B8FA   724 0001:0001B905   725 0001:0001B911   727 0001:0001B91A
   729 0001:0001B91F   730 0001:0001B950   731 0001:0001B954   732 0001:0001B95D
   733 0001:0001B968   734 0001:0001B98F   735 0001:0001B995   737 0001:0001B9B6
   740 0001:0001B9CA   741 0001:0001B9D2   743 0001:0001B9D9   744 0001:0001BA0D
   745 0001:0001BA1F   746 0001:0001BA34   748 0001:0001BA3F   749 0001:0001BA48
   751 0001:0001BA4E   752 0001:0001BA64   754 0001:0001BA6A   755 0001:0001BA6E
   757 0001:0001BA74   758 0001:0001BA7C   760 0001:0001BA90   847 0001:0001BAD8
   848 0001:0001BAEA   849 0001:0001BAF2   856 0001:0001BB00   857 0001:0001BB15
   858 0001:0001BB1D   859 0001:0001BB29   860 0001:0001BB32   861 0001:0001BB3A
   862 0001:0001BB41   863 0001:0001BB4D   865 0001:0001BB55   866 0001:0001BB62
   867 0001:0001BB7C   868 0001:0001BB89   869 0001:0001BB92   870 0001:0001BBA4
   872 0001:0001BBB1   873 0001:0001BBBD   875 0001:0001BBDB   876 0001:0001BBED
   877 0001:0001BBF5   879 0001:0001BBF9   880 0001:0001BBFF   882 0001:0001BC09
   883 0001:0001BC12   884 0001:0001BC1A   885 0001:0001BC2B   886 0001:0001BC32
   889 0001:0001BC48   891 0001:0001BC54   914 0001:0001BC64   915 0001:0001BC76
   916 0001:0001BC7E   923 0001:0001BC8C   924 0001:0001BCA1   925 0001:0001BCA9
   926 0001:0001BCB5   927 0001:0001BCBC   928 0001:0001BCC8   929 0001:0001BCD0
   931 0001:0001BCD8   932 0001:0001BCE5   933 0001:0001BCEE   934 0001:0001BD00
   936 0001:0001BD0D   937 0001:0001BD1A   938 0001:0001BD26   940 0001:0001BD44
   941 0001:0001BD56   942 0001:0001BD5E   944 0001:0001BD62   945 0001:0001BD68
   947 0001:0001BD72   948 0001:0001BD7B   949 0001:0001BD83   950 0001:0001BD94
   951 0001:0001BD9B   954 0001:0001BDB1   956 0001:0001BDBD   962 0001:0001BDC8
   963 0001:0001BDD4   964 0001:0001BDE2   965 0001:0001BDEE   966 0001:0001BDF6
   967 0001:0001BDFF   968 0001:0001BE0B   970 0001:0001BE15   971 0001:0001BE1C
   972 0001:0001BE23   976 0001:0001BE4D   977 0001:0001BE54   978 0001:0001BE57
   980 0001:0001BE78   986 0001:0001BE80   987 0001:0001BE89   988 0001:0001BE92
   989 0001:0001BEC0  1001 0001:0001BEEC  1002 0001:0001BEF8  1003 0001:0001BF06
  1004 0001:0001BF0F  1007 0001:0001BF21  1008 0001:0001BF29  1009 0001:0001BF30
  1010 0001:0001BF43  1011 0001:0001BF57  1012 0001:0001BF6E  1014 0001:0001BF7F
  1015 0001:0001BF8B  1016 0001:0001BF94  1019 0001:0001BFB7  1021 0001:0001BFC3
  1024 0001:0001BFF5  1025 0001:0001BFFC  1026 0001:0001BFFF  1028 0001:0001C026
  1041 0001:0001C044  1042 0001:0001C056  1043 0001:0001C064  1044 0001:0001C06C
  1045 0001:0001C075  1046 0001:0001C081  1047 0001:0001C08A  1049 0001:0001C09E
  1050 0001:0001C0A5  1051 0001:0001C0DF  1053 0001:0001C0F6  1054 0001:0001C0FF
  1056 0001:0001C116  1057 0001:0001C11E  1060 0001:0001C152  1061 0001:0001C159
  1062 0001:0001C15C  1064 0001:0001C17D  1137 0001:0001C19C  1138 0001:0001C1A8
  1139 0001:0001C1BE  1140 0001:0001C1C6  1141 0001:0001C1CF  1143 0001:0001C1EC
  1144 0001:0001C1F8  1145 0001:0001C205  1146 0001:0001C20E  1148 0001:0001C216
  1153 0001:0001C244  1154 0001:0001C24E  1156 0001:0001C28F  1158 0001:0001C295
  1161 0001:0001C2D1  1162 0001:0001C2DB  1163 0001:0001C2E4  1164 0001:0001C2F7
  1167 0001:0001C301  1168 0001:0001C308  1172 0001:0001C331  1173 0001:0001C34D
  1174 0001:0001C35C  1175 0001:0001C36B  1176 0001:0001C373  1177 0001:0001C37B
  1180 0001:0001C384  1181 0001:0001C390  1185 0001:0001C399  1186 0001:0001C3A0
  1188 0001:0001C3C9  1189 0001:0001C3D8  1198 0001:0001C400  1199 0001:0001C40C
  1200 0001:0001C41A  1203 0001:0001C44D  1204 0001:0001C454  1205 0001:0001C457
  1207 0001:0001C478  1228 0001:0001C484  1229 0001:0001C490  1230 0001:0001C49E
  1231 0001:0001C4A6  1232 0001:0001C4AF  1233 0001:0001C4C3  1234 0001:0001C4CA
  1235 0001:0001C4F6  1238 0001:0001C52A  1239 0001:0001C531  1240 0001:0001C534
  1242 0001:0001C555  1263 0001:0001C570  1264 0001:0001C57C  1265 0001:0001C58A
  1266 0001:0001C593  1267 0001:0001C59B  1268 0001:0001C5A4  1270 0001:0001C5CA
  1273 0001:0001C5FC  1274 0001:0001C603  1275 0001:0001C606  1277 0001:0001C62D
  1283 0001:0001C634  1284 0001:0001C63B  1285 0001:0001C643  1286 0001:0001C64A
  1287 0001:0001C661  1288 0001:0001C668  1289 0001:0001C694  1299 0001:0001C6A8
  1300 0001:0001C6B4  1301 0001:0001C6BD  1302 0001:0001C6D0  1310 0001:0001C6D4
  1311 0001:0001C6DD  1312 0001:0001C6E5  1313 0001:0001C6EE  1316 0001:0001C6F8
  1317 0001:0001C70C  1318 0001:0001C713  1319 0001:0001C72E  1320 0001:0001C745
  1321 0001:0001C74E  1322 0001:0001C755  1323 0001:0001C788  1324 0001:0001C791
  1326 0001:0001C7BF  1332 0001:0001C80C  1333 0001:0001C813  1334 0001:0001C820
  1335 0001:0001C827  1336 0001:0001C83E  1337 0001:0001C847  1338 0001:0001C84E
  1340 0001:0001C881  1341 0001:0001C888  1342 0001:0001C8BB  1344 0001:0001C8C3
  1352 0001:0001C8DC  1353 0001:0001C8E8  1354 0001:0001C8F4  1372 0001:0001C8F8
  1373 0001:0001C907  1375 0001:0001C910  1376 0001:0001C92F  1377 0001:0001C937
  1380 0001:0001C940  1383 0001:0001C96E  1384 0001:0001C98D  1386 0001:0001C9A0
  1387 0001:0001C9A7  1388 0001:0001C9B6  1389 0001:0001C9C2  1390 0001:0001C9E9
  1391 0001:0001C9F5  1392 0001:0001CA0F  1394 0001:0001CA1F  1395 0001:0001CA27
  1396 0001:0001CA2D  1397 0001:0001CA3B  1398 0001:0001CA4A  1399 0001:0001CA60
  1401 0001:0001CA82  1402 0001:0001CA99  1403 0001:0001CAAB  1404 0001:0001CAB3
  1405 0001:0001CAB9  1409 0001:0001CAC9  1410 0001:0001CACF  1411 0001:0001CAD5
  1412 0001:0001CAFC  1413 0001:0001CB05  1414 0001:0001CB0D  1416 0001:0001CB27
  1498 0001:0001CB6C  1499 0001:0001CB75  1500 0001:0001CB8F  1501 0001:0001CB98
  1502 0001:0001CBAC  1503 0001:0001CBD5  1504 0001:0001CBEC  1505 0001:0001CBF4
  1506 0001:0001CC06  1507 0001:0001CC0F  1510 0001:0001CC24  1511 0001:0001CC2B
  1545 0001:0001CC30  1546 0001:0001CC3F  1547 0001:0001CC51  1548 0001:0001CC59
  1549 0001:0001CC62  1551 0001:0001CC92  1553 0001:0001CCA1  1559 0001:0001CCEC
  1560 0001:0001CCF5  1561 0001:0001CD01  1575 0001:0001CD08  1576 0001:0001CD27
  1580 0001:0001CDD7  1583 0001:0001CE00  1584 0001:0001CE1C  1587 0001:0001CE98
  1588 0001:0001CEC0  1589 0001:0001CECF  1590 0001:0001CED5  1591 0001:0001CEE0
  1592 0001:0001CEE9  1594 0001:0001CEF2  1595 0001:0001CEF9  1597 0001:0001CF01
  1641 0001:0001CF08  1642 0001:0001CF11  1643 0001:0001CF1A  1645 0001:0001CF3A
  1646 0001:0001CF6A  1653 0001:0001CF70  1654 0001:0001CF79  1655 0001:0001CF8C
  1656 0001:0001CF9D  1657 0001:0001CFB2  1662 0001:0001CFB8  1663 0001:0001CFBF
  1664 0001:0001CFC7  1665 0001:0001CFCF  1666 0001:0001CFE0  1667 0001:0001CFE7
  1672 0001:0001CFEC  1673 0001:0001CFF3  1674 0001:0001CFFB  1675 0001:0001D003
  1676 0001:0001D014  1677 0001:0001D01B  1895 0001:0001D050  1895 0001:0001D057

Line numbers for Consts(Consts.pas) segment .text

   309 0001:0001D088   309 0001:0001D08F

Line numbers for textdata(..\textdata.pas) segment .text

    59 0001:0001D090    60 0001:0001D0AF    61 0001:0001D0B7    62 0001:0001D0CD
    61 0001:0001D112    63 0001:0001D134    85 0001:0001D144    86 0001:0001D153
    87 0001:0001D171    88 0001:0001D179    89 0001:0001D187    91 0001:0001D1B6
    92 0001:0001D1B9    95 0001:0001D1C4    96 0001:0001D1CB   114 0001:0001D1D4
   115 0001:0001D1E0   117 0001:0001D1FC   118 0001:0001D200   120 0001:0001D208
   122 0001:0001D228   123 0001:0001D22C   126 0001:0001D234   127 0001:0001D23B
   154 0001:0001D260   155 0001:0001D263   157 0001:0001D276   158 0001:0001D29C
   161 0001:0001D2AC   162 0001:0001D2B3   168 0001:0001D2B8   172 0001:0001D2E7
   173 0001:0001D2FD   174 0001:0001D307   176 0001:0001D32A   177 0001:0001D337
   178 0001:0001D33E   179 0001:0001D343   183 0001:0001D34A   185 0001:0001D350
   186 0001:0001D357   188 0001:0001D361   189 0001:0001D368   190 0001:0001D388
   191 0001:0001D393   192 0001:0001D3A0   194 0001:0001D3B3   195 0001:0001D3BE
   196 0001:0001D3CB   197 0001:0001D3DE   198 0001:0001D400   199 0001:0001D407
   200 0001:0001D411   201 0001:0001D41C   205 0001:0001D42E   206 0001:0001D448
   208 0001:0001D44E   209 0001:0001D459   213 0001:0001D463   214 0001:0001D477
   217 0001:0001D491   170 0001:0001D49C   219 0001:0001D4D3   421 0001:0001D4E4
   422 0001:0001D4F3   423 0001:0001D4FE   424 0001:0001D513   460 0001:0001D518
   461 0001:0001D527   462 0001:0001D52C   463 0001:0001D532   465 0001:0001D538
   466 0001:0001D53B   463 0001:0001D53F   469 0001:0001D545   470 0001:0001D54A
   471 0001:0001D554   473 0001:0001D561   475 0001:0001D572   476 0001:0001D57A
   477 0001:0001D588   478 0001:0001D58B   479 0001:0001D58E   481 0001:0001D594
   482 0001:0001D597   483 0001:0001D5A4   484 0001:0001D5A9   486 0001:0001D5AD
   473 0001:0001D5B0   487 0001:0001D5B8   505 0001:0001D5C0   506 0001:0001D5CC
   507 0001:0001D5D7   508 0001:0001D5EF   507 0001:0001D5FF   509 0001:0001D604
   512 0001:0001D608   513 0001:0001D614   515 0001:0001D63A   520 0001:0001D640
   521 0001:0001D64F   522 0001:0001D655   523 0001:0001D666   522 0001:0001D67D
   524 0001:0001D685   529 0001:0001D68C   530 0001:0001D698   531 0001:0001D6A3
   533 0001:0001D6BB   536 0001:0001D6D9   537 0001:0001D6E9   531 0001:0001D6EC
   538 0001:0001D6F1   557 0001:0001D704   558 0001:0001D72F   559 0001:0001D73A
   560 0001:0001D74A   561 0001:0001D750   562 0001:0001D791   564 0001:0001D7C8
   564 0001:0001D7CF

Line numbers for Math(Math.pas) segment .text

   590 0001:0001D7D0   591 0001:0001D7D3   592 0001:0001D7D5   593 0001:0001D7D6
   594 0001:0001D7D8   595 0001:0001D7DA   596 0001:0001D7DC   597 0001:0001D7DE
   598 0001:0001D7E1   599 0001:0001D7E3   600 0001:0001D7E5   601 0001:0001D7E7
   602 0001:0001D7E9   603 0001:0001D7EB   604 0001:0001D7ED   605 0001:0001D7EF
   606 0001:0001D7F2   607 0001:0001D7F4   608 0001:0001D7F6   610 0001:0001D7F8
   611 0001:0001D7F9   765 0001:0001D800   766 0001:0001D803   767 0001:0001D806
   768 0001:0001D808   769 0001:0001D80B   770 0001:0001D80D   771 0001:0001D80F
   772 0001:0001D811   773 0001:0001D814   774 0001:0001D816   775 0001:0001D818
   776 0001:0001D81A   777 0001:0001D81C   778 0001:0001D81E   779 0001:0001D821
   780 0001:0001D823   781 0001:0001D825   782 0001:0001D827   783 0001:0001D829
   784 0001:0001D82B   785 0001:0001D82D   786 0001:0001D82F   787 0001:0001D831
   788 0001:0001D833   789 0001:0001D834   905 0001:0001D838   906 0001:0001D83E
   907 0001:0001D84C   908 0001:0001D863   909 0001:0001D87F   910 0001:0001D88D
   911 0001:0001D8B2   913 0001:0001D8D0   914 0001:0001D8EA  2166 0001:0001D930
  2166 0001:0001D937

Line numbers for Contnrs(Contnrs.pas) segment .text

   237 0001:0001D9A0   238 0001:0001D9AC   239 0001:0001D9BD   242 0001:0001D9C4
   243 0001:0001D9DC   244 0001:0001D9E6   245 0001:0001DA08   248 0001:0001DA0C
   249 0001:0001DA27   250 0001:0001DA31   251 0001:0001DA55   254 0001:0001DA5C
   255 0001:0001DA68   256 0001:0001DA79   281 0001:0001DA80   282 0001:0001DA8C
   283 0001:0001DA9D   301 0001:0001DAA4   302 0001:0001DAB3   303 0001:0001DABC
   304 0001:0001DAC2   305 0001:0001DACA   306 0001:0001DAD8   799 0001:0001DB0C
   799 0001:0001DB13

Line numbers for uDebug(..\uDebug.pas) segment .text

    83 0001:0001DC64    84 0001:0001DC87    85 0001:0001DC9D    87 0001:0001DCA3
    88 0001:0001DCC4    90 0001:0001DCE6    85 0001:0001DCF1    92 0001:0001DCF7
    93 0001:0001DD21   104 0001:0001DD28   105 0001:0001DD57   106 0001:0001DDAE
   112 0001:0001DDB4   113 0001:0001DDDB   115 0001:0001DDF3   116 0001:0001DE0F
   117 0001:0001DE2B   118 0001:0001DE47   119 0001:0001DE63   121 0001:0001DE79
   122 0001:0001DE7F   124 0001:0001DEB6   125 0001:0001DEF4   133 0001:0001DFB8
   134 0001:0001DFDE   136 0001:0001E022   137 0001:0001E04C   138 0001:0001E076
   141 0001:0001E085   142 0001:0001E0AC   143 0001:0001E0D7   144 0001:0001E0FD
   146 0001:0001E12A   148 0001:0001E166   155 0001:0001E19C   156 0001:0001E1C2
   158 0001:0001E206   159 0001:0001E230   162 0001:0001E23F   163 0001:0001E266
   164 0001:0001E28C   166 0001:0001E2EC   168 0001:0001E328   174 0001:0001E350
   177 0001:0001E379   180 0001:0001E388   181 0001:0001E39E   182 0001:0001E3AF
   183 0001:0001E3DC   184 0001:0001E402   185 0001:0001E43F   187 0001:0001E451
   175 0001:0001E45E   189 0001:0001E4A3   192 0001:0001E4C0   193 0001:0001E4EB
   194 0001:0001E4EF   195 0001:0001E4F8   196 0001:0001E502   197 0001:0001E50B
   198 0001:0001E515   199 0001:0001E51E   200 0001:0001E528   201 0001:0001E53B
   202 0001:0001E54E   203 0001:0001E561   205 0001:0001E57F   207 0001:0001E59B
   209 0001:0001E5A6   210 0001:0001E5B3   213 0001:0001E5C6   214 0001:0001E5E4
   215 0001:0001E5F1   216 0001:0001E5FD   217 0001:0001E62D   218 0001:0001E63E
   219 0001:0001E64A   220 0001:0001E656   211 0001:0001E660   224 0001:0001E685
   226 0001:0001E69D   227 0001:0001E6C7   229 0001:0001E707   232 0001:0001E718
   233 0001:0001E71B   234 0001:0001E725   235 0001:0001E72F   236 0001:0001E739
   237 0001:0001E740   243 0001:0001E744   244 0001:0001E750   245 0001:0001E758
   246 0001:0001E761   248 0001:0001E77B   249 0001:0001E78B   252 0001:0001E7A1
   253 0001:0001E7AF   255 0001:0001E7B1   246 0001:0001E7B4   256 0001:0001E7BA
   262 0001:0001E7C0   263 0001:0001E7CC   264 0001:0001E7D4   265 0001:0001E7DD
   267 0001:0001E7F7   268 0001:0001E807   270 0001:0001E812   271 0001:0001E820
   273 0001:0001E822   265 0001:0001E825   274 0001:0001E82B   282 0001:0001E830
   283 0001:0001E852   284 0001:0001E85A   285 0001:0001E862   286 0001:0001E86D
   287 0001:0001E884   289 0001:0001E8AE   290 0001:0001E8C7   292 0001:0001E8D7
   294 0001:0001E8E2   295 0001:0001E8ED   298 0001:0001E8EF   300 0001:0001E8FD
   287 0001:0001E900   301 0001:0001E927   304 0001:0001E92C   305 0001:0001E948
   307 0001:0001E955   309 0001:0001E95F   310 0001:0001E96C   313 0001:0001E9B9
   314 0001:0001E9C3   317 0001:0001E9E2   318 0001:0001EA0D   326 0001:0001EA24
   327 0001:0001EA2D   328 0001:0001EA35   330 0001:0001EA47   332 0001:0001EA4F
   334 0001:0001EA61   335 0001:0001EA6A   337 0001:0001EAAC   337 0001:0001EAB3

Line numbers for FreeListU(FreeListU.pas) segment .text

    19 0001:0001EAB4    20 0001:0001EAB7    21 0001:0001EACA    24 0001:0001EACC
    25 0001:0001EACF    26 0001:0001EAD9    28 0001:0001EB0C    28 0001:0001EB13

Line numbers for logging(..\logging.pas) segment .text

    65 0001:0001EB84    66 0001:0001EBA0    67 0001:0001EBAE    68 0001:0001EBC8
    69 0001:0001EBEA    71 0001:0001EC01    73 0001:0001EC30    78 0001:0001EC94
    79 0001:0001ECAF    80 0001:0001ECBD    81 0001:0001ECD7    82 0001:0001ECE1
    83 0001:0001ECE6    84 0001:0001ECF1    85 0001:0001ECFC    86 0001:0001ED02
    88 0001:0001ED54    90 0001:0001ED88    98 0001:0001EDE4    99 0001:0001EE18
   100 0001:0001EE22   101 0001:0001EE34   102 0001:0001EE3D   103 0001:0001EE53
   104 0001:0001EE5B   105 0001:0001EE65   106 0001:0001EE74   107 0001:0001EE8E
   108 0001:0001EE9C   110 0001:0001EEC1   112 0001:0001EEC4   115 0001:0001EED3
   116 0001:0001EEF2   117 0001:0001EEFB   119 0001:0001EF05   121 0001:0001EF0B
   122 0001:0001EF19   124 0001:0001EF4C   126 0001:0001EF54   127 0001:0001EF5D
   129 0001:0001EF6E   131 0001:0001EF77   132 0001:0001EF85   134 0001:0001EFB8
   136 0001:0001EFC0   137 0001:0001EFE3   143 0001:0001EFF4   144 0001:0001F03B
   147 0001:0001F0DC   148 0001:0001F0ED   149 0001:0001F0F5   150 0001:0001F106
   154 0001:0001F111   155 0001:0001F118   156 0001:0001F122   157 0001:0001F131
   158 0001:0001F13C   159 0001:0001F158   162 0001:0001F184   163 0001:0001F18B
   165 0001:0001F194   166 0001:0001F19F   172 0001:0001F1AC   178 0001:0001F1B0
   179 0001:0001F1D6   180 0001:0001F1E3   182 0001:0001F1F2   183 0001:0001F206
   184 0001:0001F22B   186 0001:0001F25D   187 0001:0001F268   188 0001:0001F27A
   190 0001:0001F28A   191 0001:0001F2C3   194 0001:0001F2D4   195 0001:0001F2E3
   196 0001:0001F2EC   197 0001:0001F307   198 0001:0001F313   199 0001:0001F321
   201 0001:0001F33E   203 0001:0001F353   233 0001:0001F358   234 0001:0001F384
   236 0001:0001F38E   237 0001:0001F3F6   238 0001:0001F3FB   237 0001:0001F42B
   239 0001:0001F431   242 0001:0001F440   243 0001:0001F44D   244 0001:0001F493
   254 0001:0001F4CC   255 0001:0001F4F2   256 0001:0001F53F   258 0001:0001F58C
   258 0001:0001F593

Line numbers for SHFolder(SHFolder.pas) segment .text

    89 0001:0001F594    93 0001:0001F5CC    93 0001:0001F5D3

Line numbers for TADemoConsts(TADemoConsts.pas) segment .text

    80 0001:0001F6BC    81 0001:0001F6C5    82 0001:0001F6CC    83 0001:0001F6D7
    84 0001:0001F6FB    85 0001:0001F70C    86 0001:0001F717    93 0001:0001F71C
    94 0001:0001F741    95 0001:0001F749    96 0001:0001F750    97 0001:0001F75B
    98 0001:0001F77F    99 0001:0001F790   100 0001:0001F7B6   102 0001:0001F7C2
   103 0001:0001F7D0   104 0001:0001F7DC   106 0001:0001F7F6   108 0001:0001F7FD
   109 0001:0001F82A   115 0001:0001F844   116 0001:0001F860   117 0001:0001F867
   118 0001:0001F872   120 0001:0001F8A0   121 0001:0001F8AB   122 0001:0001F8B1
   124 0001:0001F8B6   125 0001:0001F8BF   126 0001:0001F8EA   127 0001:0001F91F
   135 0001:0001F924   136 0001:0001F92D   138 0001:0001F936   139 0001:0001F948
   140 0001:0001F952   141 0001:0001F95E   142 0001:0001F96C   144 0001:0001F973
   145 0001:0001F97E   158 0001:0001F984   159 0001:0001F988   160 0001:0001F98D
   161 0001:0001F996   162 0001:0001F9A5   164 0001:0001F9AE   165 0001:0001F9C3
   166 0001:0001F9CC   168 0001:0001F9E4   187 0001:0001FA10   188 0001:0001FA1C
   189 0001:0001FA20   190 0001:0001FA2A   192 0001:0001FA46   193 0001:0001FA4C
   194 0001:0001FA51   195 0001:0001FA57   199 0001:0001FA81   214 0001:0001FA88
   215 0001:0001FAAA   219 0001:0001FAB7   220 0001:0001FAC4   221 0001:0001FB0B
   223 0001:0001FB1D   224 0001:0001FB24   225 0001:0001FB2F   226 0001:0001FB36
   227 0001:0001FB41   233 0001:0001FBBE   234 0001:0001FBD0   235 0001:0001FBE2
   238 0001:0001FBEF   241 0001:0001FBF5   244 0001:0001FC18   245 0001:0001FC1E
   246 0001:0001FC2C   248 0001:0001FC47   253 0001:0001FC58   254 0001:0001FC89
   287 0001:0001FC90   288 0001:0001FC99   290 0001:0001FCA6   291 0001:0001FCAD
   292 0001:0001FCB8   294 0001:0001FCEC   295 0001:0001FCF7   296 0001:0001FCFD
   298 0001:0001FD02   299 0001:0001FD0B   300 0001:0001FD3C   302 0001:0001FD4B
   303 0001:0001FD59   308 0001:0001FD60   309 0001:0001FD7C   310 0001:0001FD89
   311 0001:0001FDB9   312 0001:0001FDC4   313 0001:0001FDF9   316 0001:0001FE00
   317 0001:0001FE1C   318 0001:0001FE29   319 0001:0001FE68   320 0001:0001FE99
   332 0001:0001FEA4   333 0001:0001FECF   336 0001:0001FEDD   337 0001:0001FEE8
   338 0001:0001FEF0   339 0001:0001FEFB   340 0001:0001FF0B   341 0001:0001FF11
   342 0001:0001FF16   343 0001:0001FF21   344 0001:0001FF2F   346 0001:0001FF42
   348 0001:0001FF58   349 0001:0001FF61   350 0001:0001FF82   352 0001:0001FFB0
   353 0001:0001FFB9   354 0001:0001FFEC   356 0001:00020027   359 0001:00020052
   361 0001:00020055   362 0001:0002005D   365 0001:00020097   369 0001:000200B0
   372 0001:000200D2   374 0001:000200F5   377 0001:00020101   378 0001:00020109
   379 0001:00020122   380 0001:00020130   382 0001:00020147   385 0001:0002017F
   390 0001:00020198   391 0001:000201B2   392 0001:000201BB   393 0001:000201DB
   394 0001:0002020B   396 0001:0002026C   396 0001:00020273

Line numbers for TextFileU(..\TextFileU.pas) segment .text

    35 0001:000202CC    36 0001:000202E7    37 0001:000202F1    41 0001:00020326
    42 0001:00020364    43 0001:0002037C    44 0001:0002039E    47 0001:000203A4
    48 0001:000203BF    49 0001:000203C9    53 0001:000203FE    54 0001:0002043C
    55 0001:0002045E    58 0001:00020464    59 0001:00020475    60 0001:00020480
    61 0001:0002049C    64 0001:000204A0    65 0001:000204A7    67 0001:000204B0
    68 0001:000204B7    70 0001:000204C2    83 0001:000204C8    84 0001:000204E7
    85 0001:000204EE    86 0001:000204FE    87 0001:0002055C    89 0001:0002059C
    89 0001:000205A3

Line numbers for DPlay(DPlay.pas) segment .text

  1551 0001:00020670  1552 0001:0002067C  1553 0001:0002090B  1554 0001:0002091D
  1555 0001:0002092F  1556 0001:00020941  1557 0001:00020953  1558 0001:00020965
  1559 0001:00020977  1560 0001:00020989  1561 0001:0002099B  1562 0001:000209AD
  1563 0001:000209BF  1564 0001:000209D1  1565 0001:000209E3  1566 0001:000209F5
  1567 0001:00020A07  1568 0001:00020A19  1569 0001:00020A2B  1570 0001:00020A3D
  1571 0001:00020A4F  1572 0001:00020A61  1573 0001:00020A73  1574 0001:00020A85
  1576 0001:00020A97  1577 0001:00020AA9  1578 0001:00020ABB  1579 0001:00020ACD
  1580 0001:00020ADF  1581 0001:00020AF1  1582 0001:00020B03  1583 0001:00020B15
  1584 0001:00020B27  1585 0001:00020B39  1586 0001:00020B4B  1587 0001:00020B5D
  1588 0001:00020B6F  1589 0001:00020B81  1590 0001:00020B93  1591 0001:00020BA5
  1592 0001:00020BB7  1593 0001:00020BC9  1594 0001:00020BDB  1595 0001:00020BED
  1596 0001:00020BFF  1597 0001:00020C11  1598 0001:00020C23  1599 0001:00020C32
  1600 0001:00020C41  1601 0001:00020C50  1602 0001:00020C5F  1603 0001:00020C6E
  1604 0001:00020C7D  1605 0001:00020C8C  1606 0001:00020C9B  1608 0001:00020CA8
  1610 0001:00021F40  1610 0001:00021F47

Line numbers for DPLobby(DPLobby.pas) segment .text

   632 0001:00022064   632 0001:0002206B

Line numbers for CommandHandlerU(CommandHandlerU.pas) segment .text

   104 0001:00022144   105 0001:0002215F   106 0001:0002216D   107 0001:0002217B
   108 0001:00022189   109 0001:00022192   110 0001:0002219B   111 0001:000221A4
   112 0001:000221AD   113 0001:000221B6   114 0001:000221BF   115 0001:000221E9
   122 0001:000221F0   123 0001:00022208   124 0001:00022212   125 0001:00022224
   126 0001:00022231   127 0001:00022256   130 0001:0002225C   131 0001:0002226D
   132 0001:00022275   133 0001:00022280   134 0001:0002229C   137 0001:000222A0
   138 0001:000222A9   139 0001:000222B2   141 0001:000222C2   142 0001:000222CA
   145 0001:000222D0   146 0001:000222DC   147 0001:000222E5   149 0001:000222F8
   150 0001:00022300   154 0001:00022304   155 0001:0002230D   156 0001:00022316
   157 0001:0002233A   156 0001:00022350   158 0001:00022355   159 0001:00022360
   180 0001:00022364   181 0001:00022371   182 0001:00022389   184 0001:0002239C
   185 0001:000223A4   195 0001:000223AC   196 0001:000223D1   197 0001:000223DE
   198 0001:000223EC   200 0001:000223F6   202 0001:00022412   212 0001:00022465
   213 0001:00022473   215 0001:00022493   216 0001:0002249B   222 0001:000224A7
   223 0001:000224A8   224 0001:000224AB   225 0001:000224AE   227 0001:000224AF
   230 0001:000224F3   247 0001:00022518   248 0001:0002253D   249 0001:0002254A
   251 0001:00022562   254 0001:0002259A   255 0001:000225A8   257 0001:000225C8
   258 0001:000225D0   264 0001:000225DC   265 0001:000225DD   266 0001:000225E0
   267 0001:000225E3   269 0001:000225E4   271 0001:00022628   273 0001:00022680
   273 0001:00022687

Line numbers for DateUtils(DateUtils.pas) segment .text

   561 0001:00022688   562 0001:0002268E   563 0001:000226AA  1523 0001:000226E0
  1523 0001:000226E7

Line numbers for StopWatch(StopWatch.pas) segment .text

    28 0001:00022740    29 0001:0002275B    31 0001:00022765    33 0001:0002276C
    34 0001:00022784    35 0001:0002278D    37 0001:0002279E    38 0001:000227C7
    46 0001:000227CC    47 0001:000227D8    48 0001:000227E1    50 0001:000227EC
    51 0001:0002280A    54 0001:00022810    55 0001:00022819    56 0001:00022868
    59 0001:0002286C    60 0001:00022873    61 0001:00022881    62 0001:00022888
    65 0001:0002288C    66 0001:00022893    67 0001:000228A1    68 0001:000228A8
    70 0001:000228DC    70 0001:000228E3

Line numbers for ConsoleTimer(ConsoleTimer.pas) segment .text

    36 0001:00022948    37 0001:00022960    38 0001:0002296C    39 0001:0002297E
    40 0001:00022990    41 0001:0002299B    42 0001:000229A5    43 0001:000229C7
    46 0001:000229CC    47 0001:000229DD    48 0001:000229E8    49 0001:000229F3
    50 0001:000229FB    51 0001:00022A06    52 0001:00022A11    53 0001:00022A2D
    56 0001:00022A34    57 0001:00022A40    58 0001:00022A46    60 0001:00022A53
    61 0001:00022A5E    64 0001:00022A64    65 0001:00022A70    66 0001:00022A79
    73 0001:00022A80    74 0001:00022A8A    75 0001:00022A9B    76 0001:00022AA7
    79 0001:00022AB8    82 0001:00022ACF    84 0001:00022AD9    85 0001:00022AE1
    86 0001:00022AED    88 0001:00022AF5    89 0001:00022B15    90 0001:00022B25
    91 0001:00022B33    77 0001:00022B52    94 0001:00022B5F   101 0001:00022B94
   101 0001:00022B9B

Line numbers for MemMappedDataStructure(MemMappedDataStructure.pas) segment .text

    80 0001:00022B9C    81 0001:00022BA5    82 0001:00022BB8    85 0001:00022BBC
    86 0001:00022BC3    87 0001:00022BCE    89 0001:00022BF1    90 0001:00022BFF
    92 0001:00022C10    93 0001:00022C1C    94 0001:00022C24    95 0001:00022C34
    96 0001:00022C40    97 0001:00022C50    98 0001:00022C5C    99 0001:00022C6C
   100 0001:00022C78   101 0001:00022C88   102 0001:00022C94   103 0001:00022CA4
   104 0001:00022CB0   105 0001:00022CC0   106 0001:00022CCC   107 0001:00022CDC
   108 0001:00022CE8   109 0001:00022CF8   110 0001:00022D04   111 0001:00022D14
   112 0001:00022D20   113 0001:00022D30   114 0001:00022D3C   115 0001:00022D4C
   116 0001:00022D58   117 0001:00022D68   118 0001:00022D74   119 0001:00022D84
   122 0001:00022D90   123 0001:00022DA0   124 0001:00022DAC   125 0001:00022DBC
   126 0001:00022DC8   131 0001:00022F28   132 0001:00022F2E   133 0001:00022F48
   134 0001:00022F56   135 0001:00022F5C   136 0001:00022F68   139 0001:00022F78
   140 0001:00022F84   141 0001:00022FA0   142 0001:00022FA8   143 0001:00022FAD
   144 0001:00022FCB   145 0001:00022FD3   146 0001:00022FD8   162 0001:0002301C
   162 0001:00023023

Line numbers for PacketBufferU(packets\PacketBufferU.pas) segment .text

   784 0001:00023084   784 0001:0002308B

Line numbers for log2(log2.pas) segment .text

    36 0001:000230F0    37 0001:0002310B    38 0001:00023115    40 0001:00023123
    44 0001:00023158    45 0001:00023187    46 0001:0002318E    47 0001:00023196
    48 0001:000231B8    51 0001:000231C0    52 0001:000231C7    54 0001:000231D0
    55 0001:000231D7    57 0001:000231E2    63 0001:000231E8    64 0001:0002320A
    65 0001:00023227    66 0001:00023232    68 0001:00023238    69 0001:0002323F
    70 0001:00023272    71 0001:0002327B    76 0001:000232B6    77 0001:000232B7
    78 0001:000232BA    79 0001:000232BD    81 0001:000232BE    82 0001:000232F1
    84 0001:0002331B   114 0001:000233A0   115 0001:000233B1   116 0001:000233BC
   117 0001:000233D8   119 0001:0002340C   119 0001:00023413

Line numbers for PluginEngine(PluginEngine.pas) segment .text

   194 0001:0002373C   196 0001:00023742   197 0001:00023743   200 0001:00023744
   201 0001:00023747   202 0001:0002374A   203 0001:0002374D   204 0001:00023750
   207 0001:00023753   208 0001:00023756   209 0001:00023757   213 0001:0002375C
   214 0001:0002375F   216 0001:00023762   217 0001:00023763   218 0001:00023764
   226 0001:0002376C   227 0001:00023772   228 0001:00023776   231 0001:00023795
   232 0001:0002379C   233 0001:000237B6   236 0001:000237C4   237 0001:000237E9
   241 0001:00023818   243 0001:0002383C   249 0001:00023844   250 0001:0002384A
   251 0001:00023851   252 0001:0002386B   256 0001:00023879   258 0001:000238AB
   260 0001:000238CF   267 0001:000238D8   268 0001:000238F0   269 0001:00023915
   277 0001:0002391C   278 0001:00023938   280 0001:00023946   281 0001:00023961
   286 0001:0002396F   287 0001:00023995   289 0001:000239B8   291 0001:000239DD
   294 0001:000239E5   295 0001:000239E6   296 0001:000239E9   297 0001:000239EC
   299 0001:000239ED   301 0001:00023A17   302 0001:00023A3B   314 0001:00023A5C
   315 0001:00023A78   316 0001:00023A80   317 0001:00023A97   319 0001:00023AB4
   320 0001:00023ACF   325 0001:00023ADD   326 0001:00023B14   331 0001:00023B4B
   333 0001:00023B6C   335 0001:00023B91   338 0001:00023B99   339 0001:00023B9A
   340 0001:00023B9D   341 0001:00023BA0   343 0001:00023BA1   345 0001:00023BCB
   346 0001:00023BEF   363 0001:00023C10   364 0001:00023C2C   365 0001:00023C34
   366 0001:00023C38   367 0001:00023C5A   368 0001:00023C61   370 0001:00023C7E
   371 0001:00023C99   376 0001:00023CA7   377 0001:00023CDE   382 0001:00023CFF
   384 0001:00023D20   386 0001:00023D45   389 0001:00023D4D   390 0001:00023D4E
   391 0001:00023D51   392 0001:00023D54   394 0001:00023D55   396 0001:00023D7F
   397 0001:00023DA3   406 0001:00023DC4   407 0001:00023DDC   408 0001:00023DE3
   409 0001:00023DE8   408 0001:00023E02   410 0001:00023E26   419 0001:00023E2C
   420 0001:00023E48   421 0001:00023E50   422 0001:00023E78   423 0001:00023E9B
   425 0001:00023EBE   426 0001:00023EDF   431 0001:00023EED   432 0001:00023F2A
   437 0001:00023F54   439 0001:00023F7B   441 0001:00023FA6   444 0001:00023FB4
   445 0001:00023FB5   446 0001:00023FB8   447 0001:00023FBB   449 0001:00023FBC
   451 0001:00023FE6   452 0001:0002400A   463 0001:00024084   464 0001:000240B5
   465 0001:000240BE   466 0001:000240CC   467 0001:000240D5   468 0001:000240DE
   469 0001:0002411F   473 0001:00024128   474 0001:00024137   475 0001:00024148
   476 0001:00024151   477 0001:0002415F   478 0001:0002416B   479 0001:00024174
   480 0001:00024196   486 0001:0002419C   487 0001:000241AB   488 0001:000241BC
   489 0001:000241C5   490 0001:000241D3   491 0001:000241DC   492 0001:000241E8
   501 0001:000241F0   502 0001:000241FF   503 0001:00024210   504 0001:00024219
   505 0001:00024227   506 0001:00024244   507 0001:0002425E   506 0001:0002427C
   508 0001:00024281   509 0001:0002428D   533 0001:00024294   534 0001:000242A3
   535 0001:000242B4   536 0001:000242BD   537 0001:000242CB   538 0001:000242E8
   539 0001:00024302   538 0001:00024334   540 0001:00024339   541 0001:00024345
   546 0001:0002434C   547 0001:00024358   548 0001:00024372   549 0001:00024380
   550 0001:000243A7   551 0001:000243B2   552 0001:000243D2   564 0001:00024458
   565 0001:00024461   567 0001:00024467   568 0001:00024474   569 0001:0002449A
   571 0001:000244B7   577 0001:000244BC   579 0001:000244D9   580 0001:000244E7
   581 0001:00024504   584 0001:00024572   585 0001:00024592   586 0001:000245AF
   587 0001:000245DA   588 0001:000245F1   589 0001:0002462B   587 0001:00024649
   590 0001:0002464E   580 0001:00024651   591 0001:0002467D   617 0001:00024684
   618 0001:0002469E   619 0001:000246AC   620 0001:000246C9   622 0001:000246ED
   623 0001:00024718   624 0001:0002472F   625 0001:0002474C   623 0001:0002476B
   626 0001:00024770   627 0001:00024790   628 0001:000247AD   619 0001:000247B0
   629 0001:000247DC   631 0001:00024824   631 0001:0002482B

Line numbers for TA_MemoryStructures(TAMem\TA_MemoryStructures.pas) segment .text

  1190 0001:00024AA4  1190 0001:00024AAB

Line numbers for TA_FunctionsU(TAMem\TA_FunctionsU.pas) segment .text

   853 0001:00024AAC   854 0001:00024AC9   855 0001:00024AF7   858 0001:00024AFC
   859 0001:00024B19   860 0001:00024B47   862 0001:00024B7C   862 0001:00024B83

Line numbers for TA_MemoryConstants(TAMem\TA_MemoryConstants.pas) segment .text

    34 0001:00024BB4    34 0001:00024BBB

Line numbers for IniFiles(IniFiles.pas) segment .text

   160 0001:00024D94   161 0001:00024DAF   162 0001:00024DD8   167 0001:00024DDC
   168 0001:00024DE9   169 0001:00024DF8   170 0001:00024E06   171 0001:00024E14
   173 0001:00024E2F   175 0001:00024E42   181 0001:00024E48   182 0001:00024E6E
   183 0001:00024E81   185 0001:00024EA8   186 0001:00024ECE   187 0001:00024F01
   190 0001:00024F14   191 0001:00024F37   192 0001:00024F71   196 0001:00024F78
   197 0001:00024F88   198 0001:00024FA5   203 0001:00024FAC   204 0001:00024FD1
   205 0001:00024FE4   206 0001:00024FF0   207 0001:00024FF6   208 0001:00025004
   213 0001:00025035   215 0001:0002505F   220 0001:00025068   221 0001:0002508D
   222 0001:000250A0   223 0001:000250AC   224 0001:000250B2   225 0001:000250C0
   230 0001:000250F1   232 0001:0002511B   237 0001:00025124   238 0001:00025149
   239 0001:0002515C   240 0001:00025168   241 0001:0002516E   242 0001:0002517C
   247 0001:000251AD   249 0001:000251D7   254 0001:000251E0   255 0001:00025205
   256 0001:00025218   257 0001:00025224   258 0001:0002522A   259 0001:00025238
   264 0001:00025269   266 0001:00025293   269 0001:0002529C   270 0001:000252BF
   271 0001:000252FC   274 0001:00025304   275 0001:00025327   276 0001:00025364
   279 0001:0002536C   280 0001:0002538F   281 0001:000253D0   284 0001:000253D8
   285 0001:000253FB   286 0001:00025438   291 0001:00025458   292 0001:00025468
   293 0001:00025483   298 0001:0002548C   299 0001:0002549C   300 0001:000254AB
   301 0001:000254B9   302 0001:000254C7   304 0001:000254E4   306 0001:000254F7
   314 0001:000254FC   315 0001:0002551F   316 0001:00025532   318 0001:0002553C
   319 0001:0002554E   321 0001:00025556   323 0001:00025565   324 0001:00025573
   325 0001:0002557E   326 0001:000255A2   327 0001:000255DD   328 0001:000255EB
   329 0001:000255F3   330 0001:00025610   332 0001:0002562A   333 0001:00025632
   337 0001:00025642   338 0001:00025667   345 0001:00025670   346 0001:00025693
   347 0001:000256C0   349 0001:000256D0   350 0001:000256E2   352 0001:000256EA
   354 0001:000256F9   355 0001:00025707   357 0001:0002570F   358 0001:00025736
   360 0001:00025742   363 0001:00025790   364 0001:00025798   367 0001:000257A8
   368 0001:000257D7   821 0001:000257E0   822 0001:000257F1   823 0001:000257F9
   824 0001:00025815   829 0001:0002581C   830 0001:0002582E   832 0001:00025876
   835 0001:0002587C   836 0001:0002588B   838 0001:000258BB   839 0001:000258E5
   846 0001:000258EC   847 0001:0002590B   848 0001:00025918   849 0001:00025926
   850 0001:0002592E   851 0001:0002593C   852 0001:00025944   855 0001:00025968
   858 0001:00025970   859 0001:00025986   856 0001:00025992   863 0001:000259A7
   866 0001:000259C4   868 0001:000259F1   875 0001:000259F8   876 0001:00025A1B
   877 0001:00025A28   878 0001:00025A36   879 0001:00025A3E   880 0001:00025A4C
   881 0001:00025A54   884 0001:00025A7F   887 0001:00025A87   888 0001:00025A9D
   885 0001:00025AA9   892 0001:00025ABE   895 0001:00025ADB   897 0001:00025B08
   903 0001:00025B10   904 0001:00025B3C   905 0001:00025B4B   906 0001:00025B59
   907 0001:00025B67   908 0001:00025B6F   909 0001:00025B7D   910 0001:00025B85
   911 0001:00025B9D   912 0001:00025BEF   910 0001:00025BF2   913 0001:00025C04
   916 0001:00025C21   918 0001:00025C53   921 0001:00025C64   922 0001:00025C70
   923 0001:00025C92   924 0001:00025CBC   927 0001:00025CC0   928 0001:00025CCF
   929 0001:00025CF4   932 0001:00025CF8   933 0001:00025CFF   934 0001:00025D16
   945 0001:00025D64   945 0001:00025D6B

Line numbers for Registry(Registry.pas) segment .text

   164 0001:00025EA0   165 0001:00025EA9   166 0001:00025ED0   169 0001:00025ED4
   170 0001:00025EDD   171 0001:00025EF7   174 0001:00025EFC   175 0001:00025F05
   176 0001:00025F1A   177 0001:00025F23   178 0001:00025F2C   179 0001:00025F35
   181 0001:00025F3E   183 0001:00025F46   186 0001:00025F4C   187 0001:00025F55
   188 0001:00025F61   189 0001:00025F6D   190 0001:00025F79   191 0001:00025F85
   192 0001:00025F8C   195 0001:00025F90   196 0001:00025FA8   197 0001:00025FB5
   198 0001:00025FBF   199 0001:00025FE1   202 0001:00025FE8   203 0001:00026003
   204 0001:0002600D   205 0001:00026031   208 0001:00026038   209 0001:00026049
   210 0001:00026051   211 0001:0002606D   214 0001:00026074   215 0001:0002607B
   217 0001:00026084   218 0001:0002608D   219 0001:0002609B   220 0001:000260A7
   221 0001:000260AF   223 0001:000260BA   226 0001:000260C0   227 0001:000260CC
   229 0001:000260D7   231 0001:000260E0   232 0001:000260EC   234 0001:000260F3
   235 0001:000260FC   237 0001:00026104   240 0001:00026108   241 0001:00026117
   242 0001:0002611F   243 0001:00026128   244 0001:00026136   247 0001:0002613C
   248 0001:00026148   249 0001:00026157   250 0001:00026162   251 0001:0002616E
   254 0001:00026174   255 0001:00026180   256 0001:00026189   264 0001:00026190
   265 0001:000261AF   266 0001:000261B4   267 0001:000261BF   268 0001:000261CA
   269 0001:000261E2   271 0001:00026217   272 0001:00026228   273 0001:0002626F
   281 0001:00026274   282 0001:00026297   283 0001:000262A2   285 0001:000262AD
   286 0001:000262C5   287 0001:000262CA   289 0001:000262D6   292 0001:00026305
   294 0001:0002633C   296 0001:00026342   297 0001:0002636C   299 0001:0002639A
   442 0001:000263AC   443 0001:000263BB   444 0001:000263CA   446 0001:000263F4
   447 0001:00026404   452 0001:00026408   453 0001:00026414   454 0001:00026426
   455 0001:0002642E   456 0001:00026438   468 0001:0002643C   469 0001:0002644B
   470 0001:0002646C   481 0001:00026470   482 0001:0002647F   483 0001:0002648D
   485 0001:00026493   486 0001:000264A0   487 0001:000264BF   488 0001:000264CB
   489 0001:000264E6   491 0001:000264F0   492 0001:000264F8   607 0001:000264FC
   608 0001:0002650B   609 0001:00026516   611 0001:0002653D   612 0001:00026564
   618 0001:0002656C   619 0001:0002657B   620 0001:00026580   622 0001:000265A7
   623 0001:000265CE   624 0001:000265D4   625 0001:000265E4   637 0001:000265EC
   638 0001:000265F8   639 0001:0002660C   645 0001:00026610   646 0001:0002662F
   647 0001:0002663A   648 0001:00026645   649 0001:0002665D   650 0001:00026662
   651 0001:000266A9   897 0001:000266B0   898 0001:000266CB   899 0001:000266F8
   902 0001:000266FC   903 0001:00026717   904 0001:00026724   905 0001:00026732
   906 0001:0002675A   911 0001:00026760   912 0001:0002676F   913 0001:0002677D
   914 0001:00026787   915 0001:00026795   916 0001:0002679E   917 0001:000267A9
   918 0001:000267B7   919 0001:000267C6   920 0001:000267D6   922 0001:000267EE
   925 0001:0002680E   927 0001:0002681F   928 0001:0002682A   933 0001:00026830
   934 0001:0002683F   935 0001:0002684A   936 0001:00026858   937 0001:0002685E
   938 0001:0002686C   939 0001:00026875   940 0001:00026880   941 0001:0002688E
   943 0001:000268A9   946 0001:000268C9   948 0001:000268DA   954 0001:000268E0
   955 0001:00026903   956 0001:00026911   957 0001:0002691B   958 0001:00026929
   959 0001:00026932   960 0001:0002693D   961 0001:0002694B   963 0001:0002695A
   964 0001:00026968   966 0001:00026978   968 0001:0002698B   971 0001:000269AB
   973 0001:000269BC   974 0001:000269E2   979 0001:000269EC   980 0001:00026A0F
   981 0001:00026A1A   982 0001:00026A28   983 0001:00026A32   984 0001:00026A40
   985 0001:00026A49   986 0001:00026A54   987 0001:00026A62   989 0001:00026A88
   992 0001:00026AA8   994 0001:00026AD6   997 0001:00026AE0   998 0001:00026AEF
   999 0001:00026B0C  1475 0001:00026B74  1475 0001:00026B7B

Line numbers for packet_old(..\packet_old.pas) segment .text

    77 0001:00026BE4    78 0001:00026C16    79 0001:00026C20    80 0001:00026C8B
   131 0001:00026C90   132 0001:00026CC1   133 0001:00026D0C   137 0001:00026D20
   138 0001:00026D29   139 0001:00026D55   167 0001:00026D5C   168 0001:00026D68
   169 0001:00026D93   177 0001:00026D98   178 0001:00026DB7   179 0001:00026DF7
   192 0001:00026DFC   193 0001:00026E0B   194 0001:00026F70   195 0001:00026F7C
   196 0001:00026F88   197 0001:00026F94   198 0001:00026FA0   199 0001:00026FAC
   200 0001:00026FB8   201 0001:00026FC4   204 0001:00026FD0   205 0001:00026FD7
   209 0001:0002700C   212 0001:0002702B   213 0001:00027065   217 0001:00027075
   218 0001:00027081   219 0001:0002708D   221 0001:00027099   222 0001:000270A5
   223 0001:000270B1   224 0001:000270BD   225 0001:000270C9   229 0001:000270F8
   230 0001:00027104   231 0001:00027110   232 0001:0002711C   233 0001:00027128
   234 0001:00027134   235 0001:00027140   236 0001:0002714C   237 0001:0002716F
   238 0001:0002717B   239 0001:0002719E   241 0001:000271AA   242 0001:000271B6
   244 0001:000271C2   245 0001:000271CE   246 0001:000271DA   247 0001:000271E6
   249 0001:000271F2   250 0001:000271FE   251 0001:0002720A   253 0001:0002722D
   254 0001:00027239   255 0001:00027245   256 0001:00027251   257 0001:00027285
   258 0001:0002728E   259 0001:000272C4   260 0001:000272CD   261 0001:000272D6
   263 0001:000272DE   310 0001:000272E4   311 0001:0002730F   313 0001:00027317
   314 0001:0002731F   317 0001:00027324   318 0001:00027339   320 0001:000273A2
   321 0001:000273D6   323 0001:00027405   325 0001:00027414   326 0001:00027485
   328 0001:0002748A   330 0001:00027494   331 0001:0002750C   332 0001:00027519
   336 0001:00027523   337 0001:00027530   338 0001:00027555   340 0001:0002758B
   352 0001:00027654   353 0001:0002767B   355 0001:00027688   356 0001:00027698
   358 0001:0002769D   359 0001:000276A3   361 0001:000276BE   362 0001:000276CD
   363 0001:000276EA   359 0001:000276ED   364 0001:000276F2   365 0001:000276FE
   367 0001:0002770A   368 0001:0002771B   371 0001:0002772A   372 0001:00027752
   384 0001:0002779C   385 0001:000277C2   387 0001:000277CF   388 0001:000277E0
   389 0001:000277ED   391 0001:000277EF   392 0001:000277F5   394 0001:00027810
   395 0001:0002782F   396 0001:0002783E   392 0001:00027841   397 0001:00027846
   398 0001:00027852   400 0001:0002785C   401 0001:00027884   420 0001:000278C4
   421 0001:000278F6   423 0001:00027915   424 0001:00027920   426 0001:00027925
   427 0001:00027930   431 0001:00027937   432 0001:00027945   433 0001:00027982
   434 0001:000279BF   435 0001:000279FC   437 0001:00027A03   438 0001:00027A07
   439 0001:00027A15   441 0001:00027A21   442 0001:00027A3E   443 0001:00027A49
   445 0001:00027A4E   447 0001:00027A56   448 0001:00027A5A   450 0001:00027A64
   452 0001:00027A76   453 0001:00027A81   455 0001:00027A8C   456 0001:00027AA8
   457 0001:00027AEF   458 0001:00027AF7   460 0001:00027B05   461 0001:00027B3E
   465 0001:00027B4E   466 0001:00027B6E   467 0001:00027B79   468 0001:00027B82
   469 0001:00027B88   470 0001:00027B92   471 0001:00027B96   473 0001:00027BBF
   474 0001:00027BCA   476 0001:00027BD5   477 0001:00027BF1   478 0001:00027C38
   479 0001:00027C40   481 0001:00027C4E   482 0001:00027C93   471 0001:00027C96
   484 0001:00027C9F   443 0001:00027CA2   439 0001:00027CAC   487 0001:00027CC5
   489 0001:00027CD0   490 0001:00027CD6   492 0001:00027D22   501 0001:00027D80
   502 0001:00027DAA   504 0001:00027DB3   505 0001:00027DBE   506 0001:00027DE0
   508 0001:00027DE5   509 0001:00027DED   510 0001:00027DF4   513 0001:00027E00
   515 0001:00027E06   516 0001:00027E0D   517 0001:00027E1D   519 0001:00027E2A
   520 0001:00027E35   522 0001:00027E44   523 0001:00027E74   526 0001:00027E84
   527 0001:00027E8B   529 0001:00027EAC   531 0001:00027EB3   530 0001:00027EBE
   532 0001:00027F33   534 0001:00027F3B   535 0001:00027F41   536 0001:00027F54
   539 0001:00027F5A   527 0001:00027F5D   540 0001:00027F66   542 0001:00027F6D
   541 0001:00027F78   543 0001:00027FDB   545 0001:00027FE3   546 0001:00027FE9
   548 0001:00028006   550 0001:00028010   551 0001:00028061   552 0001:00028074
   553 0001:00028098   554 0001:000280A8   555 0001:000280DD   556 0001:000280E7
   559 0001:00028103   560 0001:00028133   511 0001:0002813E   564 0001:00028159
   565 0001:0002815F   567 0001:00028171   568 0001:000281C3   570 0001:000281D3
   571 0001:000281F9   573 0001:00028292   574 0001:0002829D   576 0001:000282E1
   588 0001:00028340   588 0001:00028347

Line numbers for PluginCommandHandlerU(plugins\PluginCommandHandlerU.pas) segment .text

   114 0001:000283A4   115 0001:000283BC   116 0001:000283C6   117 0001:000283D8
   118 0001:000283E5   119 0001:0002840A   122 0001:00028410   123 0001:00028421
   124 0001:00028429   125 0001:00028434   126 0001:00028450   146 0001:00028454
   147 0001:0002845D   148 0001:00028466   149 0001:0002848A   148 0001:000284A0
   150 0001:000284A5   151 0001:000284B0   172 0001:000284B4   173 0001:000284C1
   174 0001:000284D9   176 0001:000284EC   177 0001:000284F4   263 0001:0002852C
   263 0001:00028533

Line numbers for InputHook(plugins\InputHook.pas) segment .text

    60 0001:00028534    62 0001:00028553    63 0001:00028558    64 0001:0002855D
    65 0001:0002856B    68 0001:00028575    67 0001:00028579    69 0001:00028581
    71 0001:00028589    70 0001:0002858D    72 0001:0002859D    73 0001:000285A7
    75 0001:000285B7    77 0001:000285BD    78 0001:000285D5    79 0001:000285E5
    80 0001:000285EB    84 0001:000285ED    85 0001:000285F3    86 0001:00028602
    87 0001:0002861A    90 0001:00028625    91 0001:00028629    93 0001:00028642
    96 0001:0002864E    98 0001:00028654    99 0001:0002865A   101 0001:00028669
   104 0001:0002867D   106 0001:00028681   107 0001:00028687   108 0001:000286BA
   112 0001:000286C4   113 0001:000286C7   114 0001:000286D0   115 0001:000286E1
   118 0001:000286E4   119 0001:000286E7   120 0001:000286F1   123 0001:000286F4
   124 0001:000286F8   126 0001:0002871A   127 0001:00028733   129 0001:00028784
   129 0001:0002878B

Line numbers for LOS_Radar(plugins\LOS_Radar.pas) segment .text

    37 0001:0002878C    42 0001:00028793    44 0001:000287AE    50 0001:000287C9
    55 0001:000287E4    85 0001:0002886C    86 0001:0002886E    87 0001:00028874
    89 0001:00028876    90 0001:00028878    91 0001:0002887A    92 0001:0002887D
    93 0001:00028883    96 0001:00028885    97 0001:00028888    98 0001:0002888A
    99 0001:00028890   100 0001:00028898   103 0001:0002889A   104 0001:0002889E
   105 0001:000288A0   106 0001:000288A3   107 0001:000288AD   111 0001:000288AF
   112 0001:000288B1   113 0001:000288B4   117 0001:000288B6   118 0001:000288B8
   121 0001:000288BB   125 0001:000288BD   126 0001:000288C2   127 0001:000288C7
   135 0001:000288C8   136 0001:000288CB   137 0001:000288CE   138 0001:000288D0
   142 0001:000288D2   143 0001:000288D7   150 0001:000288DC   151 0001:000288DE
   154 0001:000288E4   155 0001:000288EA   156 0001:000288F0   159 0001:000288F6
   160 0001:000288F8   161 0001:000288FD   164 0001:00028902   165 0001:00028908
   166 0001:0002890D   167 0001:0002890F   168 0001:00028911   172 0001:00028917
   173 0001:0002891C   189 0001:00028920   190 0001:00028926   191 0001:0002892B
   192 0001:00028931   196 0001:00028933   198 0001:00028934   201 0001:00028939
   202 0001:0002893C   204 0001:00028942   205 0001:0002894A   208 0001:0002894C
   209 0001:00028952   211 0001:00028958   212 0001:00028959   213 0001:0002895F
   214 0001:00028964   216 0001:00028969   217 0001:0002896F   218 0001:00028975
   219 0001:00028977   220 0001:0002897D   221 0001:00028982   222 0001:00028988
   223 0001:0002898A   224 0001:0002898C   225 0001:0002898F   226 0001:00028991
   227 0001:00028993   228 0001:00028997   229 0001:0002899B   230 0001:0002899E
   234 0001:000289A5   235 0001:000289A8   236 0001:000289AB   237 0001:000289AD
   239 0001:000289AF   240 0001:000289B4   243 0001:000289B9   244 0001:000289BE
   256 0001:000289C3   257 0001:000289C9   258 0001:000289CF   259 0001:000289D5
   261 0001:000289D7   262 0001:000289D8   263 0001:000289D9   264 0001:000289DA
   265 0001:000289DB   266 0001:000289DE   267 0001:000289DF   269 0001:00028A10
   269 0001:00028A17

Line numbers for LOS_MiniMapUnits(plugins\LOS_MiniMapUnits.pas) segment .text

    19 0001:00028A18    20 0001:00028A1F    25 0001:00028A3A    44 0001:00028A7C
    45 0001:00028A7E    46 0001:00028A84    47 0001:00028A8A    48 0001:00028A92
    50 0001:00028A94    51 0001:00028A99    53 0001:00028A9E    54 0001:00028AA3
    55 0001:00028AA8    57 0001:00028ADC    57 0001:00028AE3

Line numbers for LOS_PlayerSeeUnit(plugins\LOS_PlayerSeeUnit.pas) segment .text

    34 0001:00028AE4    40 0001:00028AEB    43 0001:00028B01    84 0001:00028B1C
    98 0001:00028B8C   100 0001:00028B8D   102 0001:00028B8F   103 0001:00028B95
   104 0001:00028B9B   108 0001:00028BA1   109 0001:00028BA7   110 0001:00028BAD
   124 0001:00028BB3   125 0001:00028BB5   126 0001:00028BBB   127 0001:00028BC1
   128 0001:00028BC9   131 0001:00028BCB   132 0001:00028BD0   135 0001:00028BD5
   136 0001:00028BDA   137 0001:00028BDF   332 0001:00028BE0   333 0001:00028BE1
   334 0001:00028BE2   335 0001:00028BE3   336 0001:00028BE4   337 0001:00028BE7
   338 0001:00028BEA   341 0001:00028C1C   341 0001:00028C23

Line numbers for LOS_GUIText(plugins\LOS_GUIText.pas) segment .text

    21 0001:00028C24    26 0001:00028C2B    29 0001:00028C46    35 0001:00028C61
    40 0001:00028C7C    55 0001:00028CF0    57 0001:00028CF7    58 0001:00028CFD
    59 0001:00028CFF    71 0001:00028D01    72 0001:00028D03    73 0001:00028D09
    74 0001:00028D0F    75 0001:00028D17    78 0001:00028D19    79 0001:00028D1E
    81 0001:00028D23    82 0001:00028D28    83 0001:00028D2D    98 0001:00028D30
    99 0001:00028D34   113 0001:00028D3A   114 0001:00028D3C   115 0001:00028D42
   116 0001:00028D48   117 0001:00028D50   120 0001:00028D52   121 0001:00028D57
   124 0001:00028D5C   125 0001:00028D61   126 0001:00028D66   141 0001:00028D68
   154 0001:00028D6E   155 0001:00028D70   156 0001:00028D76   157 0001:00028D7C
   158 0001:00028D84   161 0001:00028D86   162 0001:00028D8B   165 0001:00028D90
   166 0001:00028D95   167 0001:00028D9A   170 0001:00028DCC   170 0001:00028DD3

Line numbers for LOS_UpdateTables(plugins\LOS_UpdateTables.pas) segment .text

    49 0001:00028DD4    54 0001:00028DDB    56 0001:00028DF6    61 0001:00028E11
    68 0001:00028E2C    73 0001:00028E47    78 0001:00028E62    84 0001:00028E7D
    88 0001:00028F10    89 0001:00028F16    90 0001:00028F1B    91 0001:00028F1D
    92 0001:00028F23    93 0001:00028F28   108 0001:00028F2C   109 0001:00028F31
   111 0001:00028F37   114 0001:00028F39   117 0001:00028F3A   118 0001:00028F3D
   120 0001:00028F43   121 0001:00028F4B   124 0001:00028F4D   125 0001:00028F53
   130 0001:00028F55   131 0001:00028F57   132 0001:00028F58   135 0001:00028F5E
   136 0001:00028F63   137 0001:00028F65   138 0001:00028F6B   139 0001:00028F71
   142 0001:00028F73   143 0001:00028F76   146 0001:00028F78   148 0001:00028F7E
   152 0001:00028F80   153 0001:00028F84   156 0001:00028F86   157 0001:00028F8C
   158 0001:00028F92   160 0001:00028F94   161 0001:00028F99   163 0001:00028F9F
   166 0001:00028FA1   167 0001:00028FA3   170 0001:00028FA9   171 0001:00028FAF
   173 0001:00028FB1   174 0001:00028FB7   176 0001:00028FB9   177 0001:00028FBB
   178 0001:00028FBD   179 0001:00028FC6   183 0001:00028FCD   184 0001:00028FD2
   187 0001:00028FD7   188 0001:00028FDD   190 0001:00028FDF   191 0001:00028FE4
   192 0001:00028FEA   194 0001:00028FEF   197 0001:00028FF1   198 0001:00028FF2
   199 0001:00028FF3   200 0001:00028FF4   201 0001:00028FF5   202 0001:00028FF8
   203 0001:00028FFB   209 0001:00028FFC   211 0001:00029002   212 0001:00029007
   213 0001:00029009   215 0001:0002900F   216 0001:00029014   231 0001:00029018
   232 0001:0002901D   234 0001:00029023   237 0001:00029025   240 0001:00029026
   241 0001:00029029   243 0001:0002902F   244 0001:00029037   247 0001:00029039
   248 0001:0002903F   251 0001:00029041   252 0001:00029043   253 0001:00029044
   256 0001:0002904A   257 0001:0002904F   258 0001:00029051   259 0001:00029057
   260 0001:0002905D   263 0001:0002905F   264 0001:00029062   267 0001:00029064
   269 0001:0002906A   273 0001:0002906C   274 0001:00029070   277 0001:00029072
   278 0001:00029078   279 0001:0002907E   281 0001:00029080   282 0001:00029085
   284 0001:0002908B   287 0001:0002908D   288 0001:0002908F   291 0001:00029095
   292 0001:0002909B   294 0001:0002909D   295 0001:000290A3   297 0001:000290A5
   298 0001:000290A7   299 0001:000290A9   300 0001:000290B2   304 0001:000290B9
   305 0001:000290BE   308 0001:000290C3   309 0001:000290C9   311 0001:000290CB
   312 0001:000290D0   313 0001:000290D6   315 0001:000290DB   319 0001:000290DD
   322 0001:000290E3   323 0001:000290E4   324 0001:000290E5   325 0001:000290E6
   326 0001:000290E7   327 0001:000290EA   328 0001:000290ED   330 0001:00029120
   330 0001:00029127

Line numbers for LOS_AllyPlayer(plugins\LOS_AllyPlayer.pas) segment .text

    30 0001:00029128    35 0001:0002912F    37 0001:0002914A    43 0001:00029165
    50 0001:00029180    58 0001:000291F8    59 0001:000291FE    60 0001:00029201
    63 0001:00029203    64 0001:00029205    66 0001:0002920B    67 0001:0002920C
    69 0001:0002920D    70 0001:0002920F    71 0001:00029215    73 0001:00029217
    74 0001:00029218    76 0001:00029219    77 0001:0002921F    78 0001:00029225
    80 0001:00029227    81 0001:0002922C    84 0001:00029231    85 0001:00029236
    86 0001:0002923B    90 0001:0002923C    92 0001:00029246    94 0001:00029248
    95 0001:00029249    96 0001:0002924A    97 0001:0002924B    98 0001:0002924C
    99 0001:0002924D   100 0001:00029250   104 0001:00029254   106 0001:0002925E
   108 0001:00029260   109 0001:00029261   110 0001:00029262   111 0001:00029263
   112 0001:00029264   113 0001:00029265   114 0001:00029268   116 0001:0002929C
   116 0001:000292A3

Line numbers for LOS_extensions(plugins\LOS_extensions.pas) segment .text

    93 0001:000292A4    94 0001:000292A7    95 0001:000292BD    98 0001:000292C0
   100 0001:000292C3   103 0001:000292C8   106 0001:000292CC   107 0001:000292CF
   108 0001:000292D4   112 0001:000292D8   113 0001:000292DE   116 0001:000292E4
   117 0001:000292E6   118 0001:000292E8   120 0001:000292EE   123 0001:000292F8
   124 0001:000292FD   125 0001:00029302   141 0001:00029304   142 0001:00029308
   145 0001:00029311   150 0001:00029335   155 0001:00029354   156 0001:0002935C
   157 0001:00029364   158 0001:0002936C   159 0001:00029374   160 0001:0002937C
   163 0001:00029386   164 0001:0002938E   166 0001:000293EC   166 0001:000293F3

Line numbers for SpeedHack(plugins\SpeedHack.pas) segment .text

    62 0001:000293F4    63 0001:000293FD    64 0001:00029406    67 0001:00029408
    68 0001:0002940B    69 0001:00029410    73 0001:00029414   111 0001:00029418
   112 0001:0002941C   115 0001:00029436   120 0001:0002945E   126 0001:0002947D
   132 0001:0002949C   139 0001:000294BD   140 0001:000294C5   155 0001:00029534
   156 0001:00029536   157 0001:00029538   158 0001:0002953F   160 0001:00029541
   161 0001:00029548   162 0001:0002954F   164 0001:00029551   165 0001:00029553
   166 0001:00029554   167 0001:00029559   169 0001:0002955E   170 0001:00029563
   171 0001:00029568   186 0001:0002956C   187 0001:0002956E   188 0001:00029570
   190 0001:00029577   191 0001:0002957E   192 0001:00029581   194 0001:00029583
   195 0001:00029585   196 0001:00029586   197 0001:0002958B   199 0001:00029590
   200 0001:00029595   201 0001:0002959A   217 0001:0002959C   219 0001:0002959D
   220 0001:0002959F   222 0001:000295A5   223 0001:000295A7   225 0001:000295A9
   228 0001:000295AB   230 0001:000295B1   231 0001:000295B3   233 0001:000295B5
   236 0001:000295B7   237 0001:000295BC   238 0001:000295C1   240 0001:000295F4
   240 0001:000295FB

Line numbers for TA_NetworkingMessages(netmsgHandling\TA_NetworkingMessages.pas) segment .text

   332 0001:0002962C   332 0001:00029633

Line numbers for SynLZ(SynLz.pas) segment .text

  1161 0001:00029664  1161 0001:0002966B

Line numbers for SynCommons(SynCommons.pas) segment .text

  7221 0001:000298BC  7223 0001:000298CB  7225 0001:000298D1  7226 0001:000298D9
  7228 0001:000298E2  7229 0001:000298E6  7230 0001:000298EA  7231 0001:00029905
  7232 0001:00029909  7233 0001:0002991F  7234 0001:00029923  7235 0001:00029929
  7237 0001:00029938  7238 0001:0002993B  7239 0001:00029947  7240 0001:0002994A
  7241 0001:0002994E  7243 0001:0002995D  7244 0001:00029963  7245 0001:0002996B
  7246 0001:00029991  7247 0001:0002999C  7254 0001:000299A4  7256 0001:000299B7
  7258 0001:000299BD  7259 0001:000299C5  7261 0001:000299CE  7262 0001:000299D6
  7263 0001:000299DA  7264 0001:000299DE  7265 0001:000299E2  7266 0001:000299E8
  7268 0001:000299F7  7269 0001:00029A01  7270 0001:00029A04  7271 0001:00029A07
  7272 0001:00029A0A  7274 0001:00029A19  7275 0001:00029A1F  7276 0001:00029A2A
  7277 0001:00029A33  7279 0001:00029A6F  7280 0001:00029A7F  7282 0001:00029AB3
  7284 0001:00029ABB  7285 0001:00029AC4  7294 0001:00029ACC  7295 0001:00029ADC
  7296 0001:00029AE2  7297 0001:00029AEC  7298 0001:00029AFC  7299 0001:00029B13
  7300 0001:00029B1B  7302 0001:00029B2C  7334 0001:00029B34  7335 0001:00029B4F
  7336 0001:00029B73  7339 0001:00029B78  7340 0001:00029B81  7341 0001:00029B9F
  7345 0001:00029BA4  7346 0001:00029BB0  7347 0001:00029BB9  7348 0001:00029BCA
  7350 0001:00029BDC  7351 0001:00029BF4  7352 0001:00029C05  7354 0001:00029C10
  7350 0001:00029C13  7355 0001:00029C18  7356 0001:00029C24  7357 0001:00029C38
  7358 0001:00029C4A  7359 0001:00029C5A  7364 0001:00029C60  7366 0001:00029C6F
  7368 0001:00029C75  7369 0001:00029C7D  7371 0001:00029C86  7372 0001:00029C8A
  7373 0001:00029C8E  7374 0001:00029C97  7375 0001:00029CA1  7376 0001:00029CA5
  7377 0001:00029CAB  7379 0001:00029CBD  7380 0001:00029CC8  7381 0001:00029CCB
  7382 0001:00029CCF  7383 0001:00029CD2  7385 0001:00029CE4  7386 0001:00029CEA
  7387 0001:00029CF2  7389 0001:00029D23  7395 0001:00029D2C  7396 0001:00029D3F
  7397 0001:00029D48  7398 0001:00029D72  7399 0001:00029D80  7400 0001:00029DA2
  7402 0001:00029DAD  7478 0001:00029DB4  7479 0001:00029DC3  7480 0001:00029DD7
  7481 0001:00029DED  7482 0001:00029E05  7483 0001:00029E1D  7484 0001:00029E35
  7485 0001:00029E39  7486 0001:00029E3D  7479 0001:00029E40  7487 0001:00029E45
  7488 0001:00029E59  7489 0001:00029E6F  7490 0001:00029E73  7491 0001:00029E76
  7487 0001:00029E79  7492 0001:00029E7E  7493 0001:00029E87  7500 0001:00029E90
  7501 0001:00029E9F  7502 0001:00029EAB  7503 0001:00029EB0  7505 0001:00029EB5
  7507 0001:00029EC9  7508 0001:00029ED2  7509 0001:00029EDB  7511 0001:00029EE9
  7512 0001:00029EF1  7514 0001:00029EFA  7515 0001:00029EFE  7516 0001:00029F06
  7517 0001:00029F0A  7519 0001:00029F12  7521 0001:00029F1E  7522 0001:00029F2A
  7523 0001:00029F30  7524 0001:00029F38  7525 0001:00029F3B  7526 0001:00029F49
  7529 0001:00029F56  7530 0001:00029F66  7531 0001:00029F6F  7532 0001:00029F7C
  7533 0001:00029F8C  7534 0001:00029F99  7535 0001:00029F9D  7536 0001:00029FAF
  7538 0001:00029FBD  7539 0001:00029FCA  7540 0001:00029FD7  7541 0001:00029FDB
  7542 0001:00029FED  7547 0001:00029FF9  7548 0001:00029FFF  7549 0001:0002A008
  7552 0001:0002A010  7553 0001:0002A020  7554 0001:0002A026  7555 0001:0002A030
  7556 0001:0002A040  7558 0001:0002A059  7565 0001:0002A060  7566 0001:0002A07E
  7567 0001:0002A08B  7569 0001:0002A09B  7570 0001:0002A0B9  7571 0001:0002A0BE
  7570 0001:0002A0CE  7572 0001:0002A0D7  7573 0001:0002A0F3  7574 0001:0002A11A
  7575 0001:0002A130  7576 0001:0002A14E  7577 0001:0002A161  7578 0001:0002A168
  7579 0001:0002A178  7577 0001:0002A194  7581 0001:0002A19F  7583 0001:0002A20F
  7680 0001:0002A29C  7682 0001:0002A2AB  7684 0001:0002A2B1  7685 0001:0002A2B9
  7687 0001:0002A2C2  7688 0001:0002A2C6  7689 0001:0002A2CA  7690 0001:0002A2D3
  7691 0001:0002A2DD  7692 0001:0002A2E1  7694 0001:0002A2E7  7695 0001:0002A2FB
  7696 0001:0002A30F  7697 0001:0002A325  7698 0001:0002A33B  7699 0001:0002A351
  7700 0001:0002A355  7701 0001:0002A359  7694 0001:0002A35C  7702 0001:0002A361
  7703 0001:0002A375  7704 0001:0002A389  7705 0001:0002A38C  7706 0001:0002A390
  7702 0001:0002A393  7707 0001:0002A398  7708 0001:0002A3A1  7715 0001:0002A3A8
  7717 0001:0002A3B7  7718 0001:0002A3C0  7719 0001:0002A3C9  7721 0001:0002A3D7
  7722 0001:0002A3DF  7724 0001:0002A3E8  7725 0001:0002A3F0  7726 0001:0002A3F4
  7727 0001:0002A3F8  7729 0001:0002A400  7731 0001:0002A40C  7732 0001:0002A418
  7733 0001:0002A41E  7734 0001:0002A426  7735 0001:0002A429  7736 0001:0002A437
  7738 0001:0002A444  7739 0001:0002A450  7740 0001:0002A456  7742 0001:0002A471
  7743 0001:0002A485  7744 0001:0002A48D  7746 0001:0002A4A6  7747 0001:0002A4B7
  7748 0001:0002A4BA  7749 0001:0002A4CC  7752 0001:0002A4D8  7753 0001:0002A4E1
  8015 0001:0002A4E8  8016 0001:0002A4F7  8017 0001:0002A4FC  8019 0001:0002A506
  8020 0001:0002A50C  8022 0001:0002A518  8024 0001:0002A523  8026 0001:0002A529
  8027 0001:0002A535  8029 0001:0002A53D  8030 0001:0002A545  8032 0001:0002A54E
  8033 0001:0002A552  8034 0001:0002A56D  8035 0001:0002A571  8036 0001:0002A587
  8037 0001:0002A58B  8039 0001:0002A593  8040 0001:0002A597  8042 0001:0002A5A3
  8043 0001:0002A5AC  8044 0001:0002A5AF  8045 0001:0002A5B5  8046 0001:0002A5BF
  8047 0001:0002A5C3  8049 0001:0002A5CB  8051 0001:0002A5D0  8053 0001:0002A5DC
  8054 0001:0002A5E2  8055 0001:0002A5F8  8056 0001:0002A5FB  8057 0001:0002A605
  8058 0001:0002A609  8059 0001:0002A611  8061 0001:0002A613  8062 0001:0002A624
  8063 0001:0002A627  8065 0001:0002A62F  8066 0001:0002A645  8067 0001:0002A648
  8068 0001:0002A652  8069 0001:0002A656  8073 0001:0002A662  8074 0001:0002A66A
  8075 0001:0002A676  8159 0001:0002A67C  8160 0001:0002A68B  8161 0001:0002A691
  8163 0001:0002A6A5  8164 0001:0002A6B0  8165 0001:0002A6B9  8167 0001:0002A6C1
  8168 0001:0002A6C9  8170 0001:0002A6D2  8171 0001:0002A6D6  8172 0001:0002A6DF
  8173 0001:0002A6E9  8174 0001:0002A6ED  8176 0001:0002A6F5  8177 0001:0002A6FB
  8179 0001:0002A713  8180 0001:0002A71C  8181 0001:0002A720  8182 0001:0002A726
  8183 0001:0002A72E  8184 0001:0002A731  8186 0001:0002A747  8187 0001:0002A750
  8188 0001:0002A75D  8189 0001:0002A76D  8190 0001:0002A77A  8191 0001:0002A77E
  8193 0001:0002A790  8194 0001:0002A79D  8195 0001:0002A7AA  8196 0001:0002A7AE
  8199 0001:0002A7C2  8201 0001:0002A7C8  8202 0001:0002A7D4  8835 0001:0002A7DC
  8836 0001:0002A7E1  9290 0001:0002A7E4  9291 0001:0002A7E7  9292 0001:0002A7E9
  9293 0001:0002A7EB  9294 0001:0002A7EE  9295 0001:0002A7F2  9296 0001:0002A7F7
  9297 0001:0002A7FC  9298 0001:0002A7FF  9299 0001:0002A803  9300 0001:0002A805
  9301 0001:0002A808  9302 0001:0002A80B  9303 0001:0002A80D  9304 0001:0002A80F
  9305 0001:0002A811  9306 0001:0002A813  9307 0001:0002A819  9309 0001:0002A81B
  9310 0001:0002A81F  9311 0001:0002A822  9312 0001:0002A824  9314 0001:0002A825
  9315 0001:0002A82A  9316 0001:0002A82D  9317 0001:0002A82F  9319 0001:0002A830
  9320 0001:0002A832  9321 0001:0002A834  9322 0001:0002A838  9323 0001:0002A83B
  9324 0001:0002A83D  9325 0001:0002A844  9326 0001:0002A846  9327 0001:0002A847
  9329 0001:0002A848  9330 0001:0002A84C  9331 0001:0002A850  9332 0001:0002A854
  9333 0001:0002A858  9334 0001:0002A85C  9335 0001:0002A860  9336 0001:0002A864
  9337 0001:0002A868  9338 0001:0002A86C  9339 0001:0002A870  9340 0001:0002A874
  9341 0001:0002A878  9342 0001:0002A87C  9343 0001:0002A880  9344 0001:0002A883
  9346 0001:0002A884  9353 0001:0002A888  9354 0001:0002A88D  9360 0001:0002A890
  9361 0001:0002A893  9362 0001:0002A895  9363 0001:0002A898  9364 0001:0002A89A
  9365 0001:0002A8A1  9366 0001:0002A8A4  9367 0001:0002A8A6  9368 0001:0002A8A9
  9369 0001:0002A8AB  9370 0001:0002A8AE  9371 0001:0002A8B1  9372 0001:0002A8B3
  9373 0001:0002A8B6  9374 0001:0002A8B9  9375 0001:0002A8BC  9376 0001:0002A8BE
  9377 0001:0002A8C1  9378 0001:0002A8C2  9379 0001:0002A8C4  9380 0001:0002A8E8
  9381 0001:0002A8E9  9382 0001:0002A8EB  9383 0001:0002A8EF  9384 0001:0002A8F3
  9385 0001:0002A8F5  9386 0001:0002A8F6  9387 0001:0002A8F8  9388 0001:0002A8FB
  9389 0001:0002A8FF  9390 0001:0002A900  9391 0001:0002A903  9392 0001:0002A906
  9393 0001:0002A909  9394 0001:0002A90B  9395 0001:0002A90D  9396 0001:0002A90E
  9397 0001:0002A910  9398 0001:0002A911  9399 0001:0002A913  9400 0001:0002A915
  9401 0001:0002A917  9402 0001:0002A919  9403 0001:0002A91B  9404 0001:0002A91E
  9405 0001:0002A920  9406 0001:0002A923  9407 0001:0002A924  9408 0001:0002A927
  9409 0001:0002A929  9410 0001:0002A92B  9411 0001:0002A92E  9412 0001:0002A930
  9413 0001:0002A933  9414 0001:0002A936  9415 0001:0002A939  9416 0001:0002A93B
  9417 0001:0002A93C  9418 0001:0002A93E  9419 0001:0002A941  9420 0001:0002A942
  9421 0001:0002A945  9422 0001:0002A947  9423 0001:0002A948  9424 0001:0002A94B
  9425 0001:0002A94E  9426 0001:0002A94F  9427 0001:0002A952  9428 0001:0002A955
  9429 0001:0002A958  9430 0001:0002A95B  9431 0001:0002A95C  9432 0001:0002A95E
  9433 0001:0002A960  9434 0001:0002A961  9435 0001:0002A963  9436 0001:0002A966
  9437 0001:0002A968  9438 0001:0002A96B  9439 0001:0002A96C  9440 0001:0002A96E
  9441 0001:0002A972  9442 0001:0002A974  9443 0001:0002A978  9444 0001:0002A979
  9445 0001:0002A97B  9446 0001:0002A97E  9447 0001:0002A980  9448 0001:0002A983
  9449 0001:0002A984  9450 0001:0002A986  9451 0001:0002A989  9452 0001:0002A98B
  9453 0001:0002A98E  9464 0001:0002A990  9465 0001:0002A993  9466 0001:0002A995
  9467 0001:0002A997  9468 0001:0002A99A  9469 0001:0002A99E  9470 0001:0002A9A2
  9471 0001:0002A9A6  9472 0001:0002A9A9  9473 0001:0002A9AB  9474 0001:0002A9AE
  9475 0001:0002A9B2  9476 0001:0002A9B4  9477 0001:0002A9B7  9478 0001:0002A9BA
  9479 0001:0002A9BC  9480 0001:0002A9BE  9481 0001:0002A9C0  9482 0001:0002A9C2
  9483 0001:0002A9C5  9484 0001:0002A9C9  9485 0001:0002A9CC  9486 0001:0002A9CE
  9487 0001:0002A9D0  9488 0001:0002A9D2  9489 0001:0002A9D3  9490 0001:0002A9D4
  9491 0001:0002A9D6  9492 0001:0002A9D8  9493 0001:0002A9DC  9494 0001:0002A9DF
  9495 0001:0002A9E1  9496 0001:0002A9E8  9497 0001:0002A9EA  9498 0001:0002A9EB
  9499 0001:0002A9EC  9500 0001:0002A9F0  9501 0001:0002A9F4  9502 0001:0002A9F8
  9503 0001:0002A9FC  9504 0001:0002AA00  9505 0001:0002AA04  9506 0001:0002AA08
  9507 0001:0002AA0C  9508 0001:0002AA10  9509 0001:0002AA14  9510 0001:0002AA18
  9511 0001:0002AA1C  9512 0001:0002AA20  9513 0001:0002AA24  9514 0001:0002AA27
  9515 0001:0002AA28  9516 0001:0002AA29 10353 0001:0002AA2C 10354 0001:0002AA2E
 10355 0001:0002AA30 10356 0001:0002AA35 10357 0001:0002AA3B 10358 0001:0002AA41
 10359 0001:0002AA47 10360 0001:0002AA48 10362 0001:0002AA4B 10363 0001:0002AA4E
 10364 0001:0002AA50 10365 0001:0002AA56 10366 0001:0002AA58 10367 0001:0002AA5A
 10368 0001:0002AA60 10370 0001:0002AA62 10371 0001:0002AA63 10372 0001:0002AA66
 10373 0001:0002AA69 10374 0001:0002AA6B 10375 0001:0002AA6D 10376 0001:0002AA6E
 10377 0001:0002AA71 10378 0001:0002AA77 10379 0001:0002AA7D 10380 0001:0002AA82
 10533 0001:0002AA84 10538 0001:0002AA8A 10541 0001:0002AA99 10542 0001:0002AA9E
 10541 0001:0002AAAD 10543 0001:0002AAB6 10544 0001:0002AABD 10543 0001:0002AACA
 10547 0001:0002AAD0 10548 0001:0002AAE4 10549 0001:0002AAF8 10550 0001:0002AAFD
 10551 0001:0002AB0A 10552 0001:0002AB15 10553 0001:0002AB19 10554 0001:0002AB25
 10549 0001:0002AB28 10557 0001:0002AB31 10558 0001:0002AB42 10559 0001:0002AB46
 10560 0001:0002AB4D 10561 0001:0002AB59 10562 0001:0002AB5C 10559 0001:0002AB5F
 10563 0001:0002AB65 10564 0001:0002AB6C 10565 0001:0002AB78 10566 0001:0002AB84
 10567 0001:0002AB87 10563 0001:0002AB8A 10569 0001:0002AB90 10570 0001:0002ABAF
 10571 0001:0002ABC5 10590 0001:0002ABCC 10601 0001:0002ABD4 10602 0001:0002ABDA
 10603 0001:0002ABE7 10604 0001:0002ABF8 10605 0001:0002ABFD 10607 0001:0002AC25
 10608 0001:0002AC36 10609 0001:0002AC3F 10610 0001:0002AC52 10611 0001:0002AC57
 10612 0001:0002AC5D 10613 0001:0002AC67 10614 0001:0002AC71 10615 0001:0002AC7E
 10617 0001:0002AC93 10618 0001:0002AC9D 10619 0001:0002ACA5 10620 0001:0002ACAF
 10621 0001:0002ACB9 10623 0001:0002ACBD 10624 0001:0002ACCF 10625 0001:0002ACE3
 10626 0001:0002ACEC 10627 0001:0002ACF2 10629 0001:0002AD05 10630 0001:0002AD0B
 10631 0001:0002AD16 10632 0001:0002AD1C 10634 0001:0002AD22 10635 0001:0002AD33
 10636 0001:0002AD3C 10637 0001:0002AD42 10638 0001:0002AD48 10639 0001:0002AD51
 10640 0001:0002AD57 10641 0001:0002AD5D 10642 0001:0002AD66 10643 0001:0002AD6C
 10646 0001:0002AD70 10647 0001:0002AD7A 10648 0001:0002AD7D 10649 0001:0002AD85
 15666 0001:0002ADE4 15667 0001:0002ADE6 15668 0001:0002ADEA 15669 0001:0002ADEE
 15670 0001:0002ADF0 15671 0001:0002ADF4 15672 0001:0002ADF8 15673 0001:0002ADFA
 15674 0001:0002ADFD 15675 0001:0002ADFE 15676 0001:0002AE02 15678 0001:0002AE04
 16496 0001:0002AE08 16497 0001:0002AE17 16499 0001:0002AE32 16500 0001:0002AE38
 16501 0001:0002AE4B 16500 0001:0002AE60 16502 0001:0002AE65 16503 0001:0002AE78
 16502 0001:0002AE8D 16504 0001:0002AE92 16505 0001:0002AEA7 16507 0001:0002AEBA
 16519 0001:0002AEC0 16521 0001:0002AECF 16522 0001:0002AED3 16523 0001:0002AEDF
 16525 0001:0002AEF3 16527 0001:0002AF0F 17773 0001:0002AF94 17780 0001:0002AF97
 17781 0001:0002AF9A 17783 0001:0002AF9F 17788 0001:0002AFA4 17789 0001:0002AFB0
 17790 0001:0002AFBB 17792 0001:0002AFC3 17793 0001:0002AFCF 17794 0001:0002AFE5
 17795 0001:0002AFEE 17796 0001:0002B001 17797 0001:0002B017 17810 0001:0002B01C
 17811 0001:0002B02B 17813 0001:0002B037 17814 0001:0002B042 17815 0001:0002B04E
 17816 0001:0002B056 17817 0001:0002B06C 17818 0001:0002B08C 17819 0001:0002B095
 17822 0001:0002B0A7 17823 0001:0002B0BD 17824 0001:0002B0C6 17825 0001:0002B0D9
 17826 0001:0002B0EC 17829 0001:0002B0F0 17830 0001:0002B0F7 17831 0001:0002B101
 17870 0001:0002B104 17871 0001:0002B10D 17872 0001:0002B115 17873 0001:0002B11E
 17874 0001:0002B128 17875 0001:0002B139 17876 0001:0002B140 17877 0001:0002B14D
 17878 0001:0002B155 18832 0001:0002B15C 18833 0001:0002B16B 18834 0001:0002B174
 18835 0001:0002B17C 18836 0001:0002B184 18837 0001:0002B1AB 18839 0001:0002B1B5
 18840 0001:0002B1BB 18841 0001:0002B1C7 18842 0001:0002B1D0 18844 0001:0002B1DA
 18852 0001:0002B1E8 18853 0001:0002B1EF 18854 0001:0002B1F7 18855 0001:0002B1FE
 18856 0001:0002B207 18857 0001:0002B210 18858 0001:0002B21A 18878 0001:0002B244
 18879 0001:0002B24D 18880 0001:0002B25A 18890 0001:0002B260 18891 0001:0002B265
 18902 0001:0002B268 18903 0001:0002B26D 18908 0001:0002B270 18909 0001:0002B276
 18911 0001:0002B2B0 18916 0001:0002B2D0 18918 0001:0002B2DC 18919 0001:0002B2E2
 18920 0001:0002B2F2 18923 0001:0002B2F7 18924 0001:0002B301 18925 0001:0002B307
 18926 0001:0002B30B 18928 0001:0002B316 18930 0001:0002B31B 18931 0001:0002B32A
 18932 0001:0002B333 18934 0001:0002B33A 18935 0001:0002B348 18936 0001:0002B359
 18937 0001:0002B370 18939 0001:0002B37D 18940 0001:0002B382 18941 0001:0002B38D
 18942 0001:0002B393 18943 0001:0002B39B 18944 0001:0002B3A1 18945 0001:0002B3AA
 18946 0001:0002B3B3 18947 0001:0002B3C7 18949 0001:0002B3E2 18952 0001:0002B3FC
 18953 0001:0002B402 18957 0001:0002B40B 18960 0001:0002B414 18962 0001:0002B418
 18963 0001:0002B424 18964 0001:0002B43C 18965 0001:0002B446 18969 0001:0002B44C
 18970 0001:0002B458 18971 0001:0002B45F 18973 0001:0002B46B 18974 0001:0002B478
 18975 0001:0002B486 18977 0001:0002B490 18978 0001:0002B49B 18980 0001:0002B4A5
 18981 0001:0002B4B1 18983 0001:0002B4BA 18984 0001:0002B4C9 18986 0001:0002B4CF
 18988 0001:0002B4DC 18989 0001:0002B4E5 18990 0001:0002B4F2 18991 0001:0002B4FF
 18994 0001:0002B507 18999 0001:0002B517 19000 0001:0002B522 19010 0001:0002B528
 19011 0001:0002B534 19013 0001:0002B53C 19014 0001:0002B545 19015 0001:0002B552
 19016 0001:0002B55D 19017 0001:0002B568 26626 0001:0002B56C 26627 0001:0002B575
 26628 0001:0002B57B 26629 0001:0002B583 26630 0001:0002B58B 26631 0001:0002B58E
 26633 0001:0002B59E 26634 0001:0002B5A6 31020 0001:0002B5C4 31021 0001:0002B5C5
 31022 0001:0002B5C6 31023 0001:0002B5C8 31024 0001:0002B5CD 31025 0001:0002B5CE
 31026 0001:0002B5CF 31027 0001:0002B5D0 31028 0001:0002B5D1 31029 0001:0002B5D3
 31030 0001:0002B5D5 31031 0001:0002B5D6 31032 0001:0002B5DB 31033 0001:0002B5DD
 31034 0001:0002B5E3 31035 0001:0002B5E5 31037 0001:0002B5EC 31039 0001:0002B5ED
 31088 0001:0002B5F0 31090 0001:0002B614 31092 0001:0002B61E 31094 0001:0002B6A7
 31044 0001:0002B6AC 31045 0001:0002B6C6 31049 0001:0002B6D7 31065 0001:0002B6DC
 31066 0001:0002B6E5 31069 0001:0002B6FB 31070 0001:0002B711 31076 0001:0002B727
 31083 0001:0002B72C 31086 0001:0002B746

Line numbers for COB_extensions(plugins\COB_extensions.pas) segment .text

   188 0001:0002B748   189 0001:0002B76A   190 0001:0002B784   192 0001:0002B79E
   193 0001:0002B7B8   195 0001:0002B7D2   196 0001:0002B7EC   198 0001:0002B7FB
   199 0001:0002B815   200 0001:0002B824   202 0001:0002B829   203 0001:0002B836
   204 0001:0002B843   200 0001:0002B846   205 0001:0002B872   209 0001:0002B878
   212 0001:0002B87C   213 0001:0002B880   216 0001:0002B89A   221 0001:0002B8C6
   227 0001:0002B8E5   233 0001:0002B904   240 0001:0002B925   241 0001:0002B92D
   253 0001:0002B9B4   254 0001:0002B9DD   255 0001:0002B9E2   258 0001:0002B9F9
   259 0001:0002BA03   261 0001:0002BA15   263 0001:0002BA19   266 0001:0002BC91
   267 0001:0002BC97   269 0001:0002BCB8   273 0001:0002BCCD   277 0001:0002BCEF
   281 0001:0002BCFB   285 0001:0002BD0D   289 0001:0002BD25   293 0001:0002BD4F
   294 0001:0002BD55   296 0001:0002BD76   300 0001:0002BD8B   304 0001:0002BDA8
   305 0001:0002BDAE   307 0001:0002BDDE   311 0001:0002BE02   312 0001:0002BE08
   314 0001:0002BE2A   318 0001:0002BE3F   322 0001:0002BE89   326 0001:0002BEBD
   327 0001:0002BEC3   329 0001:0002BEF0   333 0001:0002BF11   337 0001:0002BF2D
   341 0001:0002BF5A   345 0001:0002BF87   349 0001:0002BFA3   350 0001:0002BFA9
   352 0001:0002BFD1   356 0001:0002BFEF   357 0001:0002BFF5   359 0001:0002C025
   363 0001:0002C049   364 0001:0002C04F   366 0001:0002C07F   370 0001:0002C0A3
   371 0001:0002C0A9   373 0001:0002C0CD   377 0001:0002C0E5   378 0001:0002C0EB
   380 0001:0002C10F   384 0001:0002C127   388 0001:0002C13F   392 0001:0002C157
   393 0001:0002C15D   395 0001:0002C181   399 0001:0002C199   403 0001:0002C1B1
   404 0001:0002C1B7   406 0001:0002C1DB   410 0001:0002C1F3   411 0001:0002C1FD
   415 0001:0002C232   416 0001:0002C238   418 0001:0002C259   422 0001:0002C26E
   423 0001:0002C278   424 0001:0002C27E   426 0001:0002C2AC   430 0001:0002C2CE
   431 0001:0002C2D4   433 0001:0002C2F0   437 0001:0002C319   438 0001:0002C31F
   440 0001:0002C33A   444 0001:0002C355   446 0001:0002C35F   447 0001:0002C391
   448 0001:0002C3B6   449 0001:0002C3E6   452 0001:0002C41B   453 0001:0002C440
   454 0001:0002C466   459 0001:0002C491   461 0001:0002C49B   462 0001:0002C4B1
   463 0001:0002C4F0   464 0001:0002C52F   470 0001:0002C563   474 0001:0002C591
   478 0001:0002C5D0   479 0001:0002C5D6   481 0001:0002C5FA   485 0001:0002C612
   489 0001:0002C627   493 0001:0002C639   494 0001:0002C655   495 0001:0002C67A
   497 0001:0002C6A3   501 0001:0002C6AD   502 0001:0002C6B7   506 0001:0002C6F7
   507 0001:0002C6FD   509 0001:0002C712   513 0001:0002C721   517 0001:0002C739
   521 0001:0002C767   523 0001:0002C771   525 0001:0002C799   526 0001:0002C7A9
   527 0001:0002C7BC   528 0001:0002C80B   529 0001:0002C845   530 0001:0002C84F
   536 0001:0002C863   537 0001:0002C86D   541 0001:0002C89B   542 0001:0002C8A5
   546 0001:0002C8E9   550 0001:0002C935   554 0001:0002C981   558 0001:0002C9CD
   560 0001:0002C9DB   561 0001:0002C9FD   564 0001:0002CA3E   565 0001:0002CA60
   571 0001:0002CAA1   572 0001:0002CABE   576 0001:0002CACA   580 0001:0002CAEF
   584 0001:0002CB11   588 0001:0002CB5C   589 0001:0002CB62   591 0001:0002CB92
   595 0001:0002CBB6   596 0001:0002CBBC   598 0001:0002CBE9   602 0001:0002CC0A
   606 0001:0002CC1F   610 0001:0002CC43   614 0001:0002CC68   615 0001:0002CC72
   619 0001:0002CCAD   620 0001:0002CCB7   624 0001:0002CCF5   626 0001:0002CCFF
   627 0001:0002CD27   632 0001:0002CD72   634 0001:0002CD7C   635 0001:0002CDA4
   640 0001:0002CDFA   641 0001:0002CE04   645 0001:0002CE64   647 0001:0002CE6E
   648 0001:0002CE96   653 0001:0002CEEB   654 0001:0002CEF5   658 0001:0002CF02
   662 0001:0002CF4B   663 0001:0002CF52   665 0001:0002CF7B   669 0001:0002CFA4
   673 0001:0002CFB2   677 0001:0002CFC5   681 0001:0002CFE1   682 0001:0002D018
   686 0001:0002D060   690 0001:0002D0BC   694 0001:0002D0EA   698 0001:0002D105
   702 0001:0002D12D   703 0001:0002D137   704 0001:0002D151   708 0001:0002D194
   709 0001:0002D1BC   713 0001:0002D1D1   717 0001:0002D250   718 0001:0002D256
   720 0001:0002D27C   724 0001:0002D296   725 0001:0002D2B4   726 0001:0002D2C2
   730 0001:0002D2E4   732 0001:0002D2FB   734 0001:0002D31C   736 0001:0002D33D
   737 0001:0002D357   738 0001:0002D35D   740 0001:0002D375   741 0001:0002D399
   746 0001:0002D3B8   748 0001:0002D3BE   749 0001:0002D3C4   751 0001:0002D3DD
   754 0001:0002D3F6   755 0001:0002D3FC   757 0001:0002D40B   762 0001:0002D41A
   764 0001:0002D424   765 0001:0002D448   770 0001:0002D46E   774 0001:0002D4E7
   779 0001:0002D52C   780 0001:0002D530   782 0001:0002D547   784 0001:0002D55E
   787 0001:0002D56B   791 0001:0002D57F   793 0001:0002D585   794 0001:0002D592
   797 0001:0002D5B7   798 0001:0002D5C4   803 0001:0002D5CF   804 0001:0002D5D9
   806 0001:0002D5EB   808 0001:0002D5EF   810 0001:0002D5F9   813 0001:0002D68B
   817 0001:0002D6A0   819 0001:0002D6C2   820 0001:0002D6CC   821 0001:0002D6DF
   822 0001:0002D6ED   823 0001:0002D6FB   828 0001:0002D709   829 0001:0002D71C
   830 0001:0002D72A   831 0001:0002D738   836 0001:0002D746   840 0001:0002D768
   844 0001:0002D78A   848 0001:0002D7AC   852 0001:0002D7CE   856 0001:0002D7F0
   860 0001:0002D812   864 0001:0002D833   865 0001:0002D84F   866 0001:0002D85D
   870 0001:0002D87F   874 0001:0002D8A1   875 0001:0002D8C4   876 0001:0002D8CE
   880 0001:0002D8EB   881 0001:0002D90B   882 0001:0002D915   888 0001:0002D932
   902 0001:0002D938   903 0001:0002D93E   904 0001:0002D942   905 0001:0002D945
   907 0001:0002D946   908 0001:0002D949   909 0001:0002D94C   911 0001:0002D94F
   912 0001:0002D952   913 0001:0002D954   915 0001:0002D95C   919 0001:0002D95D
   920 0001:0002D95E   921 0001:0002D961   923 0001:0002D963   924 0001:0002D969
   925 0001:0002D96D   926 0001:0002D973   927 0001:0002D979   929 0001:0002D97B
   930 0001:0002D97D   932 0001:0002D97F   933 0001:0002D985   934 0001:0002D987
   936 0001:0002D989   937 0001:0002D98E   940 0001:0002D993   941 0001:0002D997
   942 0001:0002D998   943 0001:0002D99C   944 0001:0002D99D   945 0001:0002D9A1
   946 0001:0002D9A2   947 0001:0002D9A6   948 0001:0002D9A7   949 0001:0002D9A8
   951 0001:0002D9A9   954 0001:0002D9AE   955 0001:0002D9AF   956 0001:0002D9B2
   957 0001:0002D9B5   967 0001:0002D9B8   968 0001:0002D9BE   969 0001:0002D9C2
   971 0001:0002D9C3   972 0001:0002D9C6   973 0001:0002D9C9   974 0001:0002D9CC
   975 0001:0002D9CF   977 0001:0002D9D1   978 0001:0002D9D3   979 0001:0002D9DA
   981 0001:0002D9E2   984 0001:0002D9E3   985 0001:0002D9E4   986 0001:0002D9E7
   988 0001:0002D9E9   989 0001:0002D9EF   990 0001:0002D9F3   991 0001:0002D9F9
   992 0001:0002D9FF   994 0001:0002DA01   995 0001:0002DA03   997 0001:0002DA05
   998 0001:0002DA0B   999 0001:0002DA0D  1001 0001:0002DA0F  1002 0001:0002DA14
  1005 0001:0002DA19  1006 0001:0002DA1D  1007 0001:0002DA1E  1008 0001:0002DA1F
  1009 0001:0002DA20  1012 0001:0002DA25  1013 0001:0002DA26  1014 0001:0002DA29
  1017 0001:0002DA2C  1018 0001:0002DA2F  1019 0001:0002DA3D  1020 0001:0002DA47
  1021 0001:0002DA55  1022 0001:0002DA5F  1023 0001:0002DA6D  1024 0001:0002DA77
  1025 0001:0002DA85  1027 0001:0002DA8F  1028 0001:0002DA9E  1029 0001:0002DAAD
  1030 0001:0002DABC  1031 0001:0002DACB  1032 0001:0002DADA  1036 0001:0002DADC
  1037 0001:0002DADD  1038 0001:0002DAE2  1039 0001:0002DAE3  1040 0001:0002DAE9
  1041 0001:0002DAEE  1042 0001:0002DAF3  1044 0001:0002DB64  1044 0001:0002DB6B

Line numbers for DropUnitsWeaponsList(plugins\DropUnitsWeaponsList.pas) segment .text

    31 0001:0002DBD8    32 0001:0002DC09    33 0001:0002DC17    34 0001:0002DC61
    37 0001:0002DC68    38 0001:0002DC96    39 0001:0002DCFA    42 0001:0002DD20
    43 0001:0002DD47    44 0001:0002DD87    47 0001:0002DD98    48 0001:0002DD9F
    49 0001:0002DDAC    52 0001:0002DDB0    53 0001:0002DDB7    54 0001:0002DDC8
    68 0001:0002DDCC    69 0001:0002DDEA    70 0001:0002DDF5    72 0001:0002DE0D
    74 0001:0002DE3B    75 0001:0002DE4D    76 0001:0002DE5B    77 0001:0002DE8D
    79 0001:0002DEC6    80 0001:0002DED3    81 0001:0002DEEB    83 0001:0002DF0B
    84 0001:0002DF28    86 0001:0002DF32    88 0001:0002DF58    89 0001:0002DF9E
    92 0001:0002DFDC    81 0001:0002DFDF    94 0001:0002DFE8    95 0001:0002DFF0
    96 0001:0002DFFD    97 0001:0002E008    99 0001:0002E028   100 0001:0002E041
   102 0001:0002E04B   104 0001:0002E057   105 0001:0002E075   106 0001:0002E083
   108 0001:0002E0C6   111 0001:0002E105    97 0001:0002E108   113 0001:0002E111
   115 0001:0002E126   117 0001:0002E160   119 0001:0002E254   119 0001:0002E25B

Line numbers for KeyboardHook(plugins\KeyboardHook.pas) segment .text

    42 0001:0002E25C    43 0001:0002E25F    44 0001:0002E266    45 0001:0002E26E
    46 0001:0002E288    49 0001:0002E28C    50 0001:0002E28F    51 0001:0002E298
    52 0001:0002E2A3    55 0001:0002E2A8    56 0001:0002E2AC    58 0001:0002E2BE
    63 0001:0002E2E6    68 0001:0002E304    69 0001:0002E30C    82 0001:0002E328
    83 0001:0002E346    84 0001:0002E34C    88 0001:0002E369    90 0001:0002E373
    92 0001:0002E380    94 0001:0002E3CD    97 0001:0002E3F9    98 0001:0002E3FE
    99 0001:0002E405   103 0001:0002E40A   106 0001:0002E436   107 0001:0002E44B
   108 0001:0002E452   112 0001:0002E457   115 0001:0002E483   116 0001:0002E498
   117 0001:0002E49F   121 0001:0002E4A4   124 0001:0002E4D0   125 0001:0002E4ED
   126 0001:0002E4FD   128 0001:0002E509   129 0001:0002E513   130 0001:0002E51A
   134 0001:0002E51F   137 0001:0002E54B   138 0001:0002E558   139 0001:0002E55E
   140 0001:0002E568   142 0001:0002E57F   143 0001:0002E58A   144 0001:0002E592
   145 0001:0002E599   150 0001:0002E59E   153 0001:0002E5CA   155 0001:0002E5DE
   156 0001:0002E5EB   158 0001:0002E5F5   164 0001:0002E5FE   165 0001:0002E62A
   166 0001:0002E660   167 0001:0002E6D5   168 0001:0002E705   169 0001:0002E72F
   170 0001:0002E765   171 0001:0002E79B   172 0001:0002E7D1   173 0001:0002E803
   175 0001:0002E832   176 0001:0002E864   177 0001:0002E891   178 0001:0002E89A
   180 0001:0002E8B2   181 0001:0002E8D5   183 0001:0002E8DF   189 0001:0002E8EB
   192 0001:0002E917   194 0001:0002E927   195 0001:0002E92C   233 0001:0002E938
   234 0001:0002E942   236 0001:0002E981   237 0001:0002E991   238 0001:0002E998
   272 0001:0002E99A   283 0001:0002E9A1   284 0001:0002E9CB   294 0001:0002EBF8
   295 0001:0002EBFE   296 0001:0002EC03   297 0001:0002EC08   304 0001:0002EC0C
   305 0001:0002EC21   306 0001:0002EC31   307 0001:0002EC3B   309 0001:0002EC52
   310 0001:0002EC65   312 0001:0002EC71   313 0001:0002ECC0   315 0001:0002ED40
   315 0001:0002ED47

Line numbers for idplay(idplay.pas) segment .text

   401 0001:0002EDBC   454 0001:0002F5D0   455 0001:0002F601   457 0001:0002F62D
   459 0001:0002F63A   460 0001:0002F650   464 0001:0002F664   465 0001:0002F66F
   468 0001:0002F679   467 0001:0002F686   469 0001:0002F693   470 0001:0002F6B5
   471 0001:0002F6E9   476 0001:0002F714   477 0001:0002F73A   479 0001:0002F766
   481 0001:0002F773   482 0001:0002F789   486 0001:0002F79D   487 0001:0002F7A8
   490 0001:0002F7B2   489 0001:0002F7BF   491 0001:0002F7CC   492 0001:0002F7ED
   493 0001:0002F819   499 0001:0002F844   501 0001:0002F86B   502 0001:0002F87B
   504 0001:0002F881   505 0001:0002F89F   509 0001:0002F8B1   510 0001:0002F8BC
   512 0001:0002F8C4   513 0001:0002F8CF   514 0001:0002F8F7   517 0001:0002F908
   518 0001:0002F917   519 0001:0002F931   527 0001:0002F938   528 0001:0002F961
   529 0001:0002F967   531 0001:0002F97F   532 0001:0002F985   534 0001:0002F98F
   535 0001:0002F9A1   536 0001:0002F9AF   538 0001:0002F9BA   540 0001:0002FA11
   544 0001:0002FA21   546 0001:0002FA27   547 0001:0002FA38   549 0001:0002FA8F
   554 0001:0002FAA8   555 0001:0002FAC4   557 0001:0002FADF   558 0001:0002FAE7
   559 0001:0002FAFA   560 0001:0002FB35   561 0001:0002FB42   562 0001:0002FB72
   574 0001:0002FB78   575 0001:0002FBA4   576 0001:0002FBAA   577 0001:0002FBBE
   578 0001:0002FBC4   580 0001:0002FBDF   581 0001:0002FBF0   582 0001:0002FBFC
   584 0001:0002FC15   578 0001:0002FC18   585 0001:0002FC1F   587 0001:0002FC35
   589 0001:0002FC42   590 0001:0002FC7E   592 0001:0002FC8D   593 0001:0002FC9A
   594 0001:0002FCA2   595 0001:0002FCB5   596 0001:0002FCC7   597 0001:0002FCCD
   598 0001:0002FCDB   599 0001:0002FD05   601 0001:0002FD2C   602 0001:0002FD32
   604 0001:0002FD56   605 0001:0002FD8B   606 0001:0002FD96   607 0001:0002FDC8
   608 0001:0002FDF8   611 0001:0002FE34   621 0001:0002FE3C   622 0001:0002FE5F
   623 0001:0002FE82   624 0001:0002FE9E   625 0001:0002FEC2   626 0001:0002FEC8
   627 0001:0002FED6   628 0001:0002FEDF   629 0001:0002FEEB   630 0001:0002FF35
   631 0001:0002FF68   639 0001:0002FFC4   641 0001:0002FFE0   643 0001:0002FFE9
   644 0001:0002FFF0   645 0001:0002FFFB   646 0001:00030029   647 0001:00030039
   648 0001:0003003F   649 0001:0003004A   650 0001:00030055   651 0001:0003007C
   658 0001:0003008C   659 0001:000300AF   661 0001:000300B9   662 0001:000300CB
   663 0001:000300D2   666 0001:000300F6   667 0001:00030103   668 0001:00030131
   669 0001:0003015F   670 0001:0003018D   674 0001:000301C5   675 0001:000301D2
   676 0001:00030200   677 0001:0003022E   681 0001:00030261   682 0001:0003026E
   683 0001:0003029C   684 0001:000302CA   685 0001:000302F8   689 0001:0003032B
   690 0001:00030338   691 0001:00030366   692 0001:00030394   695 0001:000303C2
   698 0001:000303F3   703 0001:000303FC   704 0001:00030408   705 0001:00030418
   706 0001:00030422   707 0001:00030432   710 0001:00030438   711 0001:00030444
   713 0001:00030453   714 0001:00030460   716 0001:00030462   717 0001:00030472
   718 0001:0003047C   719 0001:0003048C   733 0001:00030490   735 0001:0003049C
   739 0001:000304A4   742 0001:000304A8   743 0001:000304B4   744 0001:000304C0
   745 0001:000304C9   746 0001:000304DD   761 0001:000304E4   762 0001:00030542
   763 0001:0003055E   764 0001:00030564   766 0001:00030571   767 0001:00030580
   768 0001:0003058E   770 0001:0003059A   771 0001:000305BD   774 0001:000305C7
   775 0001:000305D5   776 0001:000305E5   777 0001:000305F3   778 0001:000305F8
   782 0001:00030602   783 0001:00030620   784 0001:0003063C   786 0001:0003064C
   789 0001:0003066F   791 0001:0003067E   792 0001:000306A1   795 0001:000306AD
   796 0001:000306D7   797 0001:000306E5   798 0001:000306EB   799 0001:000306F0
   800 0001:0003070F   802 0001:00030716   804 0001:0003071C   805 0001:0003075A
   780 0001:00030767   811 0001:0003077F   813 0001:0003078B   814 0001:0003079A
   815 0001:000307BD   818 0001:000307CC   819 0001:000307D7   820 0001:000307DC
   821 0001:000307E9   823 0001:0003080A   824 0001:0003081F   826 0001:00030827
   827 0001:00030835   829 0001:00030837   821 0001:0003083A   831 0001:0003083F
   832 0001:0003084E   834 0001:000308BD   837 0001:000308E2   839 0001:0003092F
   851 0001:00030A44   852 0001:00030A70   854 0001:00030A80   856 0001:00030A90
   857 0001:00030AA5   858 0001:00030AB7   859 0001:00030ADF   861 0001:00030AE9
   862 0001:00030AFC   863 0001:00030B03   866 0001:00030B0F   868 0001:00030B16
   870 0001:00030B1E   872 0001:00030B24   873 0001:00030B3A   876 0001:00030B47
   877 0001:00030B5B   878 0001:00030B66   879 0001:00030B6E   880 0001:00030B79
   882 0001:00030B7B   866 0001:00030B7E   863 0001:00030B84   889 0001:00030B8E
   892 0001:00030BA0   894 0001:00030BB2   895 0001:00030BC1   898 0001:00030BC3
   901 0001:00030BD8   913 0001:00030BEC   915 0001:00030C33   920 0001:00030CB0
   921 0001:00030CC1   922 0001:00030CE0   923 0001:00030CFF   924 0001:00030D1E
   925 0001:00030D3D   937 0001:00030D44   938 0001:00030D89   939 0001:00030DA5
   940 0001:00030DAF   941 0001:00030DBC   942 0001:00030DD8   943 0001:00030DF4
   944 0001:00030E0D   945 0001:00030E26   946 0001:00030E3F   947 0001:00030E5B
   948 0001:00030E77   949 0001:00030E96   950 0001:00030EB5   951 0001:00030ED4
   952 0001:00030EF3   953 0001:00030F12   954 0001:00030F31   955 0001:00030F50
   957 0001:00030F6F   958 0001:00030F8B   959 0001:00030FA7   960 0001:00030FC0
   961 0001:00030FD9   962 0001:00030FF2   963 0001:0003100E   964 0001:0003102A
   965 0001:00031049   966 0001:00031068   967 0001:00031087   968 0001:000310A6
   969 0001:000310C5   970 0001:000310E4   971 0001:00031103   972 0001:00031122
   973 0001:0003113B   972 0001:00031153   974 0001:00031158   975 0001:00031167
   978 0001:0003116C   980 0001:00031178   981 0001:0003119B   984 0001:000311A0
   985 0001:000311AE   986 0001:000311BE   990 0001:000311C8   991 0001:000311E6
   992 0001:000311F4   994 0001:00031204   996 0001:00031227   997 0001:0003122D
   998 0001:00031241   999 0001:00031247  1000 0001:00031256  1002 0001:0003125B
  1003 0001:00031262  1006 0001:00031267  1007 0001:00031277  1008 0001:00031295
  1009 0001:000312B3  1011 0001:000312C1  1012 0001:000312C7  1013 0001:000312D6
  1016 0001:000312DB  1017 0001:000312EB  1018 0001:00031309  1019 0001:00031327
  1021 0001:00031335  1022 0001:0003133B  1023 0001:0003134A  1026 0001:0003134F
  1027 0001:0003135F  1028 0001:0003137D  1029 0001:0003139B  1031 0001:000313A9
  1032 0001:000313AF  1033 0001:000313BE  1036 0001:000313C3  1037 0001:000313D3
  1038 0001:000313F1  1039 0001:0003140F  1041 0001:0003141D  1042 0001:00031423
  1043 0001:00031432  1046 0001:00031437  1047 0001:00031447  1048 0001:00031465
  1049 0001:00031483  1051 0001:00031491  1052 0001:00031497  1053 0001:000314A6
  1056 0001:000314AB   988 0001:00031517  1058 0001:0003152F  1059 0001:00031548
  1058 0001:00031560  1060 0001:00031565  1061 0001:000315CF  1068 0001:00031754
  1069 0001:00031777  1070 0001:0003178C  1071 0001:00031796  1073 0001:000317A8
  1074 0001:000317B7  1076 0001:000317BC  1077 0001:000317DC  1079 0001:000317F7
  1080 0001:00031821  1081 0001:0003182E  1082 0001:00031875  1083 0001:00031881
  1085 0001:000318E4  1086 0001:00031945  1087 0001:000319A9  1088 0001:000319D6
  1089 0001:00031A3A  1092 0001:00031AAC  1093 0001:00031AB8  1095 0001:00031ACB
  1097 0001:00031ADD  1098 0001:00031AEA  1100 0001:00031AF6  1101 0001:00031B57
  1105 0001:00031B6A  1106 0001:00031BCB  1109 0001:00031BDD  1110 0001:00031BEA
  1111 0001:00031C31  1113 0001:00031C41  1114 0001:00031CA2  1115 0001:00031CDD
  1119 0001:00031CF3  1120 0001:00031D54  1121 0001:00031D7D  1129 0001:00031D8F
  1077 0001:00031D92  1130 0001:00031DC0  1146 0001:00031E50  1147 0001:00031E5C
  1148 0001:00031E64  1149 0001:00031E88  1151 0001:00031E9A  1152 0001:00031EAA
  1153 0001:00031EB6  1155 0001:00031EC8  1156 0001:00031ED8  1157 0001:00031EE4
  1159 0001:00031EF6  1160 0001:00031F06  1161 0001:00031F11  1163 0001:00031F23
  1167 0001:00031F33  1177 0001:00031F60  1178 0001:00031F96  1179 0001:00031FAB
  1181 0001:00031FBB  1183 0001:00031FD7  1184 0001:00031FED  1183 0001:00032023
  1185 0001:00032028  1186 0001:00032051  1189 0001:0003205D  1190 0001:0003206D
  1192 0001:00032077  1194 0001:000320A7  1196 0001:000320BB  1198 0001:000320DE
  1199 0001:00032100  1200 0001:0003211A  1202 0001:00032120  1203 0001:00032150
  1207 0001:0003215A  1208 0001:00032183  1210 0001:0003219D  1211 0001:000321A1
  1212 0001:000321B5  1214 0001:000321BF  1215 0001:000321D4  1216 0001:000321D8
  1218 0001:000321F3  1219 0001:000321FF  1220 0001:0003221A  1222 0001:0003221E
  1224 0001:00032236  1225 0001:00032242  1226 0001:00032267  1228 0001:0003226B
  1230 0001:0003228A  1231 0001:00032296  1232 0001:000322BB  1234 0001:000322BF
  1236 0001:000322C9  1237 0001:000322D8  1238 0001:000322E6  1239 0001:000322F1
  1241 0001:00032305  1242 0001:00032358  1243 0001:00032383  1245 0001:00032387
  1247 0001:000323A3  1248 0001:000323D9  1251 0001:000323DD  1252 0001:000323EB
  1253 0001:000323F1  1255 0001:00032422  1257 0001:00032425  1258 0001:00032445
  1262 0001:0003246B  1266 0001:0003247B  1268 0001:00032485  1270 0001:00032495
  1271 0001:000324CA  1272 0001:00032519  1273 0001:00032568  1279 0001:000325F0
  1280 0001:000325F9  1281 0001:00032651  1282 0001:0003265D  1284 0001:000326C6
  1287 0001:00032860  1288 0001:00032883  1290 0001:00032889  1291 0001:00032898
  1293 0001:000328BC  1295 0001:000328E9  1301 0001:00032928  1302 0001:00032937
  1303 0001:00032951  1305 0001:0003295B  1306 0001:00032964  1307 0001:0003296D
  1308 0001:00032976  1310 0001:00032985  1311 0001:000329A1  1313 0001:000329A7
  1314 0001:000329B6  1316 0001:000329BD  1317 0001:000329C7  1319 0001:000329DE
  1320 0001:000329EC  1321 0001:00032A09  1322 0001:00032A1A  1323 0001:00032A35
  1324 0001:00032A46  1325 0001:00032A5A  1326 0001:00032A6C  1327 0001:00032A81
  1329 0001:00032AAC  1330 0001:00032ABD  1331 0001:00032AC9  1332 0001:00032AD6
  1317 0001:00032AD9  1333 0001:00032AE2  1334 0001:00032AEF  1335 0001:00032B0C
  1336 0001:00032B1D  1337 0001:00032B38  1338 0001:00032B49  1339 0001:00032B55
  1340 0001:00032B62  1341 0001:00032B77  1343 0001:00032BA2  1344 0001:00032BB3
  1346 0001:00032BBC  1355 0001:00032C30  1356 0001:00032C54  1361 0001:00032C61
  1363 0001:00032C79  1365 0001:00032C87  1368 0001:00032C9D  1373 0001:00032D0D
  1374 0001:00032D18  1378 0001:00032D63  1380 0001:00032D87  1383 0001:00032DA9
  1384 0001:00032DB7  1385 0001:00032DC5  1387 0001:00032DE8  1388 0001:00032DEB
  1391 0001:00032DF8  1392 0001:00032E01  1393 0001:00032E0B  1394 0001:00032E19
  1396 0001:00032E4B  1398 0001:00032E4E  1399 0001:00032E5D  1400 0001:00032E6D
  1401 0001:00032E75  1405 0001:00032E84  1407 0001:00032E93  1408 0001:00032EB4
  1409 0001:00032EBE  1410 0001:00032EC8  1411 0001:00032ED6  1413 0001:00032F0B
  1415 0001:00032F0E  1416 0001:00032F1D  1417 0001:00032F25  1422 0001:00032F34
  1424 0001:00032F3B  1425 0001:00032F44  1426 0001:00032F51  1427 0001:00032F6B
  1428 0001:00032F91  1429 0001:00032FB1  1430 0001:00032FED  1431 0001:00032FFB
  1432 0001:0003302D  1433 0001:0003305D  1435 0001:0003306A  1437 0001:00033077
  1438 0001:00033081  1440 0001:000330CB  1441 0001:00033113  1442 0001:00033145
  1443 0001:00033175  1447 0001:00033182  1448 0001:0003318F  1449 0001:0003319C
  1450 0001:000331AA  1451 0001:000331DC  1452 0001:0003320C  1454 0001:00033219
  1455 0001:00033226  1456 0001:00033233  1458 0001:0003323D  1459 0001:00033248
  1461 0001:0003325B  1463 0001:0003327D  1465 0001:00033290  1466 0001:000332C2
  1467 0001:000332F2  1471 0001:000332FF  1472 0001:0003330C  1473 0001:00033319
  1474 0001:00033338  1475 0001:0003336A  1476 0001:0003339A  1480 0001:000333A7
  1481 0001:000333B4  1482 0001:000333C1  1483 0001:000333CF  1484 0001:00033401
  1485 0001:00033431  1489 0001:0003343E  1491 0001:0003345B  1492 0001:00033468
  1493 0001:00033475  1494 0001:00033499  1495 0001:000334CB  1496 0001:000334FB
  1497 0001:00033508  1489 0001:0003350B  1501 0001:00033514  1503 0001:00033522
  1504 0001:0003352F  1505 0001:0003353C  1506 0001:00033556  1507 0001:00033588
  1508 0001:000335B8  1511 0001:000335C5  1512 0001:000335E2  1513 0001:000335EF
  1514 0001:00033613  1515 0001:00033637  1516 0001:0003364D  1517 0001:00033666
  1518 0001:00033698  1519 0001:000336C8  1520 0001:000336D5  1511 0001:000336D8
  1521 0001:000336E1  1522 0001:000336FE  1523 0001:0003370B  1524 0001:00033727
  1525 0001:00033740  1526 0001:00033772  1527 0001:000337A2  1528 0001:000337AF
  1521 0001:000337B2  1529 0001:000337BB  1530 0001:000337C8  1534 0001:000337D9
  1535 0001:000337E6  1536 0001:00033815  1538 0001:00033820  1542 0001:00033829
  1543 0001:0003385B  1544 0001:0003388B  1545 0001:000338CA  1552 0001:00033A10
  1553 0001:00033A49  1554 0001:00033A51  1555 0001:00033A5E  1556 0001:00033A6B
  1557 0001:00033A78  1558 0001:00033A85  1559 0001:00033A92  1560 0001:00033A9F
  1561 0001:00033AAC  1562 0001:00033AB9  1563 0001:00033AC6  1565 0001:00033AD3
  1567 0001:00033ADE  1569 0001:00033AE5  1570 0001:00033B1A  1567 0001:00033B1D
  1571 0001:00033B5B  1577 0001:00033BDC  1578 0001:00033C0F  1579 0001:00033C17
  1581 0001:00033C1B  1582 0001:00033C36  1584 0001:00033C59  1586 0001:00033C5F
  1587 0001:00033C63  1589 0001:00033C91  1590 0001:00033CCD  1591 0001:00033CEF
  1600 0001:00033D2D  1603 0001:00033D3C  1604 0001:00033D48  1605 0001:00033D50
  1606 0001:00033D5B  1607 0001:00033D65  1608 0001:00033D90  1609 0001:00033DDA
  1610 0001:00033E1C  1619 0001:00033E48  1620 0001:00033E79  1623 0001:00033EB5
  1624 0001:00033ED4  1625 0001:00033EE1  1627 0001:00033F23  1630 0001:00033F2F
  1631 0001:00033FC0  1632 0001:00033FD5  1628 0001:00033FE0  1634 0001:00033FF7
  1637 0001:00034007  1639 0001:0003404D  1640 0001:00034071  1641 0001:00034075
  1642 0001:00034088  1643 0001:0003409C  1646 0001:000340B0  1649 0001:000340B4
  1650 0001:000340D9  1651 0001:000340E6  1653 0001:0003412D  1657 0001:00034184
  1667 0001:000341E0  1668 0001:000341EF  1669 0001:000341FA  1670 0001:00034202
  1671 0001:00034217  1673 0001:00034246  1674 0001:00034265  1675 0001:0003426F
  1676 0001:0003429E  1678 0001:000342BD  1680 0001:000342F0  1681 0001:0003430F
  1682 0001:00034319  1683 0001:00034348  1686 0001:0003439E  1687 0001:000343A8
  1691 0001:000343B5  1694 0001:0003441C  1695 0001:00034428  1696 0001:00034436
  1697 0001:0003443F  1698 0001:0003444D  1700 0001:00034456  1701 0001:0003445E
  1707 0001:00034464  1708 0001:00034470  1709 0001:00034477  1710 0001:00034480
  1713 0001:00034484  1714 0001:00034490  1715 0001:00034497  1716 0001:000344A0
  1717 0001:000344A9  1718 0001:000344BA  1721 0001:000344C0  1722 0001:000344CC
  1723 0001:000344D3  1724 0001:000344DC  1725 0001:000344E5  1726 0001:000344F6
  1729 0001:000344FC  1730 0001:00034508  1731 0001:0003450F  1732 0001:00034518
  1735 0001:0003451C  1736 0001:00034529  1737 0001:00034530  1738 0001:0003453B
  1741 0001:00034540  1742 0001:0003454D  1743 0001:00034554  1744 0001:0003455F
  1825 0001:00034564  1826 0001:00034598  1827 0001:000345A0  1828 0001:000345AB
  1829 0001:000345C5  1832 0001:000345DF  1834 0001:000345EC  1836 0001:00034613
  1837 0001:00034627  1839 0001:00034646  1840 0001:00034653  1841 0001:00034688
  1842 0001:0003469B  1843 0001:000346B8  1845 0001:0003470A  1846 0001:00034715
  1847 0001:0003471D  1848 0001:0003472B  1850 0001:00034733  1852 0001:00034758
  1853 0001:0003476C  1854 0001:00034788  1853 0001:000347C4  1855 0001:000347CC
  1858 0001:000347E3  1860 0001:000347F5  1863 0001:0003480E  1864 0001:00034820
  1866 0001:00034837  1867 0001:0003483E  1868 0001:0003485A  1870 0001:00034871
  1871 0001:00034876  1872 0001:00034878  1867 0001:0003487B  1873 0001:00034883
  1875 0001:00034889  1876 0001:00034893  1886 0001:000348A6  1888 0001:000348C1
  1889 0001:000348CD  1890 0001:000348D7  1891 0001:000348E0  1894 0001:000348EA
  1895 0001:000348F5  1896 0001:000348FE  1900 0001:0003490C  1901 0001:0003491E
  1902 0001:0003492C  1904 0001:0003494A  1905 0001:00034962  1906 0001:0003496D
  1908 0001:000349A9  1910 0001:000349B9  1912 0001:000349C3  1915 0001:000349D0
  1916 0001:00034A1D  1917 0001:00034A28  1919 0001:00034A47  1920 0001:00034A57
  1921 0001:00034A63  1939 0001:00034A6B  1941 0001:00034A8E  1945 0001:00034AB2
  1947 0001:00034AC5  1949 0001:00034AD8  1952 0001:00034AE6  1953 0001:00034AF9
  1954 0001:00034AFF  1959 0001:00034B21  1960 0001:00034B34  1961 0001:00034B3A
  1976 0001:00034B5A  1978 0001:00034B7D  1981 0001:00034B93  1982 0001:00034BBA
  1984 0001:00034BC8  1985 0001:00034BEF  1987 0001:00034C0E  1988 0001:00034C29
  1992 0001:00034C33  1995 0001:00034C56  1996 0001:00034C7D  1997 0001:00034C88
  1999 0001:00034C8E  2000 0001:00034CB5  2001 0001:00034CC0  2002 0001:00034CCC
  2009 0001:00034CE8  2011 0001:00034D07  2012 0001:00034D10  2013 0001:00034D1C
  2017 0001:00034D52  2019 0001:00034D5F  2020 0001:00034D71  2021 0001:00034D7F
  2023 0001:00034DAE  2025 0001:00034DBE  2026 0001:00034DE0  2028 0001:00034DEC
  2031 0001:00034E11  2033 0001:00034E24  2034 0001:00034E51  2036 0001:00034E5E
  2037 0001:00034E7A  2036 0001:00034EB6  2038 0001:00034EBE  2040 0001:00034EED
  2041 0001:00034F4D  2043 0001:00034F5E  2044 0001:00034F69  2045 0001:00034F72
  2046 0001:00034F85  2048 0001:00034F94  2049 0001:00034FB1  2050 0001:00034FD3
  2054 0001:00035020  2055 0001:00035035  2056 0001:00035070  2057 0001:0003507F
  2058 0001:0003508E  2049 0001:00035091  2060 0001:0003509D  2062 0001:000350CB
  2063 0001:000350D9  2064 0001:000350DF  2065 0001:000350E4  2066 0001:00035119
  2068 0001:00035131  2069 0001:00035149  2070 0001:00035164  2071 0001:0003517E
  2072 0001:00035196  2066 0001:00035199  2076 0001:000351A1  2078 0001:000351CF
  2079 0001:0003520F  2081 0001:00035219  2082 0001:00035243  2083 0001:00035282
  2085 0001:0003528B  2086 0001:000352AD  2088 0001:000352B7  2091 0001:000352CF
  2092 0001:0003530F  2095 0001:00035319  2097 0001:0003532C  2099 0001:00035364
  2100 0001:00035379  2105 0001:000353AC  2108 0001:000353C3  2109 0001:00035414
  2113 0001:00035423  2114 0001:00035446  2115 0001:00035458  2116 0001:0003546E
  2117 0001:00035484  2120 0001:0003549A  2124 0001:000354D0  2126 0001:000354E3
  2127 0001:000354EE  2129 0001:000354FE  2130 0001:00035532  2131 0001:00035566
  2132 0001:0003559A  2133 0001:000355CE  2134 0001:00035602  2136 0001:00035636
  2145 0001:00035666  2149 0001:00035673  2154 0001:000356A1  2155 0001:000356D4
  2156 0001:000356E3  2158 0001:000356F2  2164 0001:00035704  2170 0001:00035755
  2171 0001:00035762  2172 0001:0003576F  2173 0001:000357A2  2174 0001:000357B1
  2178 0001:000357C0  2180 0001:000357DF  2182 0001:000357F0  2186 0001:000357FA
  2190 0001:0003580E  2192 0001:00035831  2193 0001:00035855  2194 0001:00035865
  2196 0001:00035872  2197 0001:00035892  2198 0001:0003589A  2200 0001:000358A6
  2202 0001:000358B0  2203 0001:000358BE  2205 0001:000358CC  2206 0001:000358D5
  2208 0001:000358E1  2210 0001:000358EB  2211 0001:000358FB  2213 0001:0003590B
  2214 0001:00035918  2218 0001:00035922  2220 0001:00035945  2221 0001:00035969
  2222 0001:00035981  2223 0001:00035999  2224 0001:000359A5  2226 0001:000359B1
  2227 0001:000359C4  2228 0001:000359D7  2229 0001:000359F8  2234 0001:00035A1E
  2236 0001:00035A41  2237 0001:00035A55  2239 0001:00035A5C  2241 0001:00035A64
  2243 0001:00035A71  2244 0001:00035A7D  2245 0001:00035A8C  2247 0001:00035A95
  2249 0001:00035AA1  2250 0001:00035AB7  2253 0001:00035AC8  2255 0001:00035AD7
  2256 0001:00035AEC  2258 0001:00035AFB  2261 0001:00035B0A  2263 0001:00035B25
  2264 0001:00035B47  2265 0001:00035B4F  2268 0001:00035B5A  2271 0001:00035B84
  2272 0001:00035BB1  2273 0001:00035BF6  2274 0001:00035C07  2276 0001:00035C10
  2277 0001:00035C20  2279 0001:00035C3C  2280 0001:00035C58  2281 0001:00035C68
  2282 0001:00035C78  2277 0001:00035C7B  2284 0001:00035C83  2286 0001:00035CA5
  2288 0001:00035CB2  2290 0001:00035CC0  2293 0001:00035CDE  2298 0001:00035D6C
  2299 0001:00035D77  2303 0001:00035DD4  2305 0001:00035DFE  2308 0001:00035E26
  2310 0001:00035E4F  2312 0001:00035E56  2313 0001:00035E61  2314 0001:00035EA4
  2316 0001:00035ED3  2317 0001:00035EE3  2318 0001:00035EEB  2323 0001:00035EF6
  2324 0001:00035F08  2325 0001:00035F16  2326 0001:00035F32  2325 0001:00035F50
  2327 0001:00035F58  2329 0001:00035F68  2330 0001:00035F6D  2332 0001:00035F8D
  2333 0001:00035FAB  2334 0001:0003600C  2335 0001:00036021  2336 0001:00036048
  2337 0001:00036059  2330 0001:0003605C  2339 0001:00036068  2341 0001:00036076
  2342 0001:00036082  2344 0001:000360A2  2348 0001:00036119  2342 0001:0003611C
  2352 0001:00036135  2355 0001:00036148  2356 0001:00036156  2357 0001:00036160
  2363 0001:0003616D  2365 0001:0003617A  2367 0001:00036185  2377 0001:000361D2
  2379 0001:00036224  2380 0001:0003622E  2381 0001:00036235  2385 0001:00036280
  2387 0001:00036290  2388 0001:000362A5  2390 0001:000362B4  2391 0001:000362C4
  2392 0001:000362D7  2395 0001:000362E4  2396 0001:000362F9  2398 0001:00036308
  2399 0001:00036318  2400 0001:0003632B  2414 0001:00036338  2416 0001:00036340
  2418 0001:00036349  2419 0001:00036358  2420 0001:0003636F  2425 0001:00036382
  2426 0001:0003638D  2431 0001:00036398  2433 0001:000363B4  2435 0001:000363CB
  2436 0001:000363E2  2438 0001:000363F9  2440 0001:0003641B  2431 0001:0003641E
  2442 0001:00036426  2443 0001:00036434  2446 0001:0003643E  2448 0001:0003644B
  2449 0001:00036456  2451 0001:0003645C  2453 0001:000364A9  2457 0001:00036577
  2458 0001:00036584  2461 0001:00036595  2463 0001:0003659F  2465 0001:000365AF
  2467 0001:000365BB  2475 0001:00036623  2477 0001:00036652  2480 0001:0003668B
  2481 0001:000366B7  2482 0001:000366E2  2483 0001:0003670D  2485 0001:0003672E
  2475 0001:00036732  2489 0001:0003673F  2490 0001:0003674B  2492 0001:00036758
  2494 0001:00036778  2495 0001:0003677F  2500 0001:00036793  2501 0001:000367B7
  2502 0001:000367C1  2503 0001:000367C9  2504 0001:000367F8  2505 0001:0003681C
  2506 0001:00036826  2507 0001:00036830  2511 0001:00036864  2512 0001:00036889
  2514 0001:000368AE  2515 0001:000368D1  2520 0001:000368E4  2521 0001:00036914
  2524 0001:00036931  2525 0001:00036955  2526 0001:00036965  2527 0001:00036989
  2528 0001:00036999  2529 0001:000369BD  2531 0001:000369CD  2532 0001:000369F1
  2535 0001:000369FB  2537 0001:00036A33  2538 0001:00036A55  2544 0001:00036A86
  2545 0001:00036A90  2547 0001:00036AB4  2551 0001:00036ADA  2553 0001:00036AE7
  2556 0001:00036AF6  2561 0001:00036B03  2563 0001:00036B14  2565 0001:00036B47
  2566 0001:00036B54  2569 0001:00036B60  2572 0001:00036B6A  2573 0001:00036B73
  2574 0001:00036B8F  2573 0001:00036BA7  2576 0001:00036BAF  2579 0001:00036BCC
  2582 0001:00036BF5  2583 0001:00036C02  2584 0001:00036C26  2585 0001:00036C2D
  2586 0001:00036C47  2588 0001:00036C58  2589 0001:00036C65  2591 0001:00036C74
  2594 0001:00036C9D  2595 0001:00036CAA  2596 0001:00036CCE  2597 0001:00036CD5
  2598 0001:00036CEF  2600 0001:00036D00  2601 0001:00036D0D  2604 0001:00036D17
  2605 0001:00036D3B  2608 0001:00036D54  2610 0001:00036D5D  2611 0001:00036D69
  2612 0001:00036D9A  2613 0001:00036DA7  2615 0001:00036DB6  2616 0001:00036DC6
  2620 0001:00036DFC  2621 0001:00036E23  2623 0001:00036E34  2625 0001:00036E44
  2626 0001:00036E75  2628 0001:00036E94  2629 0001:00036EAE  2631 0001:00036EC8
  2632 0001:00036EE0  2635 0001:00036EF1  2640 0001:00036F15  2642 0001:00036F34
  2644 0001:00036F4E  2645 0001:00036F66  2647 0001:00036F79  2648 0001:00036FA4
  2649 0001:00036FBF  2650 0001:00036FF7  2660 0001:00037016  2662 0001:00037053
  2669 0001:00037089  2671 0001:000370AD  2672 0001:000370C5  2673 0001:000370DD
  2675 0001:000370F1  2677 0001:00037101  2678 0001:00037114  2679 0001:00037127
  2680 0001:00037154  2685 0001:0003717F  2686 0001:000371A3  2687 0001:000371AD
  2688 0001:000371B7  2689 0001:000371EA  2694 0001:00037214  2695 0001:00037238
  2696 0001:00037242  2698 0001:0003724C  2699 0001:00037270  2700 0001:0003727A
  2702 0001:0003729B  2703 0001:000372C0  2705 0001:000372E9  2706 0001:0003730C
  2711 0001:00037322  2713 0001:00037330  2714 0001:00037354  2715 0001:0003735E
  2716 0001:00037382  2717 0001:0003738C  2718 0001:000373B0  2719 0001:000373BA
  2724 0001:00037402  2728 0001:00037432  2729 0001:00037456  2730 0001:00037460
  2731 0001:00037484  2732 0001:0003748E  2737 0001:000374EA  2739 0001:0003750E
  2741 0001:00037529  2742 0001:0003754A  2745 0001:00037554  2748 0001:00037582
  2749 0001:0003759F  2754 0001:000375B1  2755 0001:000375BC  2756 0001:000375C6
  2757 0001:000375D3  2758 0001:000375EA  2762 0001:000375FC  2764 0001:00037623
  2765 0001:0003762E  2766 0001:00037638  2770 0001:0003764A  2773 0001:000376B5
  2778 0001:000376C4  2779 0001:000376E9  2780 0001:000376F2  2781 0001:000376F9
  2782 0001:0003771D  2783 0001:00037725  2784 0001:00037735  2785 0001:00037743
  2786 0001:00037755  2787 0001:00037760  2788 0001:00037776  2790 0001:00037782
  2791 0001:000377A6  2792 0001:000377AE  2793 0001:000377BE  2794 0001:000377CC
  2795 0001:000377DE  2796 0001:000377E9  2797 0001:000377FF  2799 0001:0003780B
  2800 0001:0003781D  2801 0001:00037841  2802 0001:00037849  2803 0001:0003786D
  2804 0001:00037875  2805 0001:00037899  2806 0001:000378A1  2807 0001:000378C5
  2808 0001:000378D0  2809 0001:000378D6  2811 0001:00037903  2812 0001:00037941
  2813 0001:0003797F  2814 0001:000379B4  2815 0001:000379E9  2816 0001:00037A0E
  2817 0001:00037A33  2818 0001:00037A58  2820 0001:00037A80  2821 0001:00037A8E
  2829 0001:00037B3A  2831 0001:00037B44  2832 0001:00037B68  2833 0001:00037B70
  2834 0001:00037B8F  2835 0001:00037BA5  2837 0001:00037BBD  2838 0001:00037BD3
  2840 0001:00037BE9  2842 0001:00037BF7  2843 0001:00037C1B  2844 0001:00037C23
  2845 0001:00037C47  2846 0001:00037C4F  2850 0001:00037CA6  2852 0001:00037CB9
  2853 0001:00037CC0  2857 0001:00037CD4  2858 0001:00037CF8  2859 0001:00037D08
  2862 0001:00037D57  2865 0001:00037D89  2868 0001:00037DBB  2873 0001:00037DD4
  2877 0001:00037DE6  2878 0001:00037E06  2879 0001:00037E20  2880 0001:00037E58
  2884 0001:00037EA8  2885 0001:00037EC8  2901 0001:00037EE2  2902 0001:00037F02
  2904 0001:00037F28  2912 0001:00037F58  2913 0001:00037F78  2918 0001:00037FA8
  2919 0001:00037FC8  2925 0001:00037FE3  2926 0001:00038003  2932 0001:00038023
  2933 0001:00038030  2937 0001:0003803F  2939 0001:00038079  2940 0001:0003809D
  2942 0001:000380A9  2943 0001:000380D2  2947 0001:000380FD  2948 0001:00038123
  2951 0001:00038149  2952 0001:00038156  2970 0001:00038160  2971 0001:0003816C
  2974 0001:00038193  2976 0001:000381A3  2978 0001:000381C2  2979 0001:000381E6
  2981 0001:000381F2  2983 0001:00038218  2984 0001:0003823C  2985 0001:00038248
  2989 0001:00038252  2991 0001:00038272  2993 0001:000382AE  2994 0001:000382B8
  2995 0001:000382F6  2996 0001:00038305  2997 0001:00038324  3001 0001:0003835A
  3002 0001:00038368  3004 0001:00038372  3006 0001:0003837F  3009 0001:000383C9
  3010 0001:000383D4  3011 0001:000383E9  3012 0001:00038415  3013 0001:0003841B
  3015 0001:0003842A  3016 0001:0003843C  3018 0001:00038450  3020 0001:00038468
  3021 0001:00038491  3027 0001:000384BA  3028 0001:000384D7  3029 0001:000384F4
  3031 0001:00038527  3033 0001:00038536  3034 0001:00038543  3035 0001:0003854B
  3036 0001:0003855E  3037 0001:00038567  3038 0001:0003856D  3039 0001:0003857B
  3040 0001:000385A5  3041 0001:000385CC  3042 0001:000385F6  3043 0001:00038601
  3044 0001:00038633  3045 0001:00038663  3050 0001:00038670  3053 0001:000386DA
  3054 0001:000386F8  3055 0001:00038716  3056 0001:00038720  3057 0001:0003872D
  3058 0001:00038742  3059 0001:0003876E  3060 0001:00038774  3061 0001:00038792
  3065 0001:000387B0  3068 0001:000387BC  3069 0001:000387CB  3070 0001:000387DB
  3071 0001:000387E5  3072 0001:00038808  3075 0001:0003888D

Line numbers for idplay(WrapperFunctions.inc) segment .text

     4 0001:00038CE0     5 0001:00038CE9     8 0001:00038CF7    10 0001:00038D2A
    12 0001:00038D2D    15 0001:00038D50    19 0001:00038D5C    20 0001:00038D65
    23 0001:00038D73    25 0001:00038DAE    27 0001:00038DB1    30 0001:00038DD4
    34 0001:00038DE0    35 0001:00038DE9    38 0001:00038DF7    40 0001:00038E2E
    42 0001:00038E31    45 0001:00038E54    48 0001:00038E60    49 0001:00038E69
    52 0001:00038E77    54 0001:00038EAA    56 0001:00038EAD    59 0001:00038ED0
    62 0001:00038EDC    63 0001:00038EE5    66 0001:00038EF3    68 0001:00038F22
    70 0001:00038F25    73 0001:00038F48    76 0001:00038F54    77 0001:00038F5D
    80 0001:00038F6B    82 0001:00038F9A    84 0001:00038F9D    87 0001:00038FC0
    91 0001:00038FCC    92 0001:00038FD5    95 0001:00038FE3    97 0001:0003901E
    99 0001:00039021   102 0001:00039044   106 0001:00039050   107 0001:00039059
   110 0001:00039067   112 0001:000390A2   114 0001:000390A5   117 0001:000390C8
   121 0001:000390D4   122 0001:000390DD   125 0001:000390EB   127 0001:00039126
   129 0001:00039129   132 0001:0003914C   137 0001:00039158   138 0001:00039161
   141 0001:0003916F   143 0001:000391AE   145 0001:000391B1   148 0001:000391D4
   151 0001:000391E0   152 0001:000391E9   155 0001:000391F7   157 0001:00039226
   159 0001:00039229   162 0001:0003924C   165 0001:00039258   166 0001:00039261
   169 0001:0003926F   171 0001:000392A2   173 0001:000392A5   176 0001:000392C8
   179 0001:000392D4   180 0001:000392DD   183 0001:000392EB   185 0001:0003931E
   187 0001:00039321   190 0001:00039344   195 0001:00039350   196 0001:00039359
   199 0001:00039367   202 0001:000393A6   204 0001:000393A9   207 0001:000393CC
   210 0001:000393D8   211 0001:000393E1   214 0001:000393EF   216 0001:0003941E
   218 0001:00039421   221 0001:00039444   225 0001:00039450   226 0001:00039459
   229 0001:00039467   231 0001:00039496   233 0001:00039499   237 0001:000394BC
   241 0001:000394C8   242 0001:000394D1   245 0001:000394DF   247 0001:0003951E
   249 0001:00039521   253 0001:00039544   256 0001:00039550   257 0001:00039559
   260 0001:00039567   262 0001:00039593   264 0001:00039596   268 0001:000395B9
   272 0001:000395C4   273 0001:000395CD   276 0001:000395DB   278 0001:00039612
   280 0001:00039615   284 0001:00039638   288 0001:00039644   289 0001:0003964D
   292 0001:0003965B   294 0001:0003969A   296 0001:0003969D   300 0001:000396C0
   305 0001:000396CC   306 0001:000396D5   309 0001:000396E3   312 0001:00039722
   314 0001:00039725   318 0001:00039748   322 0001:00039754   323 0001:0003975D
   326 0001:0003976B   328 0001:000397A6   330 0001:000397A9   334 0001:000397CC
   337 0001:000397D8   338 0001:000397E1   341 0001:000397EF   343 0001:00039822
   345 0001:00039825   349 0001:00039848   353 0001:00039854   354 0001:0003985D
   357 0001:0003986B   359 0001:000398A6   361 0001:000398A9   365 0001:000398CC
   369 0001:000398D8   370 0001:000398E1   373 0001:000398EF   375 0001:00039926
   377 0001:00039929   381 0001:0003994C   385 0001:00039958   386 0001:00039961
   389 0001:0003996F   391 0001:000399A6   393 0001:000399A9   397 0001:000399CC
   401 0001:000399D8   402 0001:000399E1   405 0001:000399EF   407 0001:00039A2A
   409 0001:00039A2D   413 0001:00039A50   417 0001:00039A5C   418 0001:00039A65
   421 0001:00039A73   423 0001:00039AAE   425 0001:00039AB1   429 0001:00039AD4
   433 0001:00039AE0   434 0001:00039AE9   437 0001:00039AF7   439 0001:00039B2E
   441 0001:00039B31   445 0001:00039B54   449 0001:00039B60   450 0001:00039B69
   453 0001:00039B77   455 0001:00039BB2   457 0001:00039BB5   461 0001:00039BD8
   465 0001:00039BE4   466 0001:00039BED   469 0001:00039BFB   471 0001:00039C32
   473 0001:00039C35   477 0001:00039C58   480 0001:00039C64   481 0001:00039C6D
   484 0001:00039C7B   486 0001:00039CB1   488 0001:00039CB4   492 0001:00039CD7
   497 0001:00039CE0   498 0001:00039CE9   501 0001:00039CF7   503 0001:00039D3D
   505 0001:00039D40   509 0001:00039D63   513 0001:00039D6C   516 0001:00039D75
   517 0001:00039D83   519 0001:00039DB9   521 0001:00039DBC   525 0001:00039DDF
   530 0001:00039DE8   531 0001:00039DF1   534 0001:00039DFF   536 0001:00039E41
   538 0001:00039E44   542 0001:00039E67   546 0001:00039E70   547 0001:00039E79
   550 0001:00039E87   552 0001:00039EC5   554 0001:00039EC8   558 0001:00039EEB
   563 0001:00039EF4   564 0001:00039EFD   567 0001:00039F0B   569 0001:00039F49
   571 0001:00039F4C   575 0001:00039F6F   579 0001:00039F78   582 0001:00039F81
   583 0001:00039F8F   585 0001:00039FCD   587 0001:00039FD0   591 0001:00039FF3
   595 0001:00039FFC   596 0001:0003A005   599 0001:0003A013   601 0001:0003A04D
   603 0001:0003A050   607 0001:0003A073   610 0001:0003A07C   611 0001:0003A085
   614 0001:0003A093   616 0001:0003A0C9   618 0001:0003A0CC   622 0001:0003A0EF
   625 0001:0003A0F8   626 0001:0003A101   629 0001:0003A10F   631 0001:0003A145
   633 0001:0003A148   637 0001:0003A16B   640 0001:0003A174   641 0001:0003A17D
   644 0001:0003A18B   646 0001:0003A1C1   648 0001:0003A1C4   652 0001:0003A1E7
   656 0001:0003A1F0   657 0001:0003A1F9   660 0001:0003A207   662 0001:0003A245
   664 0001:0003A248   668 0001:0003A26B   671 0001:0003A274   672 0001:0003A27D
   675 0001:0003A28B   677 0001:0003A2C1   679 0001:0003A2C4   683 0001:0003A2E7
   693 0001:0003A2F0   694 0001:0003A30C   695 0001:0003A31A   696 0001:0003A341
   697 0001:0003A355   698 0001:0003A36F   699 0001:0003A39F   700 0001:0003A3CF
   702 0001:0003A3E7   703 0001:0003A3FF   704 0001:0003A417   706 0001:0003A43C
   708 0001:0003A43F   712 0001:0003A484   715 0001:0003A5A4   716 0001:0003A5C3
   717 0001:0003A5D1   718 0001:0003A5E4   719 0001:0003A61F   721 0001:0003A644
   723 0001:0003A647   728 0001:0003A68C   732 0001:0003A6C8   733 0001:0003A6D1
   734 0001:0003A6DF   735 0001:0003A6FE   736 0001:0003A712   738 0001:0003A737
   740 0001:0003A73A   753 0001:0003A75D   758 0001:0003A788   759 0001:0003A791
   760 0001:0003A79F   762 0001:0003A7DD   764 0001:0003A7E0   781 0001:0003A803
   785 0001:0003A80C   786 0001:0003A815   787 0001:0003A823   788 0001:0003A83E
   789 0001:0003A852   791 0001:0003A877   793 0001:0003A87A   797 0001:0003A89D
   801 0001:0003A8D0   802 0001:0003A8D9   803 0001:0003A8E7   807 0001:0003A919
   809 0001:0003A91C   814 0001:0003A93F   818 0001:0003A948   819 0001:0003A951
   820 0001:0003A95F   822 0001:0003A991   824 0001:0003A994   828 0001:0003A9B7
   833 0001:0003A9C0   834 0001:0003A9C9   835 0001:0003A9D7   843 0001:0003AA14
   845 0001:0003AA17   849 0001:0003AA3A   853 0001:0003AA44   854 0001:0003AA4D
   864 0001:0003AA5B   868 0001:0003AA90   870 0001:0003AA93   874 0001:0003AAB6

Line numbers for idplay(idplay.pas) segment .text

  3096 0001:0003AAC0  3097 0001:0003AAE8  3098 0001:0003AAF6  3099 0001:0003AB00
  3100 0001:0003AB0E  3101 0001:0003AB29  3103 0001:0003AB56  3104 0001:0003AB5C
  3105 0001:0003AB7E  3107 0001:0003AB8C  3108 0001:0003ABB3  3109 0001:0003ABBD
  3110 0001:0003ABC7  3115 0001:0003ABD6  3116 0001:0003ABE5  3117 0001:0003ABF3
  3118 0001:0003AC0C  3117 0001:0003AC27  3119 0001:0003AC2C  3120 0001:0003AC39
  3122 0001:0003AC52  3123 0001:0003AC6A  3124 0001:0003AC8B  3120 0001:0003AC8E
  3126 0001:0003ACA0  3130 0001:0003ACB0  3131 0001:0003ACF5  3132 0001:0003ACFC
  3134 0001:0003AD19  3136 0001:0003AD32  3137 0001:0003AD3E  3138 0001:0003AD4D
  3139 0001:0003AD70  3138 0001:0003AD88  3142 0001:0003AD8D  3143 0001:0003AD92
  3144 0001:0003ADB5  3146 0001:0003AE0B  3143 0001:0003AE19  3147 0001:0003AE1E
  3150 0001:0003AE2E  3151 0001:0003AE35  3152 0001:0003AE4B  3154 0001:0003AE51
  3155 0001:0003AE6B  3156 0001:0003AE83  3159 0001:0003AEBD  3162 0001:0003AECD
  3164 0001:0003AEEE  3165 0001:0003AEFC  3166 0001:0003AF02  3167 0001:0003AF09
  3168 0001:0003AF1A  3167 0001:0003AF77  3169 0001:0003AF7C  3172 0001:0003AFD1
  3175 0001:0003AFFF  3177 0001:0003B002  3180 0001:0003B055  3196 0001:0003B0C0
  3197 0001:0003B0E0  3199 0001:0003B0EC  3200 0001:0003B10F  3202 0001:0003B114
  3203 0001:0003B11E  3214 0001:0003B12C  3215 0001:0003B131  3216 0001:0003B13F
  3217 0001:0003B149  3218 0001:0003B153  3219 0001:0003B15D  3220 0001:0003B174
  3221 0001:0003B17A  3222 0001:0003B19B  3223 0001:0003B1A7  3224 0001:0003B1AB
  3226 0001:0003B1BB  3227 0001:0003B1C5  3229 0001:0003B1D5  3230 0001:0003B1F6
  3232 0001:0003B24A  3235 0001:0003B29B  3237 0001:0003B2A2  3238 0001:0003B2C3
  3240 0001:0003B2E8  3242 0001:0003B329  3244 0001:0003B32C  3245 0001:0003B334
  3246 0001:0003B342  3247 0001:0003B34A  3248 0001:0003B37B  3249 0001:0003B385
  3250 0001:0003B38A  3251 0001:0003B395  3252 0001:0003B3A0  3254 0001:0003B3A6
  3256 0001:0003B3E9  3258 0001:0003B3F9  3259 0001:0003B40B  3260 0001:0003B41B
  3261 0001:0003B427  3264 0001:0003B437  3265 0001:0003B43F  3268 0001:0003B451
  3269 0001:0003B45B  3270 0001:0003B464  3278 0001:0003B488  3280 0001:0003B4C8
  3295 0001:0003B50C  3296 0001:0003B52D  3298 0001:0003B539  3299 0001:0003B55C
  3301 0001:0003B561  3302 0001:0003B56B  3313 0001:0003B579  3314 0001:0003B57E
  3315 0001:0003B58F  3320 0001:0003B59D  3321 0001:0003B5AC  3322 0001:0003B5CE
  3324 0001:0003B5DE  3325 0001:0003B5FB  3327 0001:0003B626  3328 0001:0003B63A
  3330 0001:0003B650  3331 0001:0003B65D  3332 0001:0003B681  3333 0001:0003B6BE
  3334 0001:0003B6C8  3335 0001:0003B6EC  3336 0001:0003B704  3337 0001:0003B732
  3338 0001:0003B773  3341 0001:0003B7C8  3342 0001:0003B7EE  3344 0001:0003B7FF
  3346 0001:0003B82C  3347 0001:0003B840  3348 0001:0003B84D  3349 0001:0003B871
  3350 0001:0003B887  3351 0001:0003B897  3353 0001:0003B8A8  3354 0001:0003B8B9
  3357 0001:0003B8D1  3360 0001:0003B8ED  3324 0001:0003B8F0  3361 0001:0003B8F9
  3363 0001:0003B911  3364 0001:0003B91B  3368 0001:0003B928  3370 0001:0003B93B
  3372 0001:0003B94C  3375 0001:0003B965  3376 0001:0003B985  3377 0001:0003B98C
  3380 0001:0003B99E  3382 0001:0003B9AF  3383 0001:0003B9C1  3384 0001:0003B9CF
  3386 0001:0003B9E7  3388 0001:0003B9F7  3389 0001:0003BA0F  3390 0001:0003BA25
  3391 0001:0003BA2D  3394 0001:0003BA64  3395 0001:0003BA69  3398 0001:0003BA7B
  3400 0001:0003BA9E  3402 0001:0003BAA8  3404 0001:0003BAB0  3406 0001:0003BABB
  3407 0001:0003BAD6  3408 0001:0003BAEF  3412 0001:0003BB07  3413 0001:0003BB20
  3414 0001:0003BB2A  3415 0001:0003BB38  3416 0001:0003BB40  3418 0001:0003BB6E
  3421 0001:0003BB7E  3422 0001:0003BB9F  3424 0001:0003BBAF  3428 0001:0003BBB9
  3433 0001:0003BBCA  3434 0001:0003BBEA  3435 0001:0003BBF1  3436 0001:0003BC03
  3437 0001:0003BC11  3439 0001:0003BC3A  3441 0001:0003BC4A  3443 0001:0003BC5C
  3444 0001:0003BC72  3445 0001:0003BC7A  3449 0001:0003BCB3  3450 0001:0003BCBC
  3452 0001:0003BD07  3454 0001:0003BD0A  3455 0001:0003BD12  3456 0001:0003BD20
  3457 0001:0003BD28  3458 0001:0003BD59  3459 0001:0003BD63  3460 0001:0003BD68
  3461 0001:0003BD73  3462 0001:0003BD7E  3464 0001:0003BD84  3466 0001:0003BDC7
  3468 0001:0003BDD7  3469 0001:0003BDE9  3470 0001:0003BDF9  3471 0001:0003BE05
  3474 0001:0003BE15  3475 0001:0003BE1D  3478 0001:0003BE2F  3479 0001:0003BE39
  3480 0001:0003BE42  3487 0001:0003BE66  3489 0001:0003BEAE  3494 0001:0003C014
  3495 0001:0003C01D  3496 0001:0003C041  3499 0001:0003C048  3500 0001:0003C051
  3501 0001:0003C075

Line numbers for idplay(Misc_Commands.inc) segment .text

     2 0001:0003C07C     3 0001:0003C08B     4 0001:0003C08F     6 0001:0003C09B
     8 0001:0003C0B1    10 0001:0003C0BD    12 0001:0003C0D1    14 0001:0003C0DD
    15 0001:0003C0EA    19 0001:0003C101    20 0001:0003C10E    23 0001:0003C126
    26 0001:0003C188    27 0001:0003C1AB    28 0001:0003C1B5    29 0001:0003C1EC
    30 0001:0003C210    33 0001:0003C244    34 0001:0003C267    35 0001:0003C271
    36 0001:0003C2A8    37 0001:0003C2CC    40 0001:0003C300    41 0001:0003C323
    42 0001:0003C32C    43 0001:0003C33B    44 0001:0003C372    45 0001:0003C396
    48 0001:0003C3CC    49 0001:0003C3EF    50 0001:0003C3F8    51 0001:0003C405
    52 0001:0003C43C    53 0001:0003C460    56 0001:0003C494    57 0001:0003C4B7
    58 0001:0003C4C0    59 0001:0003C4CF    60 0001:0003C506    61 0001:0003C52A
    78 0001:0003C560    79 0001:0003C589    80 0001:0003C58D    82 0001:0003C5C2
    83 0001:0003C5D9    85 0001:0003C628    86 0001:0003C684    94 0001:0003C6D8
    95 0001:0003C704    96 0001:0003C708    98 0001:0003C748    99 0001:0003C750
   100 0001:0003C75F   101 0001:0003C76D   102 0001:0003C786   101 0001:0003C7A1
   103 0001:0003C7A6   104 0001:0003C7B3   106 0001:0003C7D0   107 0001:0003C7E8
   108 0001:0003C827   109 0001:0003C837   110 0001:0003C844   104 0001:0003C847
   112 0001:0003C859   114 0001:0003C869   115 0001:0003C8D0   124 0001:0003C91C
   125 0001:0003C935   126 0001:0003C93C   128 0001:0003C942   129 0001:0003C95C
   130 0001:0003C962   132 0001:0003C99B   140 0001:0003C9FC   141 0001:0003CA2B
   142 0001:0003CA2F   144 0001:0003CA64   145 0001:0003CA73   146 0001:0003CA81
   147 0001:0003CA9E   149 0001:0003CAA8   150 0001:0003CAB0   152 0001:0003CAD1
   153 0001:0003CAEA   154 0001:0003CB01   155 0001:0003CB0E   150 0001:0003CB11
   156 0001:0003CB16   159 0001:0003CB52   161 0001:0003CBA4   163 0001:0003CBE1
   167 0001:0003CC24   168 0001:0003CC4D   169 0001:0003CC51   171 0001:0003CC82
   178 0001:0003CD01   185 0001:0003CD54   186 0001:0003CD80   187 0001:0003CD84
   189 0001:0003CDB9   191 0001:0003CDC7   192 0001:0003CDD2   193 0001:0003CDE8
   196 0001:0003CE5B   198 0001:0003CE85   199 0001:0003CEC4   203 0001:0003CF50
   204 0001:0003CF76   205 0001:0003CF7A   207 0001:0003CFAB   208 0001:0003D01E
   213 0001:0003D05C   214 0001:0003D082   215 0001:0003D086   217 0001:0003D092
   218 0001:0003D09C   219 0001:0003D0AC   223 0001:0003D0DB   224 0001:0003D0E5
   225 0001:0003D0F1   227 0001:0003D11B   228 0001:0003D120   229 0001:0003D139
   232 0001:0003D18C   228 0001:0003D19A   234 0001:0003D19F   236 0001:0003D1A5
   237 0001:0003D1AF   240 0001:0003D1E7   288 0001:0003D230   289 0001:0003D253
   290 0001:0003D257   291 0001:0003D261   292 0001:0003D266   293 0001:0003D27F
   295 0001:0003D2D5   292 0001:0003D2E3   296 0001:0003D2E8   297 0001:0003D2F6
   298 0001:0003D325   301 0001:0003D332   302 0001:0003D362   305 0001:0003D3B0
   306 0001:0003D3BF   307 0001:0003D3C3   309 0001:0003D3CF   310 0001:0003D3DE
   312 0001:0003D3EB   317 0001:0003D41C   318 0001:0003D43F   319 0001:0003D443
   321 0001:0003D468   322 0001:0003D472   323 0001:0003D4AA   324 0001:0003D4B6
   326 0001:0003D4E5   331 0001:0003D550   332 0001:0003D573   333 0001:0003D577
   335 0001:0003D59C   336 0001:0003D5A6   338 0001:0003D5FE   367 0001:0003D630
   368 0001:0003D662   369 0001:0003D666   371 0001:0003D676   373 0001:0003D682
   374 0001:0003D6B9   377 0001:0003D6C8   378 0001:0003D6EE   377 0001:0003D74F
   380 0001:0003D759   382 0001:0003D769   383 0001:0003D79B   384 0001:0003D7C8
   385 0001:0003D7D5   386 0001:0003D7F3   388 0001:0003D821   390 0001:0003D82F
   391 0001:0003D83C   394 0001:0003D889   396 0001:0003D899   386 0001:0003D89C
   398 0001:0003D8A1   400 0001:0003D8EA   407 0001:0003D9DC   408 0001:0003DA05
   409 0001:0003DA09   411 0001:0003DA19   412 0001:0003DA2D   414 0001:0003DA4A
   419 0001:0003DAA7   420 0001:0003DAB1   421 0001:0003DAC6   422 0001:0003DAE4
   423 0001:0003DAF5   424 0001:0003DB0D   426 0001:0003DB27   427 0001:0003DB3F
   430 0001:0003DB87   412 0001:0003DB8A   431 0001:0003DB98   433 0001:0003DBA8
   435 0001:0003DBB4   436 0001:0003DBBE   438 0001:0003DBEB   439 0001:0003DBFE
   440 0001:0003DC09   441 0001:0003DC15   442 0001:0003DC21   443 0001:0003DC2D
   445 0001:0003DC39   446 0001:0003DC43   450 0001:0003DC53   452 0001:0003DC60
   455 0001:0003DC7A   457 0001:0003DCA3   458 0001:0003DCB0   459 0001:0003DCFD
   461 0001:0003DD0D   452 0001:0003DD10   465 0001:0003DD46   475 0001:0003DDB8
   476 0001:0003DDDB   477 0001:0003DDDF   479 0001:0003DE10   480 0001:0003DE19
   481 0001:0003DE70   486 0001:0003DEA0   487 0001:0003DEAF   488 0001:0003DEB3
   489 0001:0003DEBD   490 0001:0003DEC4   489 0001:0003DEDC   491 0001:0003DEE2
   492 0001:0003DEF4

Line numbers for idplay(server_commands.inc) segment .text

     2 0001:0003DF18     3 0001:0003DF27     4 0001:0003DF2B     6 0001:0003DF34
     7 0001:0003DF3E    11 0001:0003DF83    15 0001:0003DF94    16 0001:0003DF9E
    20 0001:0003DFDB    22 0001:0003DFED    25 0001:0003E054    26 0001:0003E077
    27 0001:0003E07B    28 0001:0003E085    29 0001:0003E0CF    32 0001:0003E104
    33 0001:0003E113    34 0001:0003E117    36 0001:0003E120    37 0001:0003E12A
    38 0001:0003E136    42 0001:0003E147    43 0001:0003E151    44 0001:0003E15D
    46 0001:0003E16F    53 0001:0003E1B4    54 0001:0003E1F1    55 0001:0003E1F5
    56 0001:0003E1FF    58 0001:0003E220    59 0001:0003E22E    61 0001:0003E26B
    63 0001:0003E26E    64 0001:0003E27E    67 0001:0003E28D    68 0001:0003E29B
    70 0001:0003E2DB    72 0001:0003E2DE    73 0001:0003E2EE    77 0001:0003E2FD
    78 0001:0003E303    79 0001:0003E30A    80 0001:0003E313    82 0001:0003E31A
    83 0001:0003E320    84 0001:0003E327    85 0001:0003E330    87 0001:0003E337
    88 0001:0003E33F    89 0001:0003E345    90 0001:0003E35D    92 0001:0003E375
    95 0001:0003E38B    96 0001:0003E395    97 0001:0003E3A6   101 0001:0003E3B7
   102 0001:0003E3C6   103 0001:0003E3D6   104 0001:0003E404   105 0001:0003E414
   107 0001:0003E440   108 0001:0003E44C   110 0001:0003E4CF   113 0001:0003E570
   114 0001:0003E57F   115 0001:0003E583   116 0001:0003E592   117 0001:0003E59F
   122 0001:0003E5CC   123 0001:0003E5F2   124 0001:0003E5F6   125 0001:0003E602
   128 0001:0003E60E   129 0001:0003E61B   130 0001:0003E627   132 0001:0003E634
   134 0001:0003E678   137 0001:0003E680   138 0001:0003E6A3   139 0001:0003E6A7
   141 0001:0003E6D7   142 0001:0003E6E1   145 0001:0003E6F2   147 0001:0003E71E
   148 0001:0003E728   151 0001:0003E738   154 0001:0003E778

Line numbers for idplay(self_commands.inc) segment .text

     6 0001:0003E7E0     7 0001:0003E802     8 0001:0003E819    10 0001:0003E81F
    11 0001:0003E825    13 0001:0003E838    16 0001:0003E868    17 0001:0003E8B2
    22 0001:0003E908    23 0001:0003E93A    24 0001:0003E93E    26 0001:0003E94E
    28 0001:0003E96A    29 0001:0003E975    31 0001:0003E987    33 0001:0003E9A8
    35 0001:0003E9C4    36 0001:0003E9CF    38 0001:0003E9E1    40 0001:0003EA02
    42 0001:0003EA22    43 0001:0003EA2F    45 0001:0003EA56    46 0001:0003EA72
    47 0001:0003EA8F    48 0001:0003EA9C    43 0001:0003EA9F    49 0001:0003EAA4
    52 0001:0003EAB1    55 0001:0003EABF    56 0001:0003EAF8    59 0001:0003EBD0
    60 0001:0003EBF9    61 0001:0003EBFD    62 0001:0003EC3D    69 0001:0003EC6C
    72 0001:0003ECA8    73 0001:0003ECB7    74 0001:0003ECBB    75 0001:0003ECCD
    78 0001:0003ED00    79 0001:0003ED0F    80 0001:0003ED28    83 0001:0003ED44
    84 0001:0003ED6F    85 0001:0003ED73    87 0001:0003ED7E    88 0001:0003ED9E
    91 0001:0003EDCF    92 0001:0003EE23    95 0001:0003EE84    96 0001:0003EE93
    97 0001:0003EE97    99 0001:0003EEA3   100 0001:0003EEB2   102 0001:0003EEC1
   106 0001:0003EECD   107 0001:0003EEDC   109 0001:0003EEE9   112 0001:0003EF80
   113 0001:0003EFA3   114 0001:0003EFA7   115 0001:0003EFDE   116 0001:0003F008
   119 0001:0003F038   120 0001:0003F05E   121 0001:0003F062   122 0001:0003F087
   123 0001:0003F096   124 0001:0003F0A5   125 0001:0003F0D9   128 0001:0003F184
   129 0001:0003F193   130 0001:0003F197   132 0001:0003F1A3   133 0001:0003F1AD
   136 0001:0003F1B7   138 0001:0003F1C9   141 0001:0003F1EC   142 0001:0003F1FB
   143 0001:0003F1FF   145 0001:0003F20B   146 0001:0003F21A   148 0001:0003F21C
   150 0001:0003F228   151 0001:0003F232   155 0001:0003F243   156 0001:0003F24D
   158 0001:0003F25F   161 0001:0003F2D4   162 0001:0003F2E3   163 0001:0003F2E7
   165 0001:0003F2F3   166 0001:0003F302   168 0001:0003F304   170 0001:0003F310
   171 0001:0003F31A   175 0001:0003F32B   176 0001:0003F335   178 0001:0003F347
   182 0001:0003F3AC   183 0001:0003F3BB   184 0001:0003F3BF   185 0001:0003F3CC
   186 0001:0003F3D5   187 0001:0003F3DE   189 0001:0003F3F5   190 0001:0003F3FC
   192 0001:0003F403   193 0001:0003F423   194 0001:0003F443   190 0001:0003F446
   195 0001:0003F44C   196 0001:0003F45F   200 0001:0003F46E   201 0001:0003F475
   203 0001:0003F485   209 0001:0003F4E4   210 0001:0003F50D   211 0001:0003F511
   212 0001:0003F520   214 0001:0003F53D   215 0001:0003F56E   216 0001:0003F579
   217 0001:0003F589   219 0001:0003F5EF   212 0001:0003F5F2   221 0001:0003F628
   227 0001:0003F690   228 0001:0003F6B9   229 0001:0003F6BD   231 0001:0003F6CD
   232 0001:0003F6DC   233 0001:0003F6E4   234 0001:0003F701   233 0001:0003F74C
   235 0001:0003F751   238 0001:0003F770   239 0001:0003F7AC   242 0001:0003F82C
   243 0001:0003F83B   244 0001:0003F83F   246 0001:0003F84B   247 0001:0003F85E
   249 0001:0003F870   258 0001:0003F89C   259 0001:0003F8CB   260 0001:0003F8CF
   262 0001:0003F8DF   263 0001:0003F8EB   264 0001:0003F8FA   265 0001:0003F902
   266 0001:0003F93A   267 0001:0003F957   266 0001:0003F98E   268 0001:0003F993
   269 0001:0003F9A4   271 0001:0003F9C9   273 0001:0003F9EA   274 0001:0003F9EE
   275 0001:0003FA05   277 0001:0003FA21   278 0001:0003FA25   279 0001:0003FA27
   274 0001:0003FA2A   280 0001:0003FA2F   282 0001:0003FA35   283 0001:0003FA4F
   284 0001:0003FA7E   286 0001:0003FA89   269 0001:0003FA8C   287 0001:0003FA95
   289 0001:0003FA9B   290 0001:0003FAB5   291 0001:0003FACB   294 0001:0003FB23
   302 0001:0003FB80   303 0001:0003FBAF   304 0001:0003FBB3   306 0001:0003FBC3
   307 0001:0003FBCB   308 0001:0003FBDC   309 0001:0003FC01   310 0001:0003FC1E
   309 0001:0003FC55   311 0001:0003FC5A   313 0001:0003FC7F   314 0001:0003FCA4
   315 0001:0003FCBF   317 0001:0003FCDF   318 0001:0003FD0E   319 0001:0003FD19
   320 0001:0003FD34   319 0001:0003FD6F   321 0001:0003FD74   322 0001:0003FD76
   314 0001:0003FD79   323 0001:0003FD82   311 0001:0003FD85   324 0001:0003FD8E
   326 0001:0003FD94   327 0001:0003FDAE   328 0001:0003FDC4   330 0001:0003FDE1
   331 0001:0003FDED   333 0001:0003FE37   337 0001:0003FE9C   338 0001:0003FEC8
   339 0001:0003FECC   341 0001:0003FED9   342 0001:0003FEE5   344 0001:0003FF02
   346 0001:0003FF0D   347 0001:0003FF3C   348 0001:0003FF7C   349 0001:0003FF8E
   351 0001:0003FFB0   353 0001:0003FFBF   354 0001:0003FFCF   358 0001:00040001
   360 0001:0004000E   361 0001:0004001A   363 0001:00040037   365 0001:00040042
   366 0001:0004005F   367 0001:0004009F   369 0001:000400A8   370 0001:000400C4
   373 0001:000400CC   375 0001:000400D5   376 0001:000400DC   377 0001:000400E7
   380 0001:0004012C   414 0001:000401C0   415 0001:000401E3   416 0001:000401E7
   418 0001:000401FC   419 0001:00040205   421 0001:00040216   423 0001:00040227
   425 0001:00040243   427 0001:00040249   428 0001:00040250   432 0001:00040261
   433 0001:00040268   437 0001:00040279   438 0001:000402A6   441 0001:00040378
   442 0001:00040387   443 0001:0004038B   445 0001:00040392   446 0001:000403A4
   449 0001:000403C4   450 0001:000403D3   451 0001:000403D7   453 0001:000403E3
   454 0001:000403ED   458 0001:000403FE   459 0001:00040408   461 0001:0004041A
   464 0001:00040468   465 0001:00040477   466 0001:0004047B   468 0001:00040484
   469 0001:0004048B   473 0001:0004049C   474 0001:000404A3   476 0001:000404B5
   482 0001:0004050C   483 0001:00040535   484 0001:00040539   485 0001:00040546
   486 0001:00040553   488 0001:0004056F   489 0001:00040587   490 0001:000405A2
   491 0001:000405C8   489 0001:000405E4   493 0001:00040616   498 0001:00040620
   499 0001:00040646   500 0001:0004064A   501 0001:00040656   503 0001:00040665
   505 0001:00040672   506 0001:0004067E   508 0001:0004068B   509 0001:000406CF
   512 0001:000406EC   513 0001:000406FB   514 0001:000406FF   515 0001:00040716
   518 0001:0004071C   519 0001:0004072B   520 0001:0004072F   522 0001:00040738
   523 0001:0004073F   527 0001:00040750   528 0001:00040757   530 0001:00040769
   533 0001:000407A8   534 0001:000407CE   535 0001:000407D2   536 0001:000407DC
   537 0001:000407EA   538 0001:000407F3   540 0001:00040822   541 0001:00040874
   546 0001:000408BC   547 0001:000408E8   548 0001:000408EC   549 0001:0004090D
   550 0001:00040917   551 0001:0004091C   552 0001:00040927   553 0001:0004094D
   554 0001:00040973   555 0001:000409BE

Line numbers for idplay(idplay.pas) segment .text

  3512 0001:000409FC  3513 0001:00040A08  3514 0001:00040A10  3538 0001:00040A17
  3541 0001:00040A1C  3543 0001:00040A38  3545 0001:00040A4B  3547 0001:00040A78
  3548 0001:00040A87  3549 0001:00040A96  3550 0001:00040AA5  3551 0001:00040AB4
  3552 0001:00040AC3  3553 0001:00040AEF  3560 0001:00040CA8  3561 0001:00040CB1
  3562 0001:00040CB6  3563 0001:00040CBD  3564 0001:00040CD8  3566 0001:00040CEE
  3567 0001:00040D02  3568 0001:00040D08  3563 0001:00040D0B  3569 0001:00040D10
  3570 0001:00040D19  3575 0001:00040D20  3576 0001:00040D2C  3577 0001:00040D37
  3578 0001:00040D3F  3590 0001:00040D44  3591 0001:00040D4A  3592 0001:00040D51
  3594 0001:00040D57  3595 0001:00040D66  3596 0001:00040D6D  3598 0001:00040D83
  3600 0001:00040D8E  3601 0001:00040DA3  3602 0001:00040DA9  3603 0001:00040DB2
  3607 0001:00040DBA  3617 0001:00040DC0  3618 0001:00040DC9  3619 0001:00040DD2
  3620 0001:00040DEC  3621 0001:00040DF8  3624 0001:00040DFC  3625 0001:00040E06
  3626 0001:00040E29  3631 0001:00040E30  3632 0001:00040E4C  3633 0001:00040E5A
  3634 0001:00040E64  3635 0001:00040E72  3638 0001:00040EA8  3639 0001:00040EBA
  3640 0001:00040ED1  3642 0001:00040ED7  3645 0001:00040EE1  3646 0001:00040EEA
  3649 0001:00040F24  3652 0001:00040F52  3654 0001:00040F55  3657 0001:00040F9A
  3662 0001:00040FE4  3663 0001:00040FED  3664 0001:00040FFB  3665 0001:00041005
  3671 0001:00041013  3672 0001:0004101B  3674 0001:00041037  3677 0001:00041065
  3679 0001:00041068  3682 0001:0004108B  3687 0001:00041094  3688 0001:000410B8
  3689 0001:000410C2  3690 0001:000410D0  3691 0001:000410E4  3695 0001:000410F2
  3697 0001:000410FB  3698 0001:0004110C  3699 0001:0004111B  3701 0001:00041124
  3702 0001:00041130  3703 0001:00041140  3704 0001:0004114C  3706 0001:0004115C
  3708 0001:00041167  3709 0001:00041179  3710 0001:00041180  3711 0001:00041189
  3712 0001:00041192  3714 0001:000411A4  3715 0001:000411AC  3716 0001:000411BF
  3718 0001:000411C6  3721 0001:000411CE  3723 0001:000411D5  3724 0001:000411DF
  3726 0001:000411FE  3727 0001:0004121B  3728 0001:00041238  3729 0001:00041252
  3731 0001:0004126C  3732 0001:00041276  3733 0001:00041290  3734 0001:000412AA
  3735 0001:000412C4  3736 0001:000412E0  3737 0001:000412FA  3738 0001:0004132B
  3741 0001:0004135C  3742 0001:0004137A  3744 0001:0004139A  3745 0001:000413A7
  3746 0001:000413B5  3748 0001:000413BF  3749 0001:000413CA  3751 0001:0004140E
  3753 0001:0004141B  3755 0001:00041441  3756 0001:00041444  3758 0001:00041454
  3760 0001:00041461  3761 0001:00041477  3763 0001:00041484  3764 0001:000414A5
  3765 0001:000414B3  3767 0001:000414D9  3768 0001:000414DC  3770 0001:000414EC
  3771 0001:000414F5  3775 0001:0004150E  3776 0001:00041518  3777 0001:00041522
  3778 0001:0004152C  3780 0001:00041533  3781 0001:0004153C  3783 0001:00041545
  3785 0001:0004154F  3786 0001:00041559  3788 0001:00041563  3789 0001:0004156A
  3790 0001:00041575  3792 0001:00041582  3793 0001:00041587  3795 0001:0004158C
  3796 0001:00041596  3797 0001:0004159D  3799 0001:000415A8  3800 0001:000415B3
  3801 0001:000415BD  3802 0001:000415CE  3804 0001:000415D7  3805 0001:000415E2
  3806 0001:000415ED  3808 0001:000415F5  3810 0001:00041602  3813 0001:00041609
  3814 0001:00041617  3815 0001:00041625  3817 0001:00041630  3819 0001:00041651
  3822 0001:0004166E  3824 0001:000416A3  3831 0001:00041820  3832 0001:00041843
  3833 0001:0004184D  3834 0001:0004185B  3836 0001:00041864  3837 0001:00041878
  3839 0001:00041882  3841 0001:0004188C  3842 0001:000418A6  3843 0001:000418BA
  3846 0001:000418C4  3847 0001:000418DA  3848 0001:000418E4  3849 0001:000418EE
  3851 0001:000418FC  3852 0001:00041910  3853 0001:0004191E  3855 0001:00041945
  3859 0001:00041955  3861 0001:0004195E  3862 0001:00041972  3864 0001:0004197C
  3866 0001:00041986  3867 0001:0004199A  3870 0001:000419A4  3872 0001:000419CB
  3874 0001:000419EC  3875 0001:00041A01  3876 0001:00041A0F  3877 0001:00041A3D
  3878 0001:00041A4A  3879 0001:00041A63  3878 0001:00041A7F  3880 0001:00041A84
  3881 0001:00041AA2  3882 0001:00041ACC  3883 0001:00041AFB  3886 0001:00041B08
  3888 0001:00041B23  3890 0001:00041B33  3893 0001:00041B3E  3895 0001:00041B48
  3896 0001:00041B51  3906 0001:00041B7B  3908 0001:00041B7E  3912 0001:00041BA4
  3913 0001:00041BAB  3915 0001:00041BE0  3918 0001:00041D10  3919 0001:00041D41
  3920 0001:00041D4B  3927 0001:00041D5D  3928 0001:00041D6B  3931 0001:00041D88
  3933 0001:00041D98  3934 0001:00041DB2  3935 0001:00041DCC  3936 0001:00041DE1

Line numbers for idplay(AddCommands.inc) segment .text

    18 0001:00041E0E    22 0001:00041E41    29 0001:00041E74    33 0001:00041EA7
    36 0001:00041EDA    39 0001:00041F0D    42 0001:00041F40    45 0001:00041F73
    48 0001:00041FA6    51 0001:00041FD9    54 0001:0004200C    57 0001:0004203F
    60 0001:00042072    63 0001:000420A8    66 0001:000420DE    69 0001:00042111
    72 0001:00042144    75 0001:00042177    78 0001:000421AA    82 0001:000421DD
    86 0001:00042210    89 0001:00042228    95 0001:0004225B    98 0001:0004228E
   101 0001:000422C1   104 0001:000422F4   109 0001:00042327   112 0001:0004235D
   115 0001:00042390   120 0001:000423C6   126 0001:000423F9   134 0001:0004242F
   137 0001:00042462   141 0001:00042495   145 0001:000424C8   148 0001:000424FB
   153 0001:0004252E   156 0001:00042561   159 0001:00042594   162 0001:000425C7
   165 0001:000425FA   169 0001:00042630   172 0001:00042666   175 0001:0004269C
   178 0001:000426CF   182 0001:00042702   186 0001:00042735   189 0001:00042768
   192 0001:0004279B   196 0001:000427D1   199 0001:00042804   200 0001:0004281C
   204 0001:0004284F   213 0001:00042882   216 0001:000428B8   219 0001:000428EE
   222 0001:00042924   226 0001:0004295A   230 0001:00042990   233 0001:000429C3
   237 0001:000429F9

Line numbers for idplay(idplay.pas) segment .text

  3943 0001:00042A2F  3945 0001:00042A37  3946 0001:00042A77  3949 0001:00045088
  3950 0001:00045099  3951 0001:000450A9  3953 0001:000450B9  3954 0001:000450C0
  3955 0001:000450CA  3956 0001:000450D5  3965 0001:000450DD  3966 0001:000450E9
  3967 0001:000450F6  3968 0001:00045101  3969 0001:0004510C  3970 0001:00045119
  3971 0001:00045126  3972 0001:00045130  3973 0001:00045135  3974 0001:00045140
  3975 0001:0004515C  3977 0001:0004519C  3977 0001:000451A3

Line numbers for ModsList(ModsList.pas) segment .text

    18 0001:000451A4    19 0001:000451C4    21 0001:000451D6    22 0001:000451FD
    23 0001:0004520B    24 0001:00045219    26 0001:00045227    27 0001:00045236
    28 0001:0004525E    29 0001:00045269    30 0001:00045292    31 0001:0004529D
    32 0001:000452C6    33 0001:000452D1    35 0001:000452FA    36 0001:00045328
    39 0001:0004535E    40 0001:00045362    43 0001:00045381    47 0001:0004538C
    49 0001:000453BD    55 0001:0004544C    56 0001:00045475    57 0001:00045482
    59 0001:00045494    60 0001:000454BB    62 0001:000454C9    64 0001:000454D3
    65 0001:000454E2    68 0001:00045515    71 0001:00045557    73 0001:000455B8
    73 0001:000455BF

Line numbers for StrUtils(StrUtils.pas) segment .text

   411 0001:000455C0   412 0001:000455E6   413 0001:00045632   715 0001:00045668
   715 0001:0004566F

Line numbers for IniOptions(plugins\IniOptions.pas) segment .text

   127 0001:00045980   128 0001:000459B3   129 0001:000459B7   130 0001:000459BF
   132 0001:000459CF   133 0001:000459ED   134 0001:00045A0C   135 0001:00045A31
   137 0001:00045A4B   138 0001:00045A59   141 0001:00045A8A   150 0001:00045A90
   151 0001:00045AAD   153 0001:00045ABA   154 0001:00045AC7   155 0001:00045AD5
   156 0001:00045AE7   157 0001:00045AF2   158 0001:00045B08   160 0001:00045B17
   161 0001:00045B26   164 0001:00045B43   165 0001:00045B5B   167 0001:00045B6A
   168 0001:00045B79   171 0001:00045B8E   172 0001:00045BBE   179 0001:00045BE8
   180 0001:00045C1E   181 0001:00045C24   183 0001:00045C38   184 0001:00045C4D
   186 0001:00045C58   187 0001:00045C69   188 0001:00045C6D   189 0001:00045C7E
   192 0001:00045C84   193 0001:00045CAD   196 0001:00045CDF   201 0001:00045D34
   202 0001:00045D72   203 0001:00045D78   205 0001:00045D90   206 0001:00045DA5
   208 0001:00045DB4   209 0001:00045DC2   210 0001:00045DD3   211 0001:00045DFD
   212 0001:00045E08   214 0001:00045E22   215 0001:00045E4B   218 0001:00045E59
   220 0001:00045E91   225 0001:00045ED4   226 0001:00045F17   227 0001:00045F22
   229 0001:00045F3A   230 0001:00045F4F   232 0001:00045F5E   233 0001:00045F6C
   234 0001:00045F7D   235 0001:00045FA7   236 0001:00045FB2   238 0001:00045FCC
   239 0001:00045FF5   242 0001:00046003   244 0001:00046038   298 0001:0004607C
   299 0001:0004609A   301 0001:0004609E   302 0001:000460A8   303 0001:000460B2
   304 0001:000460B9   306 0001:000460C3   308 0001:000460DE   309 0001:000460F8
   310 0001:00046106   311 0001:00046121   312 0001:00046148   313 0001:0004616F
   315 0001:00046196   317 0001:000461BD   319 0001:000461E4   320 0001:00046202
   321 0001:00046220   322 0001:00046239   324 0001:0004624E   326 0001:00046269
   327 0001:00046290   328 0001:00046299   330 0001:000462B3   331 0001:000462DA
   332 0001:000462E3   334 0001:000462FD   335 0001:00046318   336 0001:00046333
   337 0001:0004634E   339 0001:00046369   341 0001:00046384   343 0001:00046399
   344 0001:000463A0   346 0001:000463A5   347 0001:000463B5   348 0001:000463F1
   344 0001:000463F4   349 0001:000463FA   350 0001:00046414   352 0001:00046420
   355 0001:00046427   356 0001:00046442   357 0001:0004645D   358 0001:00046481
   359 0001:000464A5   360 0001:000464C9   361 0001:000464ED   362 0001:00046511
   363 0001:0004652C   364 0001:00046547   365 0001:00046562   366 0001:0004657D
   367 0001:00046598   368 0001:000465B3   370 0001:000465CE   372 0001:000465E9
   373 0001:00046610   375 0001:0004662B   377 0001:00046653   378 0001:00046657
   381 0001:00046667   383 0001:00046674   384 0001:0004667D   385 0001:00046690
   387 0001:000466AC   390 0001:000466B5   392 0001:000466C4   393 0001:000466CD
   394 0001:000466E0   395 0001:000466FA   396 0001:00046703   397 0001:00046716
   399 0001:00046732   401 0001:00046743   403 0001:00046782   407 0001:00046B8C
   411 0001:00046B90   414 0001:00046B94   415 0001:00046B98   417 0001:00046BAA
   422 0001:00046BD2   425 0001:00046BDE   426 0001:00046BE6   428 0001:00046C54
   428 0001:00046C5B

Line numbers for ExplodeBitmaps(plugins\ExplodeBitmaps.pas) segment .text

    53 0001:00046D88    57 0001:00046D8C    60 0001:00046D90    61 0001:00046D94
    63 0001:00046DA6    69 0001:00046DD0    74 0001:00046DF1    79 0001:00046E12
    81 0001:00046E1C    82 0001:00046E24   102 0001:00046E7C   103 0001:00046E7F
   104 0001:00046E80   105 0001:00046E86   106 0001:00046E87   107 0001:00046E88
   108 0001:00046E8E   109 0001:00046E94   111 0001:00046E96   112 0001:00046E9C
   113 0001:00046E9D   114 0001:00046E9E   115 0001:00046EA1   116 0001:00046EA7
   117 0001:00046EAD   118 0001:00046EB0   119 0001:00046EB6   120 0001:00046EB7
   121 0001:00046EB8   122 0001:00046EBB   123 0001:00046EC1   124 0001:00046EC7
   126 0001:00046ECA   127 0001:00046ED0   128 0001:00046ED1   129 0001:00046ED2
   130 0001:00046ED5   131 0001:00046EDB   132 0001:00046EE1   134 0001:00046EE4
   135 0001:00046EEA   136 0001:00046EEB   137 0001:00046EEC   138 0001:00046EEF
   139 0001:00046EF5   140 0001:00046EFB   142 0001:00046EFE   143 0001:00046F04
   144 0001:00046F05   145 0001:00046F06   146 0001:00046F09   147 0001:00046F0F
   148 0001:00046F15   150 0001:00046F18   151 0001:00046F1E   152 0001:00046F1F
   153 0001:00046F20   154 0001:00046F23   155 0001:00046F29   156 0001:00046F2F
   158 0001:00046F32   159 0001:00046F38   160 0001:00046F39   161 0001:00046F3A
   162 0001:00046F3D   163 0001:00046F43   164 0001:00046F49   166 0001:00046F4C
   167 0001:00046F52   168 0001:00046F53   169 0001:00046F54   170 0001:00046F57
   171 0001:00046F5D   172 0001:00046F63   174 0001:00046F66   175 0001:00046F6C
   176 0001:00046F6D   177 0001:00046F6E   178 0001:00046F71   179 0001:00046F77
   180 0001:00046F7D   182 0001:00046F80   183 0001:00046F86   184 0001:00046F87
   185 0001:00046F88   186 0001:00046F8B   187 0001:00046F91   188 0001:00046F97
   190 0001:00046F9A   191 0001:00046FA0   192 0001:00046FA1   193 0001:00046FA2
   194 0001:00046FA5   195 0001:00046FAB   196 0001:00046FB1   198 0001:00046FB4
   199 0001:00046FBA   200 0001:00046FBB   201 0001:00046FBC   202 0001:00046FBF
   203 0001:00046FC5   204 0001:00046FCB   206 0001:00046FCE   207 0001:00046FD4
   208 0001:00046FD5   209 0001:00046FD6   210 0001:00046FD9   211 0001:00046FDF
   212 0001:00046FE5   214 0001:00046FE8   215 0001:00046FEE   216 0001:00046FEF
   217 0001:00046FF0   218 0001:00046FF3   219 0001:00046FF9   220 0001:00046FFF
   221 0001:00047002   222 0001:00047005   224 0001:00047006   225 0001:0004700C
   226 0001:00047011   227 0001:00047016   256 0001:00047018   259 0001:0004701C
   260 0001:0004701F   261 0001:00047025   262 0001:00047028   263 0001:0004702A
   264 0001:00047030   265 0001:00047032   266 0001:00047034   267 0001:00047038
   268 0001:0004703E   269 0001:0004703F   270 0001:00047040   272 0001:00047046
   273 0001:00047049   274 0001:0004704B   275 0001:00047051   276 0001:00047053
   277 0001:00047055   278 0001:00047059   279 0001:0004705F   280 0001:00047060
   281 0001:00047061   283 0001:00047067   284 0001:0004706A   285 0001:0004706C
   286 0001:00047072   287 0001:00047074   288 0001:00047076   289 0001:0004707A
   290 0001:00047080   291 0001:00047081   292 0001:00047082   294 0001:00047088
   295 0001:0004708B   296 0001:0004708D   297 0001:00047093   298 0001:00047095
   299 0001:00047097   300 0001:0004709B   301 0001:000470A1   302 0001:000470A2
   303 0001:000470A3   305 0001:000470A9   306 0001:000470AC   307 0001:000470AE
   308 0001:000470B4   309 0001:000470B6   310 0001:000470B8   311 0001:000470BC
   312 0001:000470C2   313 0001:000470C3   314 0001:000470C4   316 0001:000470CA
   317 0001:000470CD   318 0001:000470D3   319 0001:000470D9   320 0001:000470DB
   321 0001:000470DD   322 0001:000470E1   323 0001:000470E7   324 0001:000470E8
   325 0001:000470E9   326 0001:000470EF   328 0001:000470F4   329 0001:000470F7
   330 0001:000470F9   331 0001:000470FB   332 0001:000470FD   333 0001:00047101
   334 0001:00047107   335 0001:00047109   336 0001:0004710A   337 0001:0004710B
   339 0001:00047111   340 0001:00047114   341 0001:00047116   342 0001:00047118
   343 0001:0004711A   344 0001:0004711E   345 0001:00047124   346 0001:00047127
   347 0001:00047128   348 0001:00047129   350 0001:0004712F   351 0001:00047132
   352 0001:00047134   353 0001:00047136   354 0001:00047138   355 0001:0004713C
   356 0001:00047142   357 0001:00047145   358 0001:00047146   359 0001:00047147
   361 0001:0004714D   362 0001:00047150   363 0001:00047152   364 0001:00047154
   365 0001:00047156   366 0001:0004715A   367 0001:00047160   368 0001:00047163
   369 0001:00047164   370 0001:00047165   372 0001:0004716B   373 0001:0004716E
   374 0001:00047170   375 0001:00047172   376 0001:00047174   377 0001:00047178
   378 0001:0004717E   379 0001:00047181   380 0001:00047182   381 0001:00047183
   383 0001:00047189   384 0001:0004718C   385 0001:0004718E   386 0001:00047190
   387 0001:00047192   388 0001:00047196   389 0001:0004719C   390 0001:0004719F
   391 0001:000471A0   392 0001:000471A1   394 0001:000471A7   395 0001:000471AA
   396 0001:000471AC   397 0001:000471AE   398 0001:000471B0   399 0001:000471B4
   400 0001:000471BA   401 0001:000471BD   402 0001:000471BE   403 0001:000471BF
   405 0001:000471C5   406 0001:000471C8   407 0001:000471CA   408 0001:000471CC
   409 0001:000471CE   410 0001:000471D2   411 0001:000471D8   412 0001:000471DB
   413 0001:000471DC   414 0001:000471DD   416 0001:000471E3   417 0001:000471E6
   418 0001:000471E8   419 0001:000471EA   420 0001:000471EC   421 0001:000471F0
   422 0001:000471F6   423 0001:000471F9   424 0001:000471FA   425 0001:000471FB
   427 0001:00047201   428 0001:00047204   429 0001:00047206   430 0001:00047208
   431 0001:0004720A   432 0001:0004720E   433 0001:00047214   434 0001:00047217
   435 0001:00047218   436 0001:00047219   438 0001:0004721F   439 0001:00047222
   440 0001:00047224   441 0001:00047226   442 0001:00047228   443 0001:0004722C
   444 0001:00047232   445 0001:00047235   446 0001:00047236   447 0001:00047237
   449 0001:0004723D   450 0001:00047240   451 0001:00047242   452 0001:00047244
   453 0001:00047246   454 0001:0004724A   455 0001:00047250   456 0001:00047253
   457 0001:00047254   458 0001:00047255   460 0001:0004725B   461 0001:0004725E
   462 0001:00047260   463 0001:00047262   464 0001:00047264   465 0001:00047268
   466 0001:0004726E   467 0001:00047271   468 0001:00047272   469 0001:00047273
   471 0001:00047279   472 0001:0004727C   473 0001:0004727E   474 0001:00047280
   475 0001:00047282   476 0001:00047286   477 0001:0004728C   478 0001:0004728F
   479 0001:00047290   480 0001:00047291   482 0001:00047297   483 0001:0004729A
   484 0001:0004729C   485 0001:0004729E   486 0001:000472A0   487 0001:000472A4
   488 0001:000472AA   489 0001:000472AD   490 0001:000472AE   491 0001:000472AF
   493 0001:000472B5   494 0001:000472BA   495 0001:000472BF   497 0001:0004738C
   497 0001:00047393

Line numbers for TA_MemoryLocations(TAMem\TA_MemoryLocations.pas) segment .text

   245 0001:000474E8   246 0001:000474EC   247 0001:000474FC   265 0001:00047500
   266 0001:00047518   269 0001:000475CE   270 0001:00047624   271 0001:00047630
   273 0001:00047639   274 0001:00047647   275 0001:00047668   276 0001:00047671
   278 0001:00047693   279 0001:00047696   281 0001:000476A2   283 0001:000476A9
   284 0001:000476B4   287 0001:000476BC   288 0001:000476C5   289 0001:000476DB
   292 0001:000476E0   293 0001:000476E9   294 0001:00047708   297 0001:0004770C
   298 0001:00047715   299 0001:00047738   302 0001:0004773C   303 0001:00047745
   304 0001:00047765   307 0001:0004776C   308 0001:00047775   309 0001:0004778E
   312 0001:00047794   313 0001:0004779D   314 0001:000477B6   317 0001:000477BC
   318 0001:000477C5   319 0001:000477DD   322 0001:000477E4   323 0001:000477ED
   324 0001:00047803   332 0001:00047808   333 0001:00047811   334 0001:0004781E
   343 0001:00047824   344 0001:0004782D   345 0001:00047842   353 0001:00047848
   354 0001:00047851   355 0001:0004785F   357 0001:00047873   358 0001:00047885
   366 0001:0004788C   367 0001:00047895   368 0001:000478AB   371 0001:000478B0
   372 0001:000478B9   373 0001:000478CF   376 0001:000478D4   377 0001:000478DD
   378 0001:000478F6   381 0001:000478FC   382 0001:00047909   383 0001:0004791E
   391 0001:00047924   392 0001:00047930   393 0001:0004794B   401 0001:00047950
   402 0001:0004795D   403 0001:00047987   409 0001:0004798C   410 0001:00047998
   411 0001:0004799D   413 0001:000479A3   414 0001:000479B9   416 0001:000479CB
   417 0001:000479E8   419 0001:000479EE   421 0001:00047A06   422 0001:00047A0C
   425 0001:00047A0E   414 0001:00047A11   426 0001:00047A19   429 0001:00047A20
   430 0001:00047A2C   431 0001:00047A3A   434 0001:00047A40   435 0001:00047A4D
   436 0001:00047A6D   439 0001:00047A74   440 0001:00047A80   441 0001:00047A8E
   443 0001:00047AC1   444 0001:00047AE8   447 0001:00047AEC   448 0001:00047AF9
   449 0001:00047B29   452 0001:00047B30   453 0001:00047B39   454 0001:00047B47
   456 0001:00047B63   457 0001:00047B80   460 0001:00047B84   461 0001:00047B93
   462 0001:00047B99   464 0001:00047BAC   465 0001:00047BC0   472 0001:00047BC4
   473 0001:00047BCD   474 0001:00047BE3   482 0001:00047BE8   483 0001:00047BF1
   484 0001:00047C0E   492 0001:00047C14   493 0001:00047C1D   494 0001:00047C42
   497 0001:00047C48   498 0001:00047C54   499 0001:00047C5A   501 0001:00047C7B
   502 0001:00047CA0   510 0001:00047CA4   511 0001:00047CB0   512 0001:00047CB5
   513 0001:00047CBB   515 0001:00047CEC   540 0001:00047CF0   541 0001:00047CFC
   542 0001:00047D03   543 0001:00047D13   544 0001:00047D18   546 0001:00047D1E
   548 0001:00047D28   549 0001:00047D41   551 0001:00047D43   552 0001:00047D55
   544 0001:00047D60   554 0001:00047D69   557 0001:00047D70   558 0001:00047D7C
   559 0001:00047D88   562 0001:00047D8C   563 0001:00047D98   564 0001:00047D9C
   565 0001:00047DA2   566 0001:00047DBF   582 0001:00047DC4   583 0001:00047DD0
   584 0001:00047DE6   592 0001:00047DEC   593 0001:00047DFB   594 0001:00047DFF
   595 0001:00047E0B   596 0001:00047E2A   609 0001:00047E30   610 0001:00047E3C
   611 0001:00047E4E   619 0001:00047E54   620 0001:00047E60   621 0001:00047E72
   628 0001:00047E78   629 0001:00047E87   630 0001:00047E93   633 0001:00047EA8
   634 0001:00047EC2   635 0001:00047EDC   636 0001:00047EF4   640 0001:00047F29
   641 0001:00047F3E   644 0001:00047F62   646 0001:00047F92   647 0001:00047FA7
   660 0001:00047FB0   661 0001:00047FBC   662 0001:00047FCA   663 0001:00047FD8
   665 0001:00047FE1   666 0001:00047FE9   669 0001:00047FF0   670 0001:00048000
   671 0001:00048007   673 0001:00048016   674 0001:00048023   677 0001:00048028
   678 0001:00048034   679 0001:00048043   682 0001:00048048   683 0001:00048059
   684 0001:00048064   685 0001:000480D0   686 0001:000480FB   689 0001:00048100
   690 0001:0004810C   691 0001:0004811B   694 0001:00048120   695 0001:00048131
   696 0001:0004813C   697 0001:000481A8   698 0001:000481D3   701 0001:000481D8
   702 0001:000481E4   703 0001:000481F3   706 0001:000481F8   707 0001:00048208
   708 0001:00048213   711 0001:00048218   712 0001:00048224   713 0001:00048233
   716 0001:00048238   717 0001:00048248   718 0001:00048253   721 0001:00048258
   722 0001:00048264   723 0001:00048273   726 0001:00048278   727 0001:00048288
   728 0001:00048293   731 0001:00048298   732 0001:000482A4   733 0001:000482B3
   736 0001:000482B8   737 0001:000482C8   738 0001:000482D3   749 0001:000482D8
   750 0001:000482E7   751 0001:000482EB   754 0001:000482F7   755 0001:000482FD
   756 0001:00048303   757 0001:00048317   758 0001:00048323   760 0001:0004832A
   765 0001:00048330   766 0001:0004833F   767 0001:00048344   769 0001:0004834A
   770 0001:0004835A   771 0001:00048365   772 0001:00048370   773 0001:0004837B
   775 0001:00048380   776 0001:00048386   777 0001:00048394   779 0001:000483A3
   781 0001:000483B2   786 0001:000483B8   787 0001:000483C7   788 0001:000483CB
   790 0001:000483D1   791 0001:000483E1   792 0001:000483F1   793 0001:000483FC
   794 0001:00048407   796 0001:00048410   798 0001:00048417   801 0001:00048420
   802 0001:0004842C   803 0001:00048431   804 0001:0004843D   805 0001:00048459
   808 0001:00048460   809 0001:0004846C   810 0001:00048471   811 0001:0004847D
   812 0001:0004848C   815 0001:00048490   816 0001:0004849C   817 0001:000484A1
   818 0001:000484AD   819 0001:000484BC   822 0001:000484C0   823 0001:000484CC
   824 0001:000484DB   835 0001:0004850C   836 0001:0004852F   837 0001:00048534
   839 0001:00048539   840 0001:00048567   842 0001:0004858B   843 0001:000485BA
   840 0001:000485BE   845 0001:000485C4   846 0001:000485D4   848 0001:000485DA
   849 0001:0004860C   851 0001:00048611   853 0001:0004861B   855 0001:00048625
   856 0001:00048631   858 0001:0004863B   860 0001:00048663   862 0001:00048688
   863 0001:00048693   864 0001:000486D5   863 0001:00048713   865 0001:00048719
   866 0001:0004873D   868 0001:0004873F   858 0001:00048743   871 0001:0004874D
   851 0001:0004875D   874 0001:00048767   875 0001:00048772   877 0001:00048782
   879 0001:0004879F   880 0001:000487C2   882 0001:000487CC   883 0001:000487E7
   884 0001:00048817   886 0001:00048832   877 0001:00048836   887 0001:00048842
   889 0001:00048863   890 0001:0004886E   891 0001:000488B3   894 0001:000488BC
   895 0001:000488CB   897 0001:000488D1   898 0001:000488DD   899 0001:000488F0
   900 0001:000488F6   902 0001:00048925   904 0001:00048938   910 0001:00048940
   911 0001:0004894F   913 0001:00048954   914 0001:00048961   916 0001:00048972
   917 0001:00048982   919 0001:00048994   921 0001:000489A2   922 0001:000489A8
   925 0001:000489AA   914 0001:000489AD   926 0001:000489B5   932 0001:000489BC
   933 0001:000489C8   934 0001:000489CD   935 0001:000489DD   937 0001:000489E3
   939 0001:000489F5   942 0001:00048A35   935 0001:00048A45   944 0001:00048A4B
   945 0001:00048A54   951 0001:00048A58   952 0001:00048A64   953 0001:00048A69
   954 0001:00048A79   956 0001:00048A7F   958 0001:00048A91   960 0001:00048A9C
   954 0001:00048AAC   962 0001:00048AB2   963 0001:00048ABB   966 0001:00048AC0
   967 0001:00048ACC   968 0001:00048AD9   969 0001:00048AF8   972 0001:00048AFC
   973 0001:00048B0B   974 0001:00048B20   977 0001:00048B28   978 0001:00048B3E
   979 0001:00048B62   985 0001:00048B6C   986 0001:00048B7C   987 0001:00048B81
   989 0001:00048B98   990 0001:00048B9E   992 0001:00048BA7   994 0001:00048BB9
   995 0001:00048BBF   997 0001:00048BC8   999 0001:00048BDA  1000 0001:00048C2A
  1001 0001:00048C65  1002 0001:00048CA0  1003 0001:00048CDB  1004 0001:00048D16
  1005 0001:00048D4E  1006 0001:00048D86  1008 0001:00048DC9  1019 0001:00048DD0
  1020 0001:00048DDF  1021 0001:00048DE4  1022 0001:00048DEB  1023 0001:00048DF1
  1024 0001:00048E02  1025 0001:00048E0D  1026 0001:00048E18  1027 0001:00048E23
  1030 0001:00048E28  1032 0001:00048E3C  1033 0001:00048E48  1035 0001:00048E56
  1038 0001:00048E5D  1040 0001:00048E6B  1043 0001:00048E74  1045 0001:00048E8E
  1048 0001:00048E97  1049 0001:00048E9B  1050 0001:00048EA6  1055 0001:00048EAD
  1057 0001:00048EB7  1059 0001:00048EC4  1062 0001:00048ED5  1063 0001:00048EDE
  1067 0001:00048EE9  1068 0001:00048EF2  1072 0001:00048EFD  1073 0001:00048F06
  1076 0001:00048F11  1077 0001:00048F16  1080 0001:00048F1B  1081 0001:00048F21
  1082 0001:00048F27  1084 0001:00048F3E  1086 0001:00048F55  1087 0001:00048F6A
  1088 0001:00048F94  1089 0001:00048FBB  1090 0001:00048FE2  1092 0001:00049007
  1096 0001:00049010  1101 0001:00049018  1102 0001:00049022  1103 0001:00049027
  1104 0001:00049033  1105 0001:00049058  1106 0001:0004906B  1111 0001:00049070
  1112 0001:0004907C  1113 0001:00049081  1115 0001:00049087  1116 0001:00049097
  1118 0001:000490A5  1123 0001:000490AC  1125 0001:000490C2  1126 0001:000490D0
  1127 0001:000490E0  1129 0001:0004911F  1130 0001:0004912D  1133 0001:00049179
  1135 0001:00049188  1154 0001:00049190  1155 0001:0004919C  1156 0001:000491A1
  1158 0001:000491A9  1160 0001:000491B7  1163 0001:000491BC  1164 0001:000491CB
  1165 0001:000491D3  1166 0001:000491DE  1175 0001:000491E4  1176 0001:000491F3
  1177 0001:000491F7  1178 0001:000491FD  1180 0001:0004920F  1181 0001:00049217
  1182 0001:0004921F  1183 0001:0004922B  1185 0001:00049247  1186 0001:00049260
  1188 0001:0004927F  1191 0001:00049288  1192 0001:00049297  1193 0001:000492AE
  1198 0001:000492B4  1199 0001:000492C4  1201 0001:000492DD  1202 0001:000492F8
  1214 0001:00049300  1215 0001:0004931A  1224 0001:0004937E  1226 0001:00049384
  1227 0001:0004938A  1229 0001:00049390  1230 0001:0004939E  1232 0001:000493A4
  1233 0001:000493B1  1236 0001:000493C1  1238 0001:000493C7  1241 0001:000493E7
  1244 0001:000493F0  1245 0001:000493FC  1246 0001:00049410  1248 0001:00049417
  1249 0001:00049440  1274 0001:00049450  1275 0001:0004945F  1277 0001:00049469
  1278 0001:00049496  1279 0001:000494B0  1280 0001:000494C1  1281 0001:000494D2
  1282 0001:000494EC  1283 0001:00049507  1285 0001:00049514  1286 0001:00049520
  1288 0001:00049538  1295 0001:0004953C  1296 0001:0004954B  1299 0001:00049557
  1300 0001:0004955D  1301 0001:00049572  1302 0001:00049583  1303 0001:000495BC
  1305 0001:000495CB  1310 0001:000495D0  1311 0001:000495DC  1312 0001:000495E2
  1313 0001:000495EB  1315 0001:000495F9  1316 0001:00049600  1319 0001:00049604
  1320 0001:00049613  1321 0001:00049618  1323 0001:00049621  1324 0001:00049627
  1326 0001:00049635  1328 0001:00049644  1331 0001:00049648  1332 0001:00049654
  1333 0001:00049659  1334 0001:00049662  1335 0001:00049671  1340 0001:00049678
  1341 0001:00049684  1342 0001:00049689  1344 0001:00049692  1345 0001:000496A0
  1346 0001:000496AE  1348 0001:000496CA  1351 0001:000496D0  1352 0001:000496DC
  1353 0001:000496E1  1355 0001:000496EA  1357 0001:000496F9  1360 0001:00049700
  1361 0001:0004970F  1362 0001:00049713  1364 0001:0004971C  1365 0001:00049722
  1367 0001:00049730  1368 0001:0004973C  1370 0001:00049743  1373 0001:0004974C
  1374 0001:0004975B  1375 0001:0004979D  1429 0001:000497A4  1430 0001:000497CA
  1431 0001:000497CF  1433 0001:000497D5  1434 0001:000497DB  1437 0001:00049817
  1438 0001:0004981D  1440 0001:00049843  1447 0001:0004984C  1448 0001:00049858
  1449 0001:00049867  1452 0001:0004986C  1453 0001:00049878  1454 0001:0004987F
  1456 0001:00049885  1457 0001:00049895  1460 0001:0004989C  1461 0001:000498A8
  1462 0001:000498AE  1463 0001:000498B4  1464 0001:000498C5  1467 0001:000498CC
  1468 0001:000498D8  1469 0001:000498E7  1472 0001:000498EC  1473 0001:000498F8
  1474 0001:000498FD  1475 0001:00049903  1476 0001:00049924  1477 0001:00049950
  1482 0001:00049954  1483 0001:00049961  1484 0001:00049966  1486 0001:00049974
  1487 0001:00049985  1488 0001:00049992  1490 0001:000499A1  1493 0001:000499A8
  1494 0001:000499B4  1495 0001:000499C6  1498 0001:000499CC  1499 0001:000499D8
  1500 0001:000499DD  1501 0001:000499EE  1502 0001:00049A07  1505 0001:00049A0C
  1506 0001:00049A18  1507 0001:00049A27  1513 0001:00049A2C  1514 0001:00049A3E
  1515 0001:00049A42  1516 0001:00049A50  1518 0001:00049A60  1520 0001:00049A66
  1521 0001:00049A76  1523 0001:00049A83  1525 0001:00049A89  1526 0001:00049A8F
  1530 0001:00049AA2  1532 0001:00049AAE  1538 0001:00049AB8  1539 0001:00049AC7
  1540 0001:00049AD7  1541 0001:00049AEA  1542 0001:00049AFA  1543 0001:00049B19
  1546 0001:00049B20  1547 0001:00049B2F  1548 0001:00049B35  1549 0001:00049B3A
  1551 0001:00049B40  1552 0001:00049B46  1555 0001:00049B51  1557 0001:00049B57
  1558 0001:00049B69  1561 0001:00049B7C  1568 0001:00049B84  1569 0001:00049B93
  1570 0001:00049B97  1571 0001:00049B9C  1574 0001:00049BB0  1575 0001:00049BC3
  1576 0001:00049BD1  1577 0001:00049BDF  1578 0001:00049BED  1580 0001:00049BF9
  1582 0001:00049BFF  1583 0001:00049C17  1584 0001:00049C3D  1585 0001:00049C45
  1588 0001:00049C4C  1597 0001:00049C54  1598 0001:00049C68  1599 0001:00049C6C
  1600 0001:00049C81  1602 0001:00049C9C  1604 0001:00049CAC  1605 0001:00049CB5
  1606 0001:00049CBB  1609 0001:00049CCC  1611 0001:00049CD5  1613 0001:00049CF4
  1614 0001:00049D0A  1615 0001:00049D1D  1617 0001:00049D26  1623 0001:00049D30
  1625 0001:00049D4F  1626 0001:00049D93  1627 0001:00049DD5  1631 0001:00049DD9
  1633 0001:00049DE3  1634 0001:00049DE7  1636 0001:00049DED  1638 0001:00049DF3
  1641 0001:00049E1D  1644 0001:00049E4E  1645 0001:00049E54  1647 0001:00049E7B
  1650 0001:00049EAD  1656 0001:00049EB8  1657 0001:00049EC7  1658 0001:00049ECB
  1659 0001:00049ED4  1661 0001:00049EF0  1662 0001:00049F0E  1664 0001:00049F18
  1666 0001:00049F1E  1667 0001:00049F26  1668 0001:00049F2A  1670 0001:00049F2C
  1672 0001:00049F37  1673 0001:00049F3F  1674 0001:00049F43  1678 0001:00049F45
  1659 0001:00049F48  1679 0001:00049F51  1688 0001:00049F58  1689 0001:00049F67
  1690 0001:00049F6C  1691 0001:00049F81  1695 0001:00049F9C  1698 0001:00049FA2
  1699 0001:00049FCB  1700 0001:00049FD5  1702 0001:00049FDB  1704 0001:00049FDD
  1706 0001:00049FFC  1707 0001:0004A145  1708 0001:0004A156  1710 0001:0004A168
  1711 0001:0004A19A  1712 0001:0004A1BF  1713 0001:0004A1E4  1714 0001:0004A1F6
  1715 0001:0004A211  1716 0001:0004A223  1717 0001:0004A235  1718 0001:0004A250
  1719 0001:0004A26B  1720 0001:0004A286  1721 0001:0004A2A1  1723 0001:0004A2B3
  1724 0001:0004A2C5  1726 0001:0004A2D7  1727 0001:0004A2E8  1728 0001:0004A2FA
  1730 0001:0004A30B  1731 0001:0004A31D  1733 0001:0004A32F  1734 0001:0004A341
  1735 0001:0004A353  1736 0001:0004A365  1737 0001:0004A377  1738 0001:0004A389
  1740 0001:0004A39B  1741 0001:0004A3AD  1742 0001:0004A3D2  1743 0001:0004A3F7
  1744 0001:0004A41C  1745 0001:0004A441  1746 0001:0004A452  1747 0001:0004A463
  1748 0001:0004A488  1749 0001:0004A4AD  1750 0001:0004A4D2  1752 0001:0004A4F7
  1753 0001:0004A516  1755 0001:0004A535  1762 0001:0004A546  1764 0001:0004A563
  1765 0001:0004A580  1766 0001:0004A59D  1767 0001:0004A5BA  1768 0001:0004A5D7
  1769 0001:0004A5F4  1770 0001:0004A611  1771 0001:0004A62E  1772 0001:0004A64B
  1775 0001:0004A668  1776 0001:0004A685  1777 0001:0004A6A2  1778 0001:0004A6B4
  1783 0001:0004A6D1  1784 0001:0004A6EE  1785 0001:0004A70B  1786 0001:0004A728
  1787 0001:0004A745  1790 0001:0004A762  1791 0001:0004A77F  1792 0001:0004A79C
  1793 0001:0004A7B9  1794 0001:0004A7D6  1795 0001:0004A7F3  1796 0001:0004A810
  1797 0001:0004A82D  1798 0001:0004A84A  1799 0001:0004A867  1800 0001:0004A881
  1801 0001:0004A89B  1802 0001:0004A8B5  1803 0001:0004A8CF  1805 0001:0004A8EA
  1809 0001:0004A8F4  1810 0001:0004A903  1813 0001:0004A911  1814 0001:0004A917
  1816 0001:0004A93D  1820 0001:0004A963  1821 0001:0004A969  1823 0001:0004A98D
  1826 0001:0004A9AF  1833 0001:0004A9B8  1834 0001:0004A9C7  1835 0001:0004A9CB
  1836 0001:0004A9E0  1838 0001:0004AA00  1839 0001:0004AB51  1844 0001:0004AB79
  1845 0001:0004ABA5  1846 0001:0004ABC7  1848 0001:0004ABD3  1849 0001:0004ABFA
  1850 0001:0004AC21  1851 0001:0004AC46  1852 0001:0004AC6B  1853 0001:0004AC75
  1855 0001:0004AC98  1857 0001:0004AC9D  1858 0001:0004ACC7  1860 0001:0004ACEF
  1861 0001:0004AD16  1862 0001:0004AD4F  1863 0001:0004AD88  1864 0001:0004ADB0
  1865 0001:0004ADF4  1866 0001:0004AE1C  1867 0001:0004AE44  1868 0001:0004AE6C
  1869 0001:0004AE94  1870 0001:0004AEBB  1871 0001:0004AEE2  1873 0001:0004AF09
  1874 0001:0004AF30  1876 0001:0004AF57  1877 0001:0004AF7E  1878 0001:0004AFA6
  1880 0001:0004AFCD  1881 0001:0004AFF5  1885 0001:0004B01D  1886 0001:0004B040
  1890 0001:0004B061  1891 0001:0004B084  1893 0001:0004B0A5  1894 0001:0004B0CD
  1895 0001:0004B0F5  1896 0001:0004B11D  1898 0001:0004B145  1899 0001:0004B16C
  1900 0001:0004B1A5  1901 0001:0004B1DE  1902 0001:0004B217  1903 0001:0004B250
  1904 0001:0004B277  1905 0001:0004B29E  1906 0001:0004B2D7  1907 0001:0004B310
  1908 0001:0004B349  1910 0001:0004B382  1912 0001:0004B3B6  1913 0001:0004B3E7
  1920 0001:0004B418  1922 0001:0004B432  1923 0001:0004B44F  1924 0001:0004B46C
  1925 0001:0004B489  1926 0001:0004B4A6  1927 0001:0004B4C3  1928 0001:0004B4E0
  1929 0001:0004B4FD  1930 0001:0004B51A  1933 0001:0004B537  1934 0001:0004B554
  1935 0001:0004B571  1940 0001:0004B58E  1941 0001:0004B5AB  1942 0001:0004B5C8
  1943 0001:0004B5E5  1944 0001:0004B602  1947 0001:0004B61F  1948 0001:0004B639
  1949 0001:0004B653  1950 0001:0004B66D  1951 0001:0004B687  1952 0001:0004B6A1
  1953 0001:0004B6BE  1954 0001:0004B6DB  1955 0001:0004B6F8  1956 0001:0004B715
  1957 0001:0004B747  1958 0001:0004B761  1959 0001:0004B77B  1960 0001:0004B795
  1962 0001:0004B7AD  1964 0001:0004B7B4  1988 0001:0004B7EC  1989 0001:0004B815
  1990 0001:0004B81A  1992 0001:0004B824  1994 0001:0004B82A  1996 0001:0004B846
  1997 0001:0004B84C  1999 0001:0004B863  2000 0001:0004B878  2002 0001:0004B889
  2003 0001:0004B8DF  2004 0001:0004B935  2007 0001:0004B96F  2008 0001:0004B974
  2010 0001:0004B979  2012 0001:0004B990  2013 0001:0004B99F  2015 0001:0004B9A6
  2016 0001:0004B9D8  2017 0001:0004B9EF  2019 0001:0004BA1B  2021 0001:0004BA38
  2022 0001:0004BA4F  2023 0001:0004BA6C  2025 0001:0004BA78  2026 0001:0004BA90
  2027 0001:0004BAB9  2028 0001:0004BAE2  2029 0001:0004BB4A  2030 0001:0004BBB2
  2032 0001:0004BBB8  2033 0001:0004BBC5  2034 0001:0004BBF6  2037 0001:0004BBFF
  2038 0001:0004BC24  2039 0001:0004BC6F  2042 0001:0004BC76  2043 0001:0004BCB0
  2045 0001:0004BCBA  2046 0001:0004BCCC  2047 0001:0004BCDD  2048 0001:0004BD06
  2049 0001:0004BD2B  2050 0001:0004BD31  2051 0001:0004BD4D  2057 0001:0004BD4F
  2013 0001:0004BD52  2058 0001:0004BD5C  2010 0001:0004BD5F  2059 0001:0004BD68
  2066 0001:0004BD7D  2068 0001:0004BD83  2069 0001:0004BD8C  2071 0001:0004BDA1
  2073 0001:0004BDA7  2074 0001:0004BDC7  2075 0001:0004BDE2  2079 0001:0004BE1B
  2084 0001:0004BE3C  2085 0001:0004BE4B  2087 0001:0004BE51  2088 0001:0004BE63
  2090 0001:0004BE76  2095 0001:0004BE7C  2096 0001:0004BE88  2097 0001:0004BE8E
  2100 0001:0004BE9A  2101 0001:0004BEA4  2104 0001:0004BEA6  2106 0001:0004BEAC
  2107 0001:0004BEE8  2109 0001:0004BEF7  2111 0001:0004BF10  2104 0001:0004BF14
  2112 0001:0004BF1F  2119 0001:0004BF2C  2120 0001:0004BF38  2121 0001:0004BF3E
  2122 0001:0004BF43  2124 0001:0004BF47  2125 0001:0004BF52  2126 0001:0004BF76
  2127 0001:0004BF83  2128 0001:0004BFAC  2132 0001:0004BFD3  2133 0001:0004BFDF
  2134 0001:0004BFE9  2135 0001:0004BFF5  2154 0001:0004BFFC  2155 0001:0004C01F
  2156 0001:0004C024  2158 0001:0004C029  2159 0001:0004C02F  2160 0001:0004C03B
  2162 0001:0004C048  2164 0001:0004C05D  2165 0001:0004C06D  2167 0001:0004C07E
  2168 0001:0004C084  2170 0001:0004C09A  2172 0001:0004C0A0  2173 0001:0004C0B8
  2176 0001:0004C0BA  2178 0001:0004C0C0  2179 0001:0004C0D8  2182 0001:0004C0DA
  2184 0001:0004C0E0  2189 0001:0004C110  2191 0001:0004C116  2196 0001:0004C131
  2197 0001:0004C13D  2199 0001:0004C143  2202 0001:0004C15D  2204 0001:0004C163
  2208 0001:0004C17D  2213 0001:0004C1A8  2215 0001:0004C1AE  2218 0001:0004C1C7
  2220 0001:0004C1CD  2224 0001:0004C1E6  2228 0001:0004C204  2230 0001:0004C219
  2232 0001:0004C234  2233 0001:0004C23F  2234 0001:0004C24A  2235 0001:0004C26E
  2236 0001:0004C292  2237 0001:0004C2A8  2238 0001:0004C2F1  2239 0001:0004C307
  2240 0001:0004C350  2241 0001:0004C356  2243 0001:0004C3A7  2244 0001:0004C3F6
  2247 0001:0004C401  2249 0001:0004C407  2250 0001:0004C41A  2257 0001:0004C428
  2259 0001:0004C42A  2260 0001:0004C435  2261 0001:0004C45E  2262 0001:0004C483
  2264 0001:0004C48C  2265 0001:0004C498  2267 0001:0004C49D  2162 0001:0004C4A0
  2270 0001:0004C4A9  2272 0001:0004C4BD  2273 0001:0004C4C2  2274 0001:0004C4DC
  2276 0001:0004C4F7  2277 0001:0004C52A  2279 0001:0004C530  2280 0001:0004C536
  2281 0001:0004C53C  2283 0001:0004C558  2285 0001:0004C566  2286 0001:0004C56C
  2288 0001:0004C586  2274 0001:0004C589  2289 0001:0004C592  2292 0001:0004C594
  2293 0001:0004C59D  2294 0001:0004C5BD  2295 0001:0004C5D8  2296 0001:0004C60D
  2302 0001:0004C618  2303 0001:0004C643  2304 0001:0004C647  2306 0001:0004C661
  2307 0001:0004C667  2308 0001:0004C690  2309 0001:0004C6A7  2308 0001:0004C6D8
  2310 0001:0004C6DD  2311 0001:0004C6EA  2312 0001:0004C705  2314 0001:0004C71E
  2316 0001:0004C748  2319 0001:0004C750  2320 0001:0004C75F  2322 0001:0004C76F
  2323 0001:0004C78F  2326 0001:0004C7B9  2327 0001:0004C7D9  2330 0001:0004C801
  2337 0001:0004C808  2338 0001:0004C817  2339 0001:0004C81C  2340 0001:0004C830
  2342 0001:0004C854  2343 0001:0004C879  2345 0001:0004C883  2347 0001:0004C8A0
  2348 0001:0004C8C3  2350 0001:0004C8D1  2351 0001:0004C906  2352 0001:0004C96A
  2354 0001:0004C99F  2345 0001:0004C9A3  2357 0001:0004C9B4  2359 0001:0004C9D8
  2360 0001:0004C9FD  2362 0001:0004CA07  2364 0001:0004CA24  2365 0001:0004CA47
  2367 0001:0004CA55  2368 0001:0004CA8A  2369 0001:0004CAEE  2371 0001:0004CB23
  2362 0001:0004CB27  2375 0001:0004CB33  2380 0001:0004CB38  2381 0001:0004CB47
  2382 0001:0004CB4E  2384 0001:0004CB5A  2386 0001:0004CB62  2388 0001:0004CBB3
  2390 0001:0004CBCE  2392 0001:0004CBD6  2398 0001:0004CBDC  2399 0001:0004CBF2
  2400 0001:0004CC23  2401 0001:0004CC54  2402 0001:0004CC70  2403 0001:0004CC8C
  2404 0001:0004CCB0  2406 0001:0004CCB6  2407 0001:0004CCBD  2409 0001:0004CCF8
  2409 0001:0004CCFF

Line numbers for StatsLogging(plugins\StatsLogging.pas) segment .text

    71 0001:0004CE30    75 0001:0004CE34    78 0001:0004CE38    79 0001:0004CE3C
    81 0001:0004CE4E    87 0001:0004CE73    92 0001:0004CE92    97 0001:0004CEB3
    98 0001:0004CEBB   101 0001:0004CF08   102 0001:0004CF0B   103 0001:0004CF21
   106 0001:0004CF61   112 0001:0004CF68   113 0001:0004CF69   114 0001:0004CF6B
   115 0001:0004CF6C   116 0001:0004CF6D   117 0001:0004CF73   118 0001:0004CF79
   119 0001:0004CF7F   120 0001:0004CF85   121 0001:0004CF88   122 0001:0004CF8A
   123 0001:0004CF8B   124 0001:0004CF91   125 0001:0004CF92   126 0001:0004CF93
   127 0001:0004CF98   128 0001:0004CF9D   130 0001:0004CFA2   131 0001:0004CFA3
   132 0001:0004CFA8   133 0001:0004CFAD   136 0001:0004CFB0   137 0001:0004CFB3
   138 0001:0004CFBE   139 0001:0004CFC7   140 0001:0004CFE4   144 0001:0004CFE8
   145 0001:0004CFE9   146 0001:0004CFEF   147 0001:0004CFF0   148 0001:0004CFF5
   149 0001:0004CFF6   150 0001:0004CFF7   151 0001:0004CFFA   152 0001:0004CFFB
   153 0001:0004D000   154 0001:0004D005   157 0001:0004D008   158 0001:0004D023
   159 0001:0004D04C   162 0001:0004D050   163 0001:0004D057   166 0001:0004D05C
   167 0001:0004D0B7   169 0001:0004D17C   172 0001:0004D194   173 0001:0004D1C0
   175 0001:0004D271   180 0001:0004D284   181 0001:0004D2B1   183 0001:0004D2CB
   185 0001:0004D32B   188 0001:0004D3BD   190 0001:0004D3F2   195 0001:0004D418
   196 0001:0004D445   197 0001:0004D462   198 0001:0004D47F   200 0001:0004D493
   204 0001:0004D56B   212 0001:0004D580   213 0001:0004D5B6   214 0001:0004D5BC
   216 0001:0004D5C6   217 0001:0004D5E4   218 0001:0004D602   219 0001:0004D619
   220 0001:0004D620   221 0001:0004D63E   227 0001:0004D648   229 0001:0004D653
   235 0001:0004D73A   240 0001:0004D750   241 0001:0004D77E   243 0001:0004D792
   244 0001:0004D7A3   245 0001:0004D7B3   249 0001:0004D83A   252 0001:0004D8C3
   257 0001:0004D8D8   260 0001:0004D904   263 0001:0004D9CF   266 0001:0004D9E4
   267 0001:0004DA10   271 0001:0004DB58   274 0001:0004DB6C   275 0001:0004DB8A
   277 0001:0004DBC9   278 0001:0004DBF9   281 0001:0004DC0C   282 0001:0004DC35
   283 0001:0004DCA9   285 0001:0004DCEC   285 0001:0004DCF3

Line numbers for IdException(IdException.pas) segment .text

   109 0001:0004DE14   110 0001:0004DE2F   111 0001:0004DE3C   112 0001:0004DE60
   114 0001:0004DE98   114 0001:0004DE9F

Line numbers for IdResourceStrings(IdResourceStrings.pas) segment .text

   653 0001:0004E080   653 0001:0004E087

Line numbers for IdWinSock2(IdWinsock2.pas) segment .text

  2516 0001:0004E100  2517 0001:0004E132  2518 0001:0004E140  2519 0001:0004E149
  2521 0001:0004E14F  2525 0001:0004E15E  2526 0001:0004E177  2528 0001:0004E1DC
  2534 0001:0004E1F0  2535 0001:0004E1F4  2536 0001:0004E203  2538 0001:0004E209
  2539 0001:0004E212  2541 0001:0004E217  2552 0001:0004E21C  2552 0001:0004E228
  2553 0001:0004E22C  2553 0001:0004E238  2554 0001:0004E23C  2554 0001:0004E248
  2555 0001:0004E24C  2555 0001:0004E258  2556 0001:0004E25C  2556 0001:0004E268
  2557 0001:0004E26C  2557 0001:0004E278  2558 0001:0004E27C  2558 0001:0004E288
  2559 0001:0004E28C  2559 0001:0004E298  2560 0001:0004E29C  2560 0001:0004E2A8
  2561 0001:0004E2AC  2561 0001:0004E2B8  2562 0001:0004E2BC  2562 0001:0004E2C8
  2563 0001:0004E2CC  2563 0001:0004E2D8  2564 0001:0004E2DC  2564 0001:0004E2E8
  2565 0001:0004E2EC  2565 0001:0004E2F8  2566 0001:0004E2FC  2566 0001:0004E308
  2567 0001:0004E30C  2567 0001:0004E318  2568 0001:0004E31C  2568 0001:0004E328
  2569 0001:0004E32C  2569 0001:0004E338  2570 0001:0004E33C  2570 0001:0004E348
  2571 0001:0004E34C  2571 0001:0004E358  2572 0001:0004E35C  2572 0001:0004E368
  2573 0001:0004E36C  2573 0001:0004E378  2574 0001:0004E37C  2574 0001:0004E388
  2575 0001:0004E38C  2575 0001:0004E398  2576 0001:0004E39C  2576 0001:0004E3A8
  2577 0001:0004E3AC  2577 0001:0004E3B8  2578 0001:0004E3BC  2578 0001:0004E3C8
  2579 0001:0004E3CC  2579 0001:0004E3D8  2580 0001:0004E3DC  2580 0001:0004E3E8
  2581 0001:0004E3EC  2581 0001:0004E3F8  2582 0001:0004E3FC  2582 0001:0004E408
  2583 0001:0004E40C  2583 0001:0004E418  2584 0001:0004E41C  2584 0001:0004E428
  2585 0001:0004E42C  2585 0001:0004E438  2586 0001:0004E43C  2586 0001:0004E448
  2587 0001:0004E44C  2587 0001:0004E458  2588 0001:0004E45C  2588 0001:0004E468
  2589 0001:0004E46C  2589 0001:0004E478  2590 0001:0004E47C  2590 0001:0004E488
  2591 0001:0004E48C  2591 0001:0004E498  2592 0001:0004E49C  2592 0001:0004E4A8
  2593 0001:0004E4AC  2593 0001:0004E4B8  2594 0001:0004E4BC  2594 0001:0004E4C8
  2595 0001:0004E4CC  2595 0001:0004E4D8  2596 0001:0004E4DC  2596 0001:0004E4E8
  2597 0001:0004E4EC  2597 0001:0004E4F8  2598 0001:0004E4FC  2598 0001:0004E508
  2599 0001:0004E50C  2599 0001:0004E518  2600 0001:0004E51C  2600 0001:0004E528
  2601 0001:0004E52C  2601 0001:0004E538  2602 0001:0004E53C  2602 0001:0004E548
  2603 0001:0004E54C  2603 0001:0004E558  2604 0001:0004E55C  2604 0001:0004E568
  2605 0001:0004E56C  2605 0001:0004E578  2606 0001:0004E57C  2606 0001:0004E588
  2607 0001:0004E58C  2607 0001:0004E598  2608 0001:0004E59C  2608 0001:0004E5A8
  2609 0001:0004E5AC  2609 0001:0004E5B8  2610 0001:0004E5BC  2610 0001:0004E5C8
  2611 0001:0004E5CC  2611 0001:0004E5D8  2612 0001:0004E5DC  2612 0001:0004E5E8
  2613 0001:0004E5EC  2613 0001:0004E5F8  2614 0001:0004E5FC  2614 0001:0004E608
  2615 0001:0004E60C  2615 0001:0004E618  2616 0001:0004E61C  2616 0001:0004E628
  2617 0001:0004E62C  2617 0001:0004E638  2618 0001:0004E63C  2618 0001:0004E648
  2619 0001:0004E64C  2619 0001:0004E658  2620 0001:0004E65C  2620 0001:0004E668
  2621 0001:0004E66C  2621 0001:0004E678  2622 0001:0004E67C  2622 0001:0004E688
  2623 0001:0004E68C  2623 0001:0004E698  2624 0001:0004E69C  2624 0001:0004E6A8
  2625 0001:0004E6AC  2625 0001:0004E6B8  2626 0001:0004E6BC  2626 0001:0004E6C8
  2627 0001:0004E6CC  2627 0001:0004E6D8  2628 0001:0004E6DC  2628 0001:0004E6E8
  2629 0001:0004E6EC  2629 0001:0004E6F8  2630 0001:0004E6FC  2630 0001:0004E708
  2631 0001:0004E70C  2631 0001:0004E718  2632 0001:0004E71C  2632 0001:0004E728
  2633 0001:0004E72C  2633 0001:0004E738  2634 0001:0004E73C  2634 0001:0004E748
  2635 0001:0004E74C  2635 0001:0004E758  2636 0001:0004E75C  2636 0001:0004E768
  2637 0001:0004E76C  2637 0001:0004E778  2638 0001:0004E77C  2638 0001:0004E788
  2639 0001:0004E78C  2639 0001:0004E798  2640 0001:0004E79C  2640 0001:0004E7A8
  2641 0001:0004E7AC  2641 0001:0004E7B8  2642 0001:0004E7BC  2642 0001:0004E7C8
  2643 0001:0004E7CC  2643 0001:0004E7D8  2644 0001:0004E7DC  2644 0001:0004E7E8
  2645 0001:0004E7EC  2645 0001:0004E7F8  2646 0001:0004E7FC  2646 0001:0004E808
  2647 0001:0004E80C  2647 0001:0004E818  2648 0001:0004E81C  2648 0001:0004E828
  2649 0001:0004E82C  2649 0001:0004E838  2650 0001:0004E83C  2650 0001:0004E848
  2651 0001:0004E84C  2651 0001:0004E858  2652 0001:0004E85C  2652 0001:0004E868
  2653 0001:0004E86C  2653 0001:0004E878  2654 0001:0004E87C  2654 0001:0004E888
  2655 0001:0004E88C  2655 0001:0004E898  2656 0001:0004E89C  2656 0001:0004E8A8
  2657 0001:0004E8AC  2657 0001:0004E8B8  2658 0001:0004E8BC  2658 0001:0004E8C8
  2659 0001:0004E8CC  2659 0001:0004E8D8  2660 0001:0004E8DC  2660 0001:0004E8E8
  2662 0001:0004E8EC  2662 0001:0004E8F8  2663 0001:0004E8FC  2663 0001:0004E908
  2664 0001:0004E90C  2664 0001:0004E918  2802 0001:0004EFAC  2803 0001:0004EFCB
  2805 0001:0004EFDB  2807 0001:0004EFE4  2809 0001:0004F028  2810 0001:0004F03D
  2812 0001:0004F06D  2816 0001:0004F074  2817 0001:0004F07A  2818 0001:0004F081
  2819 0001:0004F086  2820 0001:0004F096  2818 0001:0004F0A6  2821 0001:0004F0AC
  2825 0001:0004F0B0  2826 0001:0004F0CC  2828 0001:0004F0D9  2829 0001:0004F0E8
  2831 0001:0004F0F1  2833 0001:0004F137  2834 0001:0004F14C  2839 0001:0004F160
  2841 0001:0004F18A  2941 0001:0004F1BC  2942 0001:0004F1EF  2938 0001:0004F1F4
  2939 0001:0004F200  2940 0001:0004F205

Line numbers for IdStackConsts(IdStackConsts.pas) segment .text

   196 0001:0004F238   196 0001:0004F23F

Line numbers for IdStack(IdStack.pas) segment .text

   134 0001:0004F4C4   135 0001:0004F4D0   136 0001:0004F4E6   142 0001:0004F4EC
   143 0001:0004F4FB   144 0001:0004F4FF   145 0001:0004F505   146 0001:0004F513
   147 0001:0004F525   148 0001:0004F536   149 0001:0004F53A   151 0001:0004F53C
   146 0001:0004F53F   152 0001:0004F544   154 0001:0004F555   166 0001:0004F55C
   177 0001:0004F57C   205 0001:0004F5BF   208 0001:0004F5C4   211 0001:0004F5F7
   231 0001:0004F5FC   232 0001:0004F622   233 0001:0004F62A   234 0001:0004F73E
   235 0001:0004F750   236 0001:0004F762   237 0001:0004F774   238 0001:0004F786
   239 0001:0004F798   241 0001:0004F7AA   242 0001:0004F7BC   243 0001:0004F7CE
   244 0001:0004F7E0   245 0001:0004F7F2   246 0001:0004F804   247 0001:0004F816
   248 0001:0004F828   249 0001:0004F83A   250 0001:0004F84C   251 0001:0004F85E
   252 0001:0004F870   253 0001:0004F882   254 0001:0004F894   255 0001:0004F8A6
   256 0001:0004F8B8   257 0001:0004F8CA   258 0001:0004F8DC   259 0001:0004F8EE
   260 0001:0004F900   261 0001:0004F912   262 0001:0004F924   263 0001:0004F936
   264 0001:0004F948   265 0001:0004F957   266 0001:0004F966   267 0001:0004F975
   268 0001:0004F984   269 0001:0004F993   270 0001:0004F9A2   271 0001:0004F9B1
   272 0001:0004F9C0   274 0001:0004F9CD   275 0001:0004FA33   295 0001:0004FA38
   296 0001:0004FA49   297 0001:0004FA54   298 0001:0004FA70   301 0001:0004FA74
   302 0001:0004FA97   303 0001:0004FAC8   313 0001:0004FB00   313 0001:0004FB07

Line numbers for IdStackWindows(IdStackWindows.pas) segment .text

    93 0001:0004FC5C    94 0001:0004FC8D    95 0001:0004FC97    97 0001:0004FCA0
    98 0001:0004FCB4   100 0001:0004FCDB   102 0001:0004FD1D   105 0001:0004FD24
   107 0001:0004FD35   108 0001:0004FD51   112 0001:0004FD58   113 0001:0004FD81
   117 0001:0004FE06   124 0001:0004FE18   125 0001:0004FE3B   126 0001:0004FE42
   127 0001:0004FE5A   128 0001:0004FE73   129 0001:0004FEA9   136 0001:0004FEB0
   137 0001:0004FEBF   138 0001:0004FEC7   139 0001:0004FED3   141 0001:0004FEDA
   143 0001:0004FEEE   144 0001:0004FF00   145 0001:0004FF19   148 0001:0004FF20
   149 0001:0004FF2C   150 0001:0004FF3F   157 0001:0004FF44   158 0001:0004FF53
   159 0001:0004FF5B   160 0001:0004FF6F   161 0001:0004FF81   162 0001:0004FF9A
   169 0001:0004FFA0   170 0001:0004FFB0   171 0001:0004FFC5   172 0001:0004FFCB
   174 0001:0004FFD8   175 0001:0004FFE3   176 0001:0004FFEB   177 0001:0004FFF4
   178 0001:0004FFFD   179 0001:00050006   181 0001:00050014   187 0001:0005001C
   188 0001:0005002B   189 0001:00050040   190 0001:00050054   191 0001:0005005A
   193 0001:00050067   195 0001:00050074   200 0001:00050078   201 0001:00050084
   202 0001:00050091   203 0001:000500B0   204 0001:000500C4   208 0001:000500C8
   209 0001:000500D7   210 0001:000500EE   214 0001:000500F4   215 0001:00050103
   216 0001:00050122   224 0001:00050128   225 0001:0005014B   226 0001:00050152
   227 0001:00050176   228 0001:0005018F   229 0001:000501C5   239 0001:000501CC
   240 0001:000501D8   241 0001:000501DE   242 0001:000501E6   243 0001:000501F3
   244 0001:00050208   245 0001:0005021A   243 0001:0005021D   247 0001:00050222
   252 0001:00050228   253 0001:00050247   254 0001:0005024D   255 0001:00050256
   257 0001:00050277   258 0001:0005028D   259 0001:000502A2   257 0001:000502A5
   260 0001:000502AA   262 0001:000502D2   264 0001:000502D8   265 0001:000502EA
   266 0001:000502FC   267 0001:0005030E   268 0001:00050320   269 0001:00050330
   270 0001:00050340   271 0001:00050350   272 0001:00050356   274 0001:0005037D
   275 0001:0005038B   276 0001:0005039F   278 0001:000503C6   279 0001:000503D6
   280 0001:000503E6   281 0001:000503F9   285 0001:00050400   286 0001:0005040F
   287 0001:0005042E   294 0001:00050434   295 0001:00050443   298 0001:00050452
   299 0001:00050458   300 0001:0005046C   302 0001:0005047E   303 0001:000504A3
   307 0001:000504AC   308 0001:000504BB   309 0001:000504DE   312 0001:000504E4
   313 0001:000504ED   315 0001:000504F6   317 0001:00050508   318 0001:0005050F
   319 0001:0005051B   322 0001:00050520   323 0001:00050529   324 0001:00050538
   327 0001:0005053C   328 0001:0005054B   329 0001:00050566   332 0001:0005056C
   333 0001:00050579   334 0001:0005058F   337 0001:00050594   338 0001:000505A1
   339 0001:000505B7   345 0001:000505BC   346 0001:000505DE   347 0001:000505F5
   349 0001:000505FB   353 0001:00050614   354 0001:00050622   356 0001:00050648
   359 0001:0005069E   367 0001:000506D0   368 0001:000506F8   369 0001:00050707
   370 0001:00050715   371 0001:00050723   372 0001:00050743   374 0001:00050749
   375 0001:00050761   376 0001:00050766   379 0001:0005077C   380 0001:00050798
   377 0001:0005079B   384 0001:000507B6   386 0001:000507F6   389 0001:00050800
   390 0001:0005080C   391 0001:0005081F   394 0001:00050824   395 0001:00050830
   396 0001:00050843   406 0001:00050848   407 0001:00050868   408 0001:00050873
   409 0001:00050893   411 0001:00050899   415 0001:000508A6   416 0001:000508AF
   419 0001:000508B6   420 0001:000508D8   417 0001:000508DB   423 0001:00050909
   426 0001:00050910   427 0001:0005091D   428 0001:0005092F   435 0001:00050934
   436 0001:00050956   437 0001:0005095B   438 0001:0005097E   439 0001:0005098C
   440 0001:000509AB   442 0001:000509C6   443 0001:000509F7   446 0001:000509FC
   448 0001:00050A2D   449 0001:00050A4F   450 0001:00050A72   451 0001:00050A95
   453 0001:00050AE2   456 0001:00050AF4   457 0001:00050B03   458 0001:00050B1A
   465 0001:00050B20   466 0001:00050B43   467 0001:00050B4A   468 0001:00050B69
   469 0001:00050B72   470 0001:00050B8B   471 0001:00050BBE   478 0001:00050BC8
   479 0001:00050BEB   480 0001:00050BF2   481 0001:00050C11   482 0001:00050C1A
   483 0001:00050C33   484 0001:00050C66   487 0001:00050C70   488 0001:00050C7F
   489 0001:00050CA2   494 0001:00050CA8   495 0001:00050CC7   496 0001:00050CD0
   498 0001:00050CF1   499 0001:00050D01   500 0001:00050D24   503 0001:00050D28
   504 0001:00050D31   505 0001:00050D3D   508 0001:00050D44   509 0001:00050D63
   510 0001:00050D74   512 0001:00050D83   514 0001:00050DC4   519 0001:00050DC8
   520 0001:00050DD4   521 0001:00050DEA   522 0001:00050DF9   523 0001:00050DFF
   524 0001:00050E16   525 0001:00050E25   527 0001:00050E27   520 0001:00050E2A
   528 0001:00050E2F   531 0001:00050E34   532 0001:00050E5A   533 0001:00050E64
   535 0001:00050E73   536 0001:00050E81   538 0001:00050E83   539 0001:00050EE9
   548 0001:00050EF0   549 0001:00050F12   551 0001:00050F30   541 0001:00050F34
   542 0001:00050F40   544 0001:00050F4D   545 0001:00050F57   547 0001:00050F62

Line numbers for IdURI(IdURI.pas) segment .text

   317 0001:00050F94   317 0001:00050F9B

Line numbers for IdGlobal(IdGlobal.pas) segment .text

   463 0001:00051144   471 0001:00051150   479 0001:0005115B   686 0001:00051244
   687 0001:00051260   688 0001:0005126D   689 0001:0005128B   690 0001:00051296
   691 0001:000512C0  1045 0001:000512C4  1046 0001:000512EA  1048 0001:000512F9
  1051 0001:0005130B  1053 0001:00051334  1054 0001:0005133A  1055 0001:00051347
  1056 0001:0005134D  1059 0001:00051357  1060 0001:0005136E  1062 0001:00051374
  1065 0001:000513B6  1072 0001:000513CC  1073 0001:000513DB  1074 0001:000513E5
  1076 0001:000513F4  1078 0001:00051406  1080 0001:00051417  1081 0001:0005141D
  1082 0001:0005142A  1083 0001:00051430  1087 0001:0005143A  1088 0001:00051451
  1090 0001:00051457  1094 0001:00051479  1096 0001:0005148B  1816 0001:000514A0
  1817 0001:000514AC  1818 0001:000514BD  2097 0001:000514C4  2098 0001:000514D4
  2099 0001:000514E2  2100 0001:000514EE  2103 0001:000514F4  2104 0001:00051503
  2105 0001:0005150B  2235 0001:00051510  2236 0001:000515CA  2214 0001:000515CC
  2219 0001:000515EC  2220 0001:00051601  2223 0001:0005160E  2224 0001:00051621
  2226 0001:0005162D  2229 0001:00051637  2230 0001:00051651  2231 0001:00051660
  2232 0001:0005167A  2234 0001:000516A6

Line numbers for IdMultipartFormData(IdMultipartFormData.pas) segment .text

   481 0001:0005171C   481 0001:00051723

Line numbers for IdAssignedNumbers(IdAssignedNumbers.pas) segment .text

  1777 0001:00051754  1777 0001:0005175B

Line numbers for IdHeaderList(IdHeaderList.pas) segment .text

    96 0001:0005188C    97 0001:000518C0    98 0001:000518C7    99 0001:000518CE
   100 0001:000518D5   101 0001:000518DA   102 0001:000518DE   103 0001:000518E2
   104 0001:000518ED   105 0001:000518F8   106 0001:00051900   108 0001:0005190C
   109 0001:00051919   111 0001:0005192C   112 0001:0005192F   115 0001:00051937
   117 0001:00051941   119 0001:00051947   120 0001:00051967   122 0001:0005196D
   123 0001:00051974   128 0001:0005197C   130 0001:0005198A   131 0001:00051990
   134 0001:00051998   135 0001:0005199F   136 0001:000519A7   138 0001:000519AD
   139 0001:000519B3   140 0001:000519B9   141 0001:000519BC   142 0001:000519BF
   145 0001:000519E8   146 0001:000519F1   147 0001:00051A15   148 0001:00051A1E
   149 0001:00051A5A   150 0001:00051A68   151 0001:00051A76   152 0001:00051A79
   153 0001:00051A7F   106 0001:00051A83   156 0001:00051A8F   157 0001:00051ADB
   180 0001:00051B04   181 0001:00051B1C   182 0001:00051B26   183 0001:00051B36
   184 0001:00051B3D   185 0001:00051B44   188 0001:00051B4B   189 0001:00051B70
   192 0001:00051B80   193 0001:00051B9F   197 0001:00051BA4   194 0001:00051BAF
   199 0001:00051C24   218 0001:00051C2C   219 0001:00051C5A   220 0001:00051C68
   221 0001:00051C76   222 0001:00051C82   224 0001:00051C9E   225 0001:00051CA1
   227 0001:00051CA7   228 0001:00051CC3   225 0001:00051CC6   231 0001:00051CD9
   233 0001:00051D13   237 0001:00051D18   238 0001:00051D45   239 0001:00051D54
   241 0001:00051D62   244 0001:00051D81   242 0001:00051DAC   247 0001:00051DBF
   248 0001:00051DF4   269 0001:00051E30   270 0001:00051E56   271 0001:00051E64
   273 0001:00051E6D   279 0001:00051E85   280 0001:00051EA8   281 0001:00051EE1
   284 0001:00051EE8   285 0001:00051EF7   286 0001:00051F0F   292 0001:00051F14
   293 0001:00051F3F   294 0001:00051F5A   295 0001:00051F68   296 0001:00051F96
   298 0001:00051F9F   299 0001:00051FA2   302 0001:00051FAF   304 0001:00051FBD
   307 0001:00051FCA   297 0001:00051FFA   311 0001:00051FFC   314 0001:00052004
   315 0001:0005203E   320 0001:00052050   321 0001:0005206F   322 0001:00052076
   323 0001:0005208E   324 0001:000520AB   325 0001:000520B1   327 0001:000520B3
   322 0001:000520B6   328 0001:000520DB   333 0001:000520E0   334 0001:00052106
   335 0001:00052114   337 0001:0005211A   339 0001:00052120   341 0001:0005212D
   343 0001:00052136   344 0001:00052141   348 0001:0005216A   353 0001:00052193
   355 0001:00052199   357 0001:000521A2   359 0001:000521AD   362 0001:000521DA
   364 0001:00052210   364 0001:00052217

Line numbers for IdBaseComponent(IdBaseComponent.pas) segment .text

    29 0001:0005230C    29 0001:00052313

Line numbers for IdCoder(IdCoder.pas) segment .text

    57 0001:00052474    58 0001:00052484    59 0001:000524A1    60 0001:000524B6
    61 0001:000524D7    62 0001:000524E7    65 0001:000524EC    66 0001:000524FB
    67 0001:00052516    68 0001:00052531    69 0001:00052541    71 0001:00052578
    71 0001:0005257F

Line numbers for IdCoder3to4(IdCoder3to4.pas) segment .text

    52 0001:0005277C    56 0001:0005278B    57 0001:00052792    58 0001:0005279D
    56 0001:000527A0    59 0001:000527A9    60 0001:000527BF    61 0001:000527D5
    59 0001:000527D8    62 0001:000527DD    79 0001:000527E4    80 0001:0005281E
    81 0001:00052836    83 0001:00052857    84 0001:0005285F    85 0001:0005286A
    86 0001:00052871    87 0001:00052879    88 0001:00052885    89 0001:000528A1
    90 0001:000528A5    93 0001:000528BB    94 0001:000528C9    98 0001:000528E1
   100 0001:000528EF   104 0001:0005290C    87 0001:00052927   108 0001:00052933
   109 0001:00052939   111 0001:00052987   117 0001:0005298C   118 0001:0005299B
   119 0001:000529A1   122 0001:000529E7   123 0001:000529EF   124 0001:000529F7
   125 0001:000529FF   140 0001:00052A08   141 0001:00052A2E   142 0001:00052A36
   143 0001:00052A3A   144 0001:00052A52   148 0001:00052A73   149 0001:00052A89
   150 0001:00052A91   152 0001:00052A97   155 0001:00052AA1   156 0001:00052ABC
   157 0001:00052AC1   158 0001:00052ACC   159 0001:00052AE1   160 0001:00052AE8
   162 0001:00052AF4   163 0001:00052B01   164 0001:00052B04   166 0001:00052B0C
   167 0001:00052B19   168 0001:00052B1C   170 0001:00052B24   171 0001:00052B31
   172 0001:00052B34   176 0001:00052B3D   177 0001:00052B41   182 0001:00052B4A
   183 0001:00052B4E   185 0001:00052B55   187 0001:00052B6B   188 0001:00052B86
   189 0001:00052B8A   190 0001:00052B90   191 0001:00052BA5   192 0001:00052BAB
   160 0001:00052BC0   197 0001:00052BF1   202 0001:00052BF8   203 0001:00052C07
   204 0001:00052C1E   205 0001:00052C3F   206 0001:00052C60   207 0001:00052C76
   208 0001:00052C7E   210 0001:00052CB4   210 0001:00052CBB

Line numbers for IdCoderMIME(IdCoderMIME.pas) segment .text

    44 0001:00052DC4    45 0001:00052DDF    46 0001:00052DEC    47 0001:00052DFD
    48 0001:00052E1F    50 0001:00052E60    51 0001:00052E6C    52 0001:00052E81

Line numbers for IdAuthentication(idauthentication.pas) segment .text

    99 0001:000530F8   100 0001:00053129   101 0001:00053132   104 0001:00053143
   105 0001:00053154   106 0001:00053163   107 0001:0005316C   110 0001:0005317E
   113 0001:0005321C   126 0001:00053224   127 0001:0005323C   128 0001:00053246
   130 0001:00053258   131 0001:0005327B   134 0001:00053280   135 0001:00053291
   136 0001:0005329C   138 0001:000532A7   139 0001:000532C3   153 0001:000532C8
   154 0001:000532F3   155 0001:000532FC   156 0001:00053317   157 0001:0005333B
   158 0001:0005334C   160 0001:0005334E   155 0001:00053351   163 0001:00053358
   165 0001:00053385   173 0001:0005338C   175 0001:00053393   178 0001:00053398
   179 0001:000533A4   180 0001:000533B7   183 0001:000533D0   184 0001:000533DC
   185 0001:000533EF   188 0001:00053408   189 0001:00053414   190 0001:00053427
   193 0001:00053440   194 0001:0005344C   195 0001:0005345F   198 0001:00053478
   199 0001:00053481   200 0001:00053489   205 0001:00053490   206 0001:000534A8
   207 0001:000534B2   208 0001:000534D5   211 0001:000534DC   212 0001:000534FB
   214 0001:0005356B   219 0001:0005358C   220 0001:000535AC   222 0001:000535B0
   223 0001:000535C0   226 0001:000535D7   229 0001:000535E0   225 0001:0005361D
   232 0001:00053629   234 0001:00053670   236 0001:0005367F   237 0001:00053696
   240 0001:0005369C   244 0001:000536A2   247 0001:000536D3   250 0001:00053720
   251 0001:00053729   252 0001:00053730   255 0001:00053734   256 0001:0005373B
   257 0001:00053743   258 0001:0005374B   261 0001:00053750   262 0001:00053759
   263 0001:00053763   268 0001:00053768   270 0001:0005378C   271 0001:0005379D
   269 0001:000537A9   273 0001:000537B7   275 0001:000537D6   265 0001:000537D8
   266 0001:000537E4   267 0001:000537F4

Line numbers for IdHTTPHeaderInfo(IdHTTPHeaderInfo.pas) segment .text

   636 0001:00053838   636 0001:0005383F

Line numbers for IdAntiFreezeBase(IdAntiFreezeBase.pas) segment .text

   108 0001:00053870   108 0001:00053877

Line numbers for IdComponent(IdComponent.pas) segment .text

   177 0001:000538C4   177 0001:00053907   171 0001:0005390C   172 0001:00053922
   173 0001:00053933

Line numbers for IdSocketHandle(IdSocketHandle.pas) segment .text

   381 0001:00053968   381 0001:0005396F

Line numbers for IdSSLOpenSSLHeaders(IdSSLOpenSSLHeaders.pas) segment .text

  4630 0001:00053970  4631 0001:00053973  4632 0001:00053987  4634 0001:0005398E
  4635 0001:000539A2  4637 0001:000539A9  4638 0001:000539BD  4639 0001:000539C4
  4798 0001:000539C8  4799 0001:000539FB  4795 0001:00053A00  4797 0001:00053A0A

Line numbers for IdIOHandler(IdIOHandler.pas) segment .text

    57 0001:00053A3C    57 0001:00053A43

Line numbers for IdIntercept(IdIntercept.pas) segment .text

   168 0001:00053A74   168 0001:00053A7B

Line numbers for IdRFCReply(IdRFCReply.pas) segment .text

   305 0001:00053AAC   305 0001:00053AB3

Line numbers for IdSocks(IdSocks.pas) segment .text

   256 0001:00053AE4   256 0001:00053AEB

Line numbers for IdTCPStream(IdTCPStream.pas) segment .text

    49 0001:00053B1C    49 0001:00053B23

Line numbers for IdStream(IdStream.pas) segment .text

   391 0001:00053B54   391 0001:00053B5B

Line numbers for IdIOHandlerSocket(IdIOHandlerSocket.pas) segment .text

   294 0001:00053B8C   294 0001:00053B93

Line numbers for IdTCPConnection(IdTCPConnection.pas) segment .text

  1309 0001:00053BC4  1309 0001:00053BCB

Line numbers for IdThread(IdThread.pas) segment .text

   259 0001:00053BFC   259 0001:00053C03

Line numbers for IdThreadMgrDefault(IdThreadMgrDefault.pas) segment .text

    43 0001:00053C34    43 0001:00053C3B

Line numbers for IdServerIOHandler(IdServerIOHandler.pas) segment .text

    31 0001:00053C6C    31 0001:00053C73

Line numbers for IdStrings(IdStrings.pas) segment .text

   290 0001:00053CDC   290 0001:00053CE3

Line numbers for IdThreadSafe(IdThreadSafe.pas) segment .text

   294 0001:00053D14   294 0001:00053D1B

Line numbers for IdThreadMgr(IdThreadMgr.pas) segment .text

    74 0001:00053D4C    74 0001:00053D53

Line numbers for IdTCPServer(IdTCPServer.pas) segment .text

  1026 0001:00053D84  1026 0001:00053D8B

Line numbers for IdSSLOpenSSL(IdSSLOpenSSL.pas) segment .text

   448 0001:00053D8C   449 0001:00053D8F   450 0001:00053D99   451 0001:00053DA3
   452 0001:00053DAD   453 0001:00053DB2  1626 0001:00053DB4  1628 0001:00053DE7
  1613 0001:00053DEC  1624 0001:00053DF6

Line numbers for IdTCPClient(IdTCPClient.pas) segment .text

   122 0001:00053E28   122 0001:00053E2F

Line numbers for IdCookie(idcookie.pas) segment .text

   790 0001:00053F70   790 0001:00053F77

Line numbers for IdCookieManager(idcookiemanager.pas) segment .text

   239 0001:00053FA8   239 0001:00053FAF

Line numbers for IdAuthenticationManager(idauthenticationmanager.pas) segment .text

   124 0001:00053FE0   124 0001:00053FE7

Line numbers for IdHTTP(idhttp.pas) segment .text

  1574 0001:00054048  1574 0001:0005404F

Line numbers for TAMemManipulations(TAMem\TAMemManipulations.pas) segment .text

    65 0001:00054120    66 0001:0005412C    67 0001:00054151    70 0001:00054158
    71 0001:00054167    73 0001:00054176    74 0001:00054180    78 0001:0005418E
    79 0001:00054192    81 0001:0005419F    88 0001:000541A4    89 0001:000541B3
    91 0001:000541CF    93 0001:000541F3    94 0001:000541FB    95 0001:000541FF
    97 0001:00054201    98 0001:0005420C    89 0001:0005420F    99 0001:00054214
   100 0001:0005421D   101 0001:00054223   102 0001:0005422A   115 0001:00054230
   116 0001:0005423D   117 0001:00054247   125 0001:0005424C   126 0001:00054258
   127 0001:00054260   137 0001:00054264   138 0001:00054268   139 0001:00054279
   140 0001:00054280   146 0001:00054284   147 0001:000542A0   148 0001:000542B7
   150 0001:000542CA   152 0001:000542DB   153 0001:000542E2   155 0001:000542E9
   156 0001:00054310   161 0001:0005433C   162 0001:00054348   163 0001:0005434D
   164 0001:0005435B   165 0001:00054362   166 0001:00054370   168 0001:0005438B
   170 0001:0005439D   171 0001:000543A6   172 0001:000543B0   173 0001:000543BA
   175 0001:000543D1   180 0001:000543D8   181 0001:000543DC   182 0001:000543ED
   183 0001:000543F4   188 0001:000543F8   189 0001:00054401   191 0001:00054406
   192 0001:00054416   194 0001:00054420   196 0001:00054460   198 0001:0005446A
   201 0001:000544CA   202 0001:000544D4   203 0001:000544F4   205 0001:000544FE
   206 0001:0005451E   208 0001:00054528   212 0001:00054598   214 0001:000545A2
   215 0001:000545B2   217 0001:000545BC   218 0001:000545CC   220 0001:000545D6
   221 0001:000545E6   223 0001:000545F0   224 0001:00054600   226 0001:0005460A
   227 0001:0005462A   229 0001:00054634   230 0001:00054644   232 0001:0005464E
   234 0001:0005468E   236 0001:00054698   239 0001:000546F8   240 0001:00054702
   243 0001:00054762   248 0001:0005476C   249 0001:00054784   251 0001:0005478E
   252 0001:00054798   253 0001:000547A7   511 0001:000547AC   512 0001:000547B3
   513 0001:000547BE   514 0001:000547C6   517 0001:000547CB   519 0001:00054800
   519 0001:00054807

Line numbers for PlayerDataU(PlayerDataU.pas) segment .text

   186 0001:000548DC   187 0001:000548E8   188 0001:000548F7   189 0001:00054906
   190 0001:00054915   192 0001:00054924   194 0001:00054931   201 0001:0005496C
   202 0001:00054987   203 0001:000549A1   204 0001:000549AF   205 0001:000549B8
   206 0001:000549DD   210 0001:00054A3C   211 0001:00054A48   213 0001:00054A54
   214 0001:00054A5F   213 0001:00054A9E   215 0001:00054AA4   217 0001:00054AAE
   220 0001:00054AB4   221 0001:00054ABD   222 0001:00054AD7   223 0001:00054AE5
   226 0001:00054B44   227 0001:00054B4E   228 0001:00054B68   229 0001:00054B7E
   238 0001:00054BDC   239 0001:00054BF4   240 0001:00054BFE   241 0001:00054C10
   242 0001:00054C22   243 0001:00054C31   244 0001:00054C40   245 0001:00054C4F
   246 0001:00054C6D   247 0001:00054C76   248 0001:00054C93   249 0001:00054C9C
   251 0001:00054CB9   252 0001:00054CD2   253 0001:00054CF8   256 0001:00054D6C
   257 0001:00054D7D   258 0001:00054D85   259 0001:00054D90   260 0001:00054D9B
   261 0001:00054DA6   262 0001:00054DC2   268 0001:00054DC8   269 0001:00054DD1
   272 0001:00054DDC   273 0001:00054DF2   274 0001:00054E03   276 0001:00054E09
   277 0001:00054E19   279 0001:00054E21   280 0001:00054E2F   270 0001:00054E3D
   282 0001:00054E49   285 0001:00054E54   286 0001:00054E6A   287 0001:00054E7B
   289 0001:00054E81   290 0001:00054E91   292 0001:00054E99   283 0001:00054EA7
   294 0001:00054EB3   297 0001:00054EB8   298 0001:00054EC7   299 0001:00054EDD
   300 0001:00054EFB   301 0001:00054F07   308 0001:00054F0C   309 0001:00054F34
   310 0001:00054F3E   311 0001:00054F4C   312 0001:00054F56   313 0001:00054F62
   314 0001:00054F6D   315 0001:00054F73   317 0001:00054F74   319 0001:00054F96
   320 0001:00054FAC   321 0001:0005500B   322 0001:00055051   323 0001:00055091
   324 0001:000550D7   326 0001:0005511D   327 0001:00055163   328 0001:000551A9
   317 0001:000551AC   330 0001:000551B5   332 0001:000551D0   333 0001:000551F2
   332 0001:00055213   335 0001:00055218   336 0001:0005521F   335 0001:0005525A
   337 0001:00055260   338 0001:00055280   339 0001:0005529D   340 0001:000552BD
   341 0001:000552DD   342 0001:000552FF   345 0001:00055321   346 0001:0005532E
   347 0001:0005533D   348 0001:0005534C   350 0001:00055359   351 0001:00055363
   353 0001:00055397   355 0001:000553CC   361 0001:0005541C   362 0001:0005542B
   363 0001:0005543D   364 0001:00055443   365 0001:00055451   368 0001:00055458
   369 0001:00055461   370 0001:00055470   375 0001:00055474   376 0001:00055483
   377 0001:00055489   378 0001:00055498   381 0001:000554A7   382 0001:000554A8
   383 0001:000554AB   384 0001:000554AE   386 0001:000554AF   389 0001:000554CA
   390 0001:000554D8   395 0001:00055518   396 0001:0005553E   397 0001:00055544
   398 0001:00055556   402 0001:000555AD   403 0001:000555AE   404 0001:000555B1
   405 0001:000555B4   407 0001:000555B5   410 0001:000555E9   411 0001:0005562E
   416 0001:00055674   417 0001:00055699   418 0001:000556B3   420 0001:000556B9
   421 0001:000556C5   424 0001:000556CF   425 0001:000556DD   432 0001:00055734
   433 0001:00055735   434 0001:00055738   435 0001:0005573B   437 0001:0005573C
   440 0001:00055791   443 0001:0005579B   446 0001:000557A1   447 0001:000557E1
   453 0001:00055870   454 0001:00055896   456 0001:000558B1   457 0001:000558C2
   459 0001:000558D1   454 0001:000558D4   460 0001:000558DA   462 0001:000558E0
   464 0001:000558E6   465 0001:000558F2   466 0001:000558FC   468 0001:000558FE
   470 0001:00055904   471 0001:0005590D   474 0001:00055912   476 0001:0005592D
   477 0001:0005593E   479 0001:00055949   474 0001:0005594C   480 0001:00055952
   483 0001:00055958   484 0001:00055959   485 0001:0005595C   486 0001:0005595F
   488 0001:00055960   491 0001:0005599D   492 0001:000559C7   502 0001:000559EC
   503 0001:00055A12   504 0001:00055A2D   506 0001:00055A43   507 0001:00055A5F
   508 0001:00055A64   503 0001:00055A67   509 0001:00055A6D   511 0001:00055A73
   513 0001:00055A79   514 0001:00055A85   516 0001:00055A8B   517 0001:00055AA0
   520 0001:00055AA2   522 0001:00055AA8   523 0001:00055AC0   526 0001:00055AC2
   529 0001:00055AC8   530 0001:00055AC9   531 0001:00055ACC   532 0001:00055ACF
   534 0001:00055AD0   537 0001:00055B0D   538 0001:00055B36   540 0001:00055B8C
   540 0001:00055B93

Line numbers for DPLobbyWrapper(DPLobbyWrapper.pas) segment .text

    47 0001:00055B94    63 0001:00055DD8    64 0001:00055DFF    65 0001:00055E0D
    66 0001:00055E28    67 0001:00055E3C    68 0001:00055E54    69 0001:00055E5E
    70 0001:00055E75    71 0001:00055E87    74 0001:00055EA2    76 0001:00055EBF
    78 0001:00055EE9    80 0001:00055EEC    81 0001:00055EF4    82 0001:00055EFC
    85 0001:00055F36    89 0001:00055F88    90 0001:00055F91    91 0001:00055F9F
    92 0001:00055FC6    93 0001:00055FDA    95 0001:00055FFF    97 0001:00056002
    98 0001:0005600A   101 0001:00056017   105 0001:0005603C   106 0001:00056045
   107 0001:00056053   108 0001:00056072   109 0001:00056086   111 0001:000560AB
   113 0001:000560AE   114 0001:000560B6   117 0001:000560C3   122 0001:000560E8
   123 0001:000560F1   124 0001:000560FF   125 0001:0005611E   126 0001:00056132
   128 0001:00056157   130 0001:0005615A   131 0001:00056162   134 0001:0005616F
   139 0001:00056198   140 0001:000561A1   141 0001:000561AF   142 0001:000561CA
   143 0001:000561DE   145 0001:00056203   147 0001:00056206   148 0001:0005620E
   151 0001:0005621B   155 0001:00056248   156 0001:00056251   157 0001:0005625F
   158 0001:0005627A   159 0001:0005628E   161 0001:000562B3   163 0001:000562B6
   164 0001:000562BE   167 0001:000562CB   172 0001:000562F8   173 0001:00056301
   174 0001:0005630F   176 0001:00056332   177 0001:00056346   179 0001:0005634C
   180 0001:00056364   181 0001:0005637E   182 0001:00056396   186 0001:000563B2
   187 0001:000563C6   189 0001:000563EB   191 0001:000563EE   192 0001:000563F6
   195 0001:00056403   199 0001:000564C0   200 0001:000564DE   201 0001:000564EC
   202 0001:0005650B   203 0001:0005651F   204 0001:00056537   205 0001:00056551
   207 0001:0005656C   208 0001:0005658A   209 0001:000565A8   210 0001:000565C6
   211 0001:000565E4   212 0001:00056602   213 0001:00056635   214 0001:00056653
   215 0001:00056671   216 0001:0005668F   218 0001:000566AD   219 0001:000566E0
   221 0001:00056713   222 0001:0005672E   223 0001:00056749   225 0001:00056764
   226 0001:0005677C   228 0001:000567A1   230 0001:000567A4   231 0001:000567AC
   234 0001:000567DB   238 0001:00056C2C   239 0001:00056C35   240 0001:00056C43
   241 0001:00056C62   242 0001:00056C76   244 0001:00056C7C   245 0001:00056C94
   246 0001:00056CAC   250 0001:00056CC6   251 0001:00056CDA   253 0001:00056CFF
   255 0001:00056D02   256 0001:00056D0A   259 0001:00056D17   263 0001:00056DA4
   264 0001:00056DAD   265 0001:00056DBB   266 0001:00056DD6   267 0001:00056DEA
   269 0001:00056E0F   271 0001:00056E12   272 0001:00056E1A   275 0001:00056E27
   279 0001:00056E54   280 0001:00056E5D   281 0001:00056E6B   282 0001:00056E86
   283 0001:00056E9A   285 0001:00056EBF   287 0001:00056EC2   288 0001:00056ECA
   291 0001:00056ED7   298 0001:00056F04   299 0001:00056F0D   300 0001:00056F1B
   301 0001:00056F3A   302 0001:00056F4E   304 0001:00056F73   306 0001:00056F76
   307 0001:00056F7E   310 0001:00056F8B   315 0001:00056FBC   316 0001:00056FF0
   317 0001:00056FFE   318 0001:00057008   319 0001:00057016   321 0001:00057033
   322 0001:00057047   324 0001:0005706C   326 0001:0005706F   327 0001:00057077
   330 0001:000570B9   332 0001:00057108   332 0001:0005710F

Line numbers for Dplayx_exports(Dplayx_exports.pas) segment .text

   117 0001:00057110   118 0001:00057114   119 0001:00057132   122 0001:00057138
   133 0001:0005713C   135 0001:00057145   136 0001:0005714E   137 0001:00057156
   138 0001:0005715F   140 0001:00057175   141 0001:0005717C   148 0001:000571A8
   149 0001:000571B1   150 0001:000571CB   151 0001:000571D9   152 0001:000571E2
   153 0001:000571F7   154 0001:00057200   156 0001:00057211   157 0001:00057225
   159 0001:0005724A   161 0001:0005724D   162 0001:00057255   165 0001:00057262
   171 0001:000572A0   172 0001:000572A9   173 0001:000572C3   174 0001:000572D1
   175 0001:000572DA   176 0001:000572EF   177 0001:000572F8   179 0001:00057309
   180 0001:0005731D   182 0001:00057342   184 0001:00057345   185 0001:0005734D
   188 0001:0005735A   195 0001:000573A0   196 0001:000573A9   197 0001:000573C3
   198 0001:000573D1   199 0001:000573DA   200 0001:000573EF   201 0001:000573F8
   203 0001:00057409   204 0001:0005741D   206 0001:00057442   208 0001:00057445
   209 0001:0005744D   212 0001:0005745A   220 0001:000574A0   221 0001:000574C3
   222 0001:000574DD   223 0001:000574EB   224 0001:000574F4   225 0001:00057509
   226 0001:00057512   227 0001:00057527   229 0001:0005752D   230 0001:00057541
   231 0001:00057559   232 0001:00057563   233 0001:00057586   237 0001:00057597
   238 0001:000575AB   239 0001:000575C3   240 0001:000575F0   243 0001:00057615
   245 0001:00057618   246 0001:00057620   249 0001:0005765F   257 0001:00057708
   258 0001:00057727   259 0001:00057741   260 0001:0005774F   261 0001:00057758
   262 0001:0005776D   263 0001:00057776   265 0001:00057793   266 0001:000577A7
   268 0001:000577CC   270 0001:000577CF   271 0001:000577D7   274 0001:00057801
   283 0001:00057848   284 0001:0005786B   285 0001:00057885   286 0001:00057893
   287 0001:0005789C   288 0001:000578B1   289 0001:000578BA   290 0001:000578D7
   292 0001:000578DD   293 0001:000578F1   294 0001:00057909   298 0001:00057913
   303 0001:00057935   304 0001:00057949   305 0001:00057961   306 0001:0005798E
   309 0001:000579B3   311 0001:000579B6   312 0001:000579BE   315 0001:000579FD
   326 0001:00057A9C   327 0001:00057AA5   328 0001:00057AB5   329 0001:00057AC3
   331 0001:00057AC8   332 0001:00057ADC   334 0001:00057B01   336 0001:00057B04
   337 0001:00057B0C   340 0001:00057B19   343 0001:00057B3C   344 0001:00057B45
   345 0001:00057B55   346 0001:00057B63   348 0001:00057B68   349 0001:00057B7C
   351 0001:00057BA1   353 0001:00057BA4   354 0001:00057BAC   357 0001:00057BB9
   363 0001:00057BE0   365 0001:00057BE3   367 0001:00057BEA   368 0001:00057C03
   401 0001:00057C24   401 0001:00057C50   370 0001:00057C54   392 0001:00057C60
   393 0001:00057C69   394 0001:00057C73   395 0001:00057C7C   397 0001:00057C86

Line numbers for TlHelp32(TlHelp32.pas) segment .text

   339 0001:00057C88   340 0001:00057C8C   342 0001:00057C99   343 0001:00057CA8
   345 0001:00057CB5   346 0001:00057CCA   347 0001:00057CDF   348 0001:00057CF4
   349 0001:00057D09   350 0001:00057D1E   351 0001:00057D33   352 0001:00057D48
   353 0001:00057D5D   354 0001:00057D72   355 0001:00057D87   356 0001:00057D9C
   357 0001:00057DB1   358 0001:00057DC6   359 0001:00057DDB   360 0001:00057DF0
   363 0001:00057E05   364 0001:00057E23   367 0001:00057F48   368 0001:00057F54
   369 0001:00057F5D   370 0001:00057F70   371 0001:00057F78   452 0001:00057F7C
   453 0001:00057F88   454 0001:00057F91   455 0001:00057FA4   456 0001:00057FAC
   459 0001:00057FB0   460 0001:00057FBC   461 0001:00057FC5   462 0001:00057FD8
   463 0001:00057FE0   479 0001:00058014   479 0001:0005801B

Line numbers for ErrorLog_ExtraData(plugins\ErrorLog_ExtraData.pas) segment .text

    29 0001:0005801C    33 0001:00058020    36 0001:00058024    37 0001:00058028
    40 0001:00058031    45 0001:00058055    53 0001:00058072    54 0001:0005807A
    69 0001:00058118    70 0001:0005815A    71 0001:00058168    72 0001:00058176
    73 0001:0005819A    74 0001:000581A3    75 0001:000581F1    78 0001:000581F8
    79 0001:00058204    80 0001:00058212    81 0001:0005821B    82 0001:00058229
    84 0001:00058232    85 0001:0005823A   100 0001:00058240   101 0001:00058289
   103 0001:00058297   104 0001:000582A6   105 0001:000582B0   107 0001:000582BE
   110 0001:000582C8   111 0001:000582DA   112 0001:000582E9   113 0001:000582FA
   115 0001:00058308   119 0001:00058332   123 0001:0005838F   125 0001:000583A1
   127 0001:000583AE   128 0001:000583B6   130 0001:000583D9   131 0001:000583E7
   133 0001:000583FB   138 0001:0005847C   128 0001:0005847F   140 0001:00058488
   141 0001:00058494   143 0001:000584E4   147 0001:00058501   150 0001:0005851F
   152 0001:00058565   156 0001:00058584   157 0001:00058585   159 0001:0005858A
   160 0001:0005858F   161 0001:00058594   164 0001:000585C8   164 0001:000585CF

Line numbers for Thread_marshaller(plugins\Thread_marshaller.pas) segment .text

    33 0001:000585D0    37 0001:000585D4    74 0001:000585D8    75 0001:000585DC
    78 0001:000585E5    91 0001:0005860B    92 0001:00058613    99 0001:00058664
    99 0001:0005866B

Line numbers for RegPathFix(plugins\RegPathFix.pas) segment .text

    52 0001:0005866C    56 0001:00058670    62 0001:00058674    63 0001:000586A6
    65 0001:000586C0    71 0001:000586EA    73 0001:000586F9    74 0001:00058714
    76 0001:00058738    78 0001:00058770    83 0001:0005879A    89 0001:000587C4
    94 0001:000587E5    96 0001:000587EF    97 0001:0005881F   103 0001:0005889C
   104 0001:000588B8   106 0001:000588C7   107 0001:000588D4   108 0001:000588ED
   111 0001:000588F3   113 0001:0005892B   115 0001:00058940   117 0001:0005896B
   121 0001:00058978   122 0001:00058979   123 0001:0005897E   124 0001:0005897F
   125 0001:00058987   126 0001:0005898C   127 0001:00058991   129 0001:000589C4
   129 0001:000589CB

Line numbers for PauseLock(plugins\PauseLock.pas) segment .text

    40 0001:000589CC    44 0001:000589D0    47 0001:000589D4    48 0001:000589D8
    51 0001:000589EA    56 0001:00058A12    68 0001:00058A2F    69 0001:00058A37
    73 0001:00058A74    74 0001:00058A7E    75 0001:00058A92    76 0001:00058AA1
    83 0001:00058AA4    84 0001:00058AA9    85 0001:00058AAC    87 0001:00058AAE
    90 0001:00058AB4    91 0001:00058AB9    95 0001:00058ABE    96 0001:00058AC3
    97 0001:00058AC8    99 0001:00058AFC    99 0001:00058B03

Line numbers for UnitLimit(plugins\UnitLimit.pas) segment .text

    69 0001:00058B04    73 0001:00058B08    78 0001:00058B0C    79 0001:00058B25
    81 0001:00058B3F    82 0001:00058B4A    85 0001:00058B58    86 0001:00058B68
    89 0001:00058B72    93 0001:00058BB5    97 0001:00058BD3   101 0001:00058BF1
   108 0001:00058C11   109 0001:00058C36   111 0001:00058CD4   111 0001:00058CDB

Line numbers for MultiAILimit(plugins\MultiAILimit.pas) segment .text

    32 0001:00058CDC    36 0001:00058CE0    64 0001:00058CF8    65 0001:00058CFE
    66 0001:00058D05    67 0001:00058D6F    68 0001:00058D79    72 0001:00058D80
    74 0001:00058D87    75 0001:00058D88    76 0001:00058D89    78 0001:00058D8A
    81 0001:00058D8F    82 0001:00058D94    83 0001:00058D99    87 0001:00058D9C
    88 0001:00058DA0    90 0001:00058DB2    94 0001:00058DDA    95 0001:00058DF4
    99 0001:00058E15   100 0001:00058E1D   102 0001:00058EAC   102 0001:00058EB3

Line numbers for WeaponsExtend(plugins\WeaponsExtend.pas) segment .text

    49 0001:00058F14    50 0001:00058F17    51 0001:00058F25    52 0001:00058F36
    53 0001:00058F57    57 0001:00058F5C    60 0001:00058F60    61 0001:00058F64
    63 0001:00058F76    69 0001:00058F9D    74 0001:00058FBE    76 0001:00058FC8
    77 0001:00058FD0    82 0001:00058FF4    83 0001:00058FFC    84 0001:0005900B
    85 0001:0005901F    86 0001:00059048    87 0001:0005906F    88 0001:00059096
    90 0001:000590CB    91 0001:000590DF    98 0001:00059128   100 0001:00059129
   101 0001:0005912A   102 0001:0005912B   103 0001:0005912D   104 0001:00059133
   106 0001:00059139   108 0001:0005913A   109 0001:0005913B   110 0001:0005913C
   111 0001:0005913E   112 0001:00059143   113 0001:00059144   115 0001:00059146
   116 0001:00059147   117 0001:00059148   118 0001:0005914A   119 0001:00059150
   120 0001:00059156   121 0001:00059157   122 0001:00059158   123 0001:00059159
   124 0001:0005915B   125 0001:00059160   126 0001:00059161   128 0001:00059163
   129 0001:00059164   130 0001:00059165   131 0001:00059167   132 0001:0005916D
   133 0001:00059173   134 0001:00059174   135 0001:00059175   136 0001:00059176
   137 0001:00059178   138 0001:0005917D   139 0001:0005917E   141 0001:00059180
   142 0001:00059181   143 0001:00059182   144 0001:00059183   145 0001:00059188
   146 0001:0005918A   147 0001:00059190   148 0001:00059196   149 0001:00059197
   150 0001:0005919D   151 0001:0005919F   152 0001:000591A0   153 0001:000591A2
   154 0001:000591A3   155 0001:000591A4   156 0001:000591A6   158 0001:000591AB
   159 0001:000591AC   160 0001:000591AD   162 0001:000591AF   163 0001:000591B0
   164 0001:000591B3   165 0001:000591B6   166 0001:000591BB   167 0001:000591C0
   169 0001:0005921C   169 0001:00059223

Line numbers for UnitsExtend(plugins\UnitsExtend.pas) segment .text

    45 0001:000592CC    46 0001:000592CF    47 0001:000592F0    51 0001:000592F4
    54 0001:000592F8    55 0001:000592FC    57 0001:0005930E    63 0001:00059338
    68 0001:00059359    70 0001:00059363    71 0001:0005936B    74 0001:000593C4
    75 0001:000593C7    76 0001:000593FA    77 0001:0005941A    78 0001:0005943B
    79 0001:0005945C    80 0001:0005947E    81 0001:000594A0    82 0001:000594C2
    84 0001:000594DE    87 0001:000594E4    88 0001:000594E8    89 0001:000594ED
    91 0001:000594F7    93 0001:0005951B    94 0001:0005954E    95 0001:0005957B
    96 0001:000595A9    97 0001:000595D7    98 0001:00059610    99 0001:00059646
   100 0001:0005967C   104 0001:000596A8   114 0001:000596B0   115 0001:000596B1
   116 0001:000596B8   117 0001:000596B9   118 0001:000596BA   119 0001:000596BB
   120 0001:000596BD   121 0001:000596C3   122 0001:000596C9   123 0001:000596CA
   124 0001:000596CB   125 0001:000596CD   126 0001:000596D2   127 0001:000596D3
   128 0001:000596D4   130 0001:000596D5   131 0001:000596D6   132 0001:000596D7
   133 0001:000596D8   134 0001:000596DA   135 0001:000596E0   136 0001:000596E6
   137 0001:000596E7   138 0001:000596E8   139 0001:000596EA   140 0001:000596EF
   141 0001:000596F0   142 0001:000596F1   144 0001:000596F2   145 0001:000596F3
   146 0001:000596F4   147 0001:000596F5   148 0001:000596F7   149 0001:000596FD
   150 0001:00059703   151 0001:00059704   152 0001:00059705   153 0001:00059707
   154 0001:0005970C   155 0001:0005970D   156 0001:0005970E   158 0001:0005970F
   159 0001:00059710   160 0001:00059711   161 0001:00059712   162 0001:00059714
   163 0001:0005971A   164 0001:00059720   165 0001:00059721   166 0001:00059722
   167 0001:00059724   168 0001:00059729   169 0001:0005972A   170 0001:0005972B
   172 0001:0005972C   173 0001:0005972D   174 0001:0005972E   175 0001:0005972F
   176 0001:00059731   177 0001:00059737   178 0001:0005973D   179 0001:0005973E
   180 0001:0005973F   181 0001:00059741   182 0001:00059746   183 0001:00059747
   184 0001:00059748   186 0001:00059749   187 0001:0005974A   188 0001:0005974B
   189 0001:0005974C   190 0001:0005974E   191 0001:00059754   192 0001:0005975A
   193 0001:0005975B   194 0001:0005975C   195 0001:0005975E   196 0001:00059763
   197 0001:00059764   198 0001:00059765   200 0001:00059766   201 0001:00059767
   202 0001:00059768   203 0001:00059769   204 0001:0005976B   205 0001:00059771
   206 0001:00059777   207 0001:00059778   208 0001:00059779   209 0001:0005977B
   210 0001:00059780   211 0001:00059781   212 0001:00059782   214 0001:00059783
   215 0001:00059784   216 0001:00059785   217 0001:0005978A   218 0001:0005978F
   219 0001:00059794   221 0001:00059810   221 0001:00059817

Line numbers for Builders(plugins\Builders.pas) segment .text

    43 0001:00059818    47 0001:0005981C    53 0001:00059820    54 0001:00059826
    56 0001:00059840    62 0001:0005986A    64 0001:00059870    65 0001:0005987B
    68 0001:0005989B    84 0001:000598BB    89 0001:000598DC    94 0001:000598FD
    96 0001:00059908    97 0001:0005990C   103 0001:0005992C   110 0001:0005994C
   112 0001:00059956   113 0001:0005995E   119 0001:00059A30   120 0001:00059A36
   121 0001:00059A39   122 0001:00059A3B   123 0001:00059A41   124 0001:00059A47
   125 0001:00059A4D   126 0001:00059A4F   127 0001:00059A52   128 0001:00059A54
   129 0001:00059A57   130 0001:00059A5D   131 0001:00059A65   132 0001:00059A67
   134 0001:00059A6E   135 0001:00059A73   138 0001:00059A78   139 0001:00059A7D
   140 0001:00059A82   151 0001:00059A84   152 0001:00059A8B   153 0001:00059A8D
   154 0001:00059A8F   155 0001:00059A90   156 0001:00059A94   157 0001:00059A99
   158 0001:00059A9B   159 0001:00059A9C   160 0001:00059A9E   161 0001:00059AA3
   164 0001:00059AA8   165 0001:00059AA9   166 0001:00059AAB   167 0001:00059AB2
   168 0001:00059AB4   169 0001:00059AB9   172 0001:00059ABE   173 0001:00059AC3
   174 0001:00059AC8   176 0001:00059AFC   176 0001:00059B03

Line numbers for ScriptCallsExtend(plugins\ScriptCallsExtend.pas) segment .text

    56 0001:00059B04    60 0001:00059B08    63 0001:00059B0C    64 0001:00059B10
    66 0001:00059B2A    72 0001:00059B54    77 0001:00059B75    82 0001:00059B96
    87 0001:00059BB7    97 0001:00059BD8   102 0001:00059BF9   107 0001:00059C1A
   112 0001:00059C3B   117 0001:00059C5C   119 0001:00059C66   120 0001:00059C6E
   129 0001:00059DC0   130 0001:00059DC1   131 0001:00059DC3   132 0001:00059DC7
   133 0001:00059DCA   134 0001:00059DCE   135 0001:00059DD4   137 0001:00059DD6
   139 0001:00059DE0   140 0001:00059DE2   141 0001:00059DE3   142 0001:00059DE9
   143 0001:00059DEE   144 0001:00059DF3   148 0001:00059DF4   149 0001:00059DF6
   150 0001:00059DFC   151 0001:00059DFF   152 0001:00059E05   153 0001:00059E0A
   154 0001:00059E0B   155 0001:00059E0E   156 0001:00059E0F   157 0001:00059E16
   158 0001:00059E1D   159 0001:00059E1F   160 0001:00059E22   161 0001:00059E24
   162 0001:00059E29   163 0001:00059E2E   170 0001:00059E30   171 0001:00059E31
   172 0001:00059E33   173 0001:00059E37   174 0001:00059E3A   175 0001:00059E3C
   176 0001:00059E40   177 0001:00059E42   178 0001:00059E44   179 0001:00059E45
   181 0001:00059E47   182 0001:00059E49   183 0001:00059E4A   185 0001:00059E4F
   186 0001:00059E50   187 0001:00059E53   188 0001:00059E55   189 0001:00059E58
   190 0001:00059E5A   191 0001:00059E61   192 0001:00059E68   193 0001:00059E6A
   194 0001:00059E6F   195 0001:00059E74   200 0001:00059E78   201 0001:00059E7D
   203 0001:00059E86   205 0001:00059E95   206 0001:00059EA3   208 0001:00059EB4
   210 0001:00059EC2   223 0001:00059EF3   229 0001:00059F08   230 0001:00059F0C
   231 0001:00059F0F   232 0001:00059F13   233 0001:00059F15   234 0001:00059F16
   235 0001:00059F18   236 0001:00059F1F   237 0001:00059F23   238 0001:00059F28
   239 0001:00059F29   240 0001:00059F2A   241 0001:00059F2F   242 0001:00059F30
   243 0001:00059F35   245 0001:00059F3A   246 0001:00059F41   247 0001:00059F45
   248 0001:00059F4A   249 0001:00059F4B   250 0001:00059F4C   251 0001:00059F51
   252 0001:00059F52   253 0001:00059F57   254 0001:00059F5C   293 0001:00059F60
   294 0001:00059F64   296 0001:00059F70   300 0001:00059F9A   306 0001:00059FAC
   307 0001:00059FB2   308 0001:00059FB7   309 0001:00059FB9   310 0001:00059FBC
   311 0001:00059FBE   312 0001:00059FBF   313 0001:00059FC3   314 0001:00059FC4
   315 0001:00059FC8   316 0001:00059FC9   317 0001:00059FCD   318 0001:00059FCE
   319 0001:00059FCF   320 0001:00059FD4   324 0001:00059FD5   325 0001:00059FDA
   327 0001:00059FDF   328 0001:00059FE4   329 0001:00059FE9   332 0001:00059FEC
   333 0001:00059FF0   335 0001:00059FFC   340 0001:0005A022   346 0001:0005A038
   347 0001:0005A03C   348 0001:0005A040   349 0001:0005A041   350 0001:0005A042
   351 0001:0005A043   352 0001:0005A048   353 0001:0005A049   354 0001:0005A04A
   355 0001:0005A04F   356 0001:0005A054   361 0001:0005A058   362 0001:0005A05D
   364 0001:0005A069   365 0001:0005A07A   370 0001:0005A0A4   383 0001:0005A0C4
   387 0001:0005A0C7   388 0001:0005A0C8   389 0001:0005A0CA   390 0001:0005A0CB
   391 0001:0005A0CC   392 0001:0005A0CD   393 0001:0005A0D2   395 0001:0005A0D3
   396 0001:0005A0D4   397 0001:0005A0D5   399 0001:0005A0D6   400 0001:0005A0DB
   401 0001:0005A0E0   405 0001:0005A0E4   406 0001:0005A0EA   407 0001:0005A0EB
   408 0001:0005A0ED   409 0001:0005A0EF   410 0001:0005A0F0   411 0001:0005A0F1
   412 0001:0005A0F6   413 0001:0005A0F7   414 0001:0005A0FC   415 0001:0005A101
   418 0001:0005A134   418 0001:0005A13B

Line numbers for ResurrectPatrol(plugins\ResurrectPatrol.pas) segment .text

    40 0001:0005A13C    44 0001:0005A140    47 0001:0005A144    48 0001:0005A148
    50 0001:0005A162    56 0001:0005A18C    61 0001:0005A1AD    66 0001:0005A1CE
    71 0001:0005A1EF    73 0001:0005A1F9    74 0001:0005A201    79 0001:0005A27C
    80 0001:0005A280    81 0001:0005A29D    82 0001:0005A2BD    83 0001:0005A2C8
   103 0001:0005A2D0   104 0001:0005A2D2   105 0001:0005A2D3   106 0001:0005A2D4
   107 0001:0005A2DA   108 0001:0005A2E0   109 0001:0005A2E4   111 0001:0005A2E6
   112 0001:0005A2E8   113 0001:0005A2EC   114 0001:0005A2ED   115 0001:0005A2EE
   116 0001:0005A2F3   117 0001:0005A2F5   118 0001:0005A2F6   119 0001:0005A2F7
   120 0001:0005A2F9   121 0001:0005A2FA   122 0001:0005A2FB   123 0001:0005A2FC
   124 0001:0005A2FD   125 0001:0005A2FE   126 0001:0005A2FF   127 0001:0005A301
   128 0001:0005A306   130 0001:0005A308   131 0001:0005A309   132 0001:0005A30A
   133 0001:0005A30C   134 0001:0005A310   135 0001:0005A311   136 0001:0005A312
   137 0001:0005A313   138 0001:0005A314   139 0001:0005A315   140 0001:0005A316
   141 0001:0005A318   143 0001:0005A31D   144 0001:0005A322   145 0001:0005A327
   153 0001:0005A328   154 0001:0005A32A   155 0001:0005A32B   156 0001:0005A32C
   157 0001:0005A332   158 0001:0005A338   159 0001:0005A33C   160 0001:0005A33E
   161 0001:0005A33F   162 0001:0005A340   163 0001:0005A342   164 0001:0005A344
   165 0001:0005A349   167 0001:0005A34E   168 0001:0005A34F   169 0001:0005A350
   170 0001:0005A352   171 0001:0005A357   173 0001:0005A35C   174 0001:0005A361
   175 0001:0005A366   183 0001:0005A368   184 0001:0005A37F   185 0001:0005A3D6
   200 0001:0005A3F8   201 0001:0005A3FA   202 0001:0005A3FB   203 0001:0005A3FC
   204 0001:0005A402   205 0001:0005A408   206 0001:0005A40C   208 0001:0005A40E
   209 0001:0005A40F   210 0001:0005A410   211 0001:0005A412   212 0001:0005A415
   213 0001:0005A417   214 0001:0005A41C   217 0001:0005A421   218 0001:0005A425
   219 0001:0005A426   220 0001:0005A427   221 0001:0005A429   222 0001:0005A42B
   223 0001:0005A42C   224 0001:0005A432   225 0001:0005A433   226 0001:0005A437
   227 0001:0005A439   228 0001:0005A43F   229 0001:0005A445   230 0001:0005A44A
   231 0001:0005A44F   232 0001:0005A450   233 0001:0005A452   234 0001:0005A454
   235 0001:0005A455   236 0001:0005A45A   237 0001:0005A45B   238 0001:0005A461
   239 0001:0005A462   240 0001:0005A467   242 0001:0005A469   243 0001:0005A46A
   244 0001:0005A46B   245 0001:0005A46C   246 0001:0005A46E   247 0001:0005A473
   249 0001:0005A478   250 0001:0005A47D   252 0001:0005A482   253 0001:0005A483
   254 0001:0005A484   255 0001:0005A485   256 0001:0005A487   257 0001:0005A48C
   258 0001:0005A491   260 0001:0005A4C4   260 0001:0005A4CB

Line numbers for UnitActions(plugins\UnitActions.pas) segment .text

    40 0001:0005A4CC    44 0001:0005A4D0    49 0001:0005A4D4    50 0001:0005A4DA
    52 0001:0005A4F4    58 0001:0005A51C    60 0001:0005A527    61 0001:0005A52D
    67 0001:0005A54B    72 0001:0005A56A    77 0001:0005A589    87 0001:0005A5A8
    92 0001:0005A5C7    97 0001:0005A5E6   103 0001:0005A607   104 0001:0005A60F
   107 0001:0005A734   108 0001:0005A738   109 0001:0005A73D   110 0001:0005A768
   111 0001:0005A772   122 0001:0005A778   123 0001:0005A77A   124 0001:0005A77C
   125 0001:0005A77D   126 0001:0005A77E   127 0001:0005A77F   128 0001:0005A780
   129 0001:0005A785   130 0001:0005A787   131 0001:0005A788   132 0001:0005A789
   133 0001:0005A78A   134 0001:0005A78C   135 0001:0005A791   137 0001:0005A796
   138 0001:0005A79B   139 0001:0005A7A0   155 0001:0005A7A4   156 0001:0005A7A5
   157 0001:0005A7A6   158 0001:0005A7A7   159 0001:0005A7A9   160 0001:0005A7AA
   161 0001:0005A7AF   162 0001:0005A7B1   163 0001:0005A7B3   164 0001:0005A7B4
   165 0001:0005A7B5   166 0001:0005A7B6   170 0001:0005A7B8   171 0001:0005A7B9
   172 0001:0005A7BA   173 0001:0005A7BB   174 0001:0005A7BD   176 0001:0005A7BF
   177 0001:0005A7C4   181 0001:0005A7C9   182 0001:0005A7CA   183 0001:0005A7CB
   184 0001:0005A7CC   185 0001:0005A7CD   186 0001:0005A7D2   187 0001:0005A7D4
   188 0001:0005A7D5   189 0001:0005A7D6   190 0001:0005A7D7   191 0001:0005A7D9
   192 0001:0005A7DE   193 0001:0005A7E3   206 0001:0005A7E4   207 0001:0005A7EA
   208 0001:0005A7EF   209 0001:0005A7FD   210 0001:0005A80D   211 0001:0005A836
   212 0001:0005A848   213 0001:0005A852   233 0001:0005A858   234 0001:0005A860
   235 0001:0005A864   237 0001:0005A866   238 0001:0005A86B   240 0001:0005A870
   241 0001:0005A871   242 0001:0005A873   243 0001:0005A875   244 0001:0005A876
   245 0001:0005A87B   246 0001:0005A87D   247 0001:0005A87F   248 0001:0005A880
   249 0001:0005A881   250 0001:0005A886   251 0001:0005A888   253 0001:0005A88A
   254 0001:0005A88B   255 0001:0005A890   257 0001:0005A895   258 0001:0005A896
   259 0001:0005A89B   260 0001:0005A8A0   301 0001:0005A8A4   302 0001:0005A8A7
   305 0001:0005A8A9   306 0001:0005A8AA   307 0001:0005A8AC   308 0001:0005A8AD
   309 0001:0005A8B2   310 0001:0005A8B4   311 0001:0005A8B5   312 0001:0005A8B7
   313 0001:0005A8BC   315 0001:0005A8C1   316 0001:0005A8C6   317 0001:0005A8CB
   323 0001:0005A8CC   324 0001:0005A8CF   325 0001:0005A8D1   326 0001:0005A8D3
   327 0001:0005A8D8   329 0001:0005A8DD   330 0001:0005A8E2   331 0001:0005A8E7
   340 0001:0005A8E8   341 0001:0005A8E9   342 0001:0005A8EB   343 0001:0005A8EC
   344 0001:0005A8EE   345 0001:0005A8F3   346 0001:0005A8F6   347 0001:0005A8F8
   348 0001:0005A8F9   349 0001:0005A8FF   350 0001:0005A904   352 0001:0005A909
   353 0001:0005A90E   354 0001:0005A90F   355 0001:0005A915   356 0001:0005A91A
   357 0001:0005A91F   359 0001:0005A950   359 0001:0005A957

Line numbers for WeaponAimNTrajectory(plugins\WeaponAimNTrajectory.pas) segment .text

    47 0001:0005A958    51 0001:0005A95C    54 0001:0005A960    55 0001:0005A964
    57 0001:0005A97E    63 0001:0005A9A8    68 0001:0005A9C9    73 0001:0005A9EA
    78 0001:0005AA0B    83 0001:0005AA2C   104 0001:0005AA4D   106 0001:0005AA57
   107 0001:0005AA5F   112 0001:0005AB64   113 0001:0005AB6A   114 0001:0005AB6F
   116 0001:0005AB79   117 0001:0005AB87   119 0001:0005AB96   120 0001:0005ABAB
   122 0001:0005ABBC   123 0001:0005ABCA   124 0001:0005ABE7   125 0001:0005AC05
   129 0001:0005AC24   143 0001:0005AC2C   144 0001:0005AC2E   145 0001:0005AC2F
   146 0001:0005AC30   147 0001:0005AC34   148 0001:0005AC39   149 0001:0005AC3B
   150 0001:0005AC3F   151 0001:0005AC44   152 0001:0005AC46   153 0001:0005AC4A
   154 0001:0005AC4F   155 0001:0005AC51   156 0001:0005AC55   157 0001:0005AC5A
   159 0001:0005AC5C   160 0001:0005AC63   162 0001:0005AC65   164 0001:0005AC67
   165 0001:0005AC68   166 0001:0005AC69   167 0001:0005AC6B   168 0001:0005AC6C
   169 0001:0005AC71   170 0001:0005AC73   171 0001:0005AC75   173 0001:0005AC77
   174 0001:0005AC78   175 0001:0005AC79   176 0001:0005AC7B   177 0001:0005AC7C
   178 0001:0005AC81   179 0001:0005AC83   181 0001:0005AC85   182 0001:0005AC86
   183 0001:0005AC87   184 0001:0005AC88   185 0001:0005AC89   186 0001:0005AC8B
   187 0001:0005AC8E   189 0001:0005AC90   190 0001:0005AC95   192 0001:0005AC9A
   193 0001:0005AC9B   194 0001:0005AC9C   195 0001:0005AC9D   196 0001:0005AC9E
   197 0001:0005ACA0   198 0001:0005ACA3   200 0001:0005ACA5   201 0001:0005ACAA
   203 0001:0005ACAF   204 0001:0005ACB4   205 0001:0005ACB9   217 0001:0005ACBC
   218 0001:0005ACBD   219 0001:0005ACBE   220 0001:0005ACC0   221 0001:0005ACC3
   222 0001:0005ACC4   223 0001:0005ACC9   224 0001:0005ACCB   225 0001:0005ACCD
   226 0001:0005ACCE   227 0001:0005ACCF   228 0001:0005ACD2   229 0001:0005ACD4
   230 0001:0005ACD9   232 0001:0005ACDE   233 0001:0005ACDF   235 0001:0005ACE0
   236 0001:0005ACE5   237 0001:0005ACEA   244 0001:0005ACEC   245 0001:0005AD05
   247 0001:0005AD0B   248 0001:0005AD19   250 0001:0005AD28   252 0001:0005AD3D
   253 0001:0005AD5E   255 0001:0005AD64   256 0001:0005AD6A   259 0001:0005AD9E
   270 0001:0005ADA4   271 0001:0005ADA5   272 0001:0005ADA6   273 0001:0005ADA7
   274 0001:0005ADAC   275 0001:0005ADAD   276 0001:0005ADB3   277 0001:0005ADB8
   278 0001:0005ADBD   516 0001:0005ADC0   517 0001:0005ADC1   518 0001:0005ADC2
   519 0001:0005ADC3   520 0001:0005ADC5   521 0001:0005ADC6   522 0001:0005ADCB
   523 0001:0005ADCD   524 0001:0005ADCF   525 0001:0005ADD0   526 0001:0005ADD1
   527 0001:0005ADD2   529 0001:0005ADD4   530 0001:0005ADD5   531 0001:0005ADD6
   532 0001:0005ADD7   533 0001:0005ADDD   534 0001:0005ADE0   535 0001:0005ADE3
   537 0001:0005ADE5   538 0001:0005ADEA   539 0001:0005ADEC   540 0001:0005ADF1
   542 0001:0005ADF6   543 0001:0005ADFB   545 0001:0005AE00   546 0001:0005AE05
   547 0001:0005AE0A   563 0001:0005AE0C   564 0001:0005AE10   565 0001:0005AE12
   566 0001:0005AE15   567 0001:0005AE16   568 0001:0005AE17   569 0001:0005AE18
   570 0001:0005AE1A   571 0001:0005AE1B   572 0001:0005AE20   573 0001:0005AE22
   574 0001:0005AE24   575 0001:0005AE26   577 0001:0005AE28   578 0001:0005AE29
   579 0001:0005AE2A   580 0001:0005AE2B   581 0001:0005AE2D   582 0001:0005AE31
   583 0001:0005AE32   584 0001:0005AE36   585 0001:0005AE39   586 0001:0005AE3A
   587 0001:0005AE3B   588 0001:0005AE41   589 0001:0005AE43   590 0001:0005AE45
   591 0001:0005AE47   592 0001:0005AE4B   593 0001:0005AE4C   594 0001:0005AE4D
   595 0001:0005AE53   596 0001:0005AE55   597 0001:0005AE57   598 0001:0005AE5D
   599 0001:0005AE60   600 0001:0005AE63   602 0001:0005AE65   604 0001:0005AE6A
   606 0001:0005AE6F   607 0001:0005AE74   608 0001:0005AE79   610 0001:0005AE7E
   611 0001:0005AE83   612 0001:0005AE88   614 0001:0005AE8D   615 0001:0005AE8E
   616 0001:0005AE8F   617 0001:0005AE90   618 0001:0005AE95   619 0001:0005AE9A
   621 0001:0005AECC   621 0001:0005AED3

Line numbers for TAExceptionsLog(plugins\TAExceptionsLog.pas) segment .text

    43 0001:0005AED4    47 0001:0005AED8    50 0001:0005AEDC    51 0001:0005AEE0
    53 0001:0005AEFA    64 0001:0005AF21    69 0001:0005AF42    74 0001:0005AF63
    75 0001:0005AF6E    85 0001:0005AF8F    87 0001:0005AF99    88 0001:0005AFA1
    93 0001:0005B008    94 0001:0005B023    95 0001:0005B02C   103 0001:0005B112
   104 0001:0005B148   125 0001:0005B1FC   126 0001:0005B1FD   127 0001:0005B1FF
   131 0001:0005B201   132 0001:0005B205   133 0001:0005B206   134 0001:0005B207
   136 0001:0005B208   137 0001:0005B20C   138 0001:0005B210   139 0001:0005B214
   140 0001:0005B218   141 0001:0005B219   142 0001:0005B21A   143 0001:0005B21B
   144 0001:0005B21C   145 0001:0005B221   146 0001:0005B224   147 0001:0005B229
   149 0001:0005B22E   150 0001:0005B231   151 0001:0005B232   152 0001:0005B237
   153 0001:0005B23C   159 0001:0005B240   160 0001:0005B25E   161 0001:0005B263
   162 0001:0005B268   164 0001:0005B282   165 0001:0005B292   166 0001:0005B29E
   168 0001:0005B2AA   170 0001:0005B2B4   171 0001:0005B2BA   173 0001:0005B306
   175 0001:0005B354   176 0001:0005B3A0   182 0001:0005B488   183 0001:0005B489
   184 0001:0005B48B   185 0001:0005B48D   186 0001:0005B48F   187 0001:0005B491
   188 0001:0005B495   189 0001:0005B496   190 0001:0005B497   191 0001:0005B49C
   192 0001:0005B4A1   194 0001:0005B4A6   195 0001:0005B4A8   196 0001:0005B4AB
   197 0001:0005B4AC   198 0001:0005B4B1   199 0001:0005B4B6   210 0001:0005B4B8
   211 0001:0005B4CF   212 0001:0005B53F   218 0001:0005B5A8   219 0001:0005B5AC
   220 0001:0005B5AD   221 0001:0005B5AE   222 0001:0005B5B4   223 0001:0005B5BA
   224 0001:0005B5BD   225 0001:0005B5BF   226 0001:0005B5C0   227 0001:0005B5C1
   228 0001:0005B5C2   229 0001:0005B5C7   231 0001:0005B5CC   232 0001:0005B5CD
   233 0001:0005B5CE   234 0001:0005B5CF   235 0001:0005B5D0   236 0001:0005B5D5
   237 0001:0005B5D7   238 0001:0005B5DC   239 0001:0005B5E1   241 0001:0005B614
   241 0001:0005B61B

Line numbers for Colors(plugins\Colors.pas) segment .text

    40 0001:0005B61C    41 0001:0005B645    44 0001:0005B65D    45 0001:0005B663
    46 0001:0005B67D    47 0001:0005B687    51 0001:0005B6BD    52 0001:0005B6C3
    53 0001:0005B6E9    54 0001:0005B6EF    57 0001:0005B722    58 0001:0005B728
    61 0001:0005B779    66 0001:0005B780    67 0001:0005B784    69 0001:0005B789
    71 0001:0005B7A7    72 0001:0005B836    73 0001:0005B84E    74 0001:0005B866
    75 0001:0005B87E    76 0001:0005B896    77 0001:0005B8AE    78 0001:0005B8C6
    79 0001:0005B8DE    80 0001:0005B8F6    81 0001:0005B90E    82 0001:0005B926
    83 0001:0005B93E    84 0001:0005B956    85 0001:0005B96E    86 0001:0005B986
    87 0001:0005B99E    88 0001:0005B9B6    89 0001:0005B9CE    90 0001:0005B9E6
    91 0001:0005B9FB    92 0001:0005BA10    93 0001:0005BA25    94 0001:0005BA3A
    95 0001:0005BA4F    96 0001:0005BA64    99 0001:0005BA79    67 0001:0005BA7C
   100 0001:0005BA86   104 0001:0005BA8C   107 0001:0005BA90   108 0001:0005BA94
   111 0001:0005BAA6   115 0001:0005BAD0   119 0001:0005BADA   120 0001:0005BAE2
   122 0001:0005BB28   122 0001:0005BB2F

Line numbers for ClockPosition(plugins\ClockPosition.pas) segment .text

    42 0001:0005BB30    46 0001:0005BB34    54 0001:0005BB38    55 0001:0005BB3E
    57 0001:0005BB58    58 0001:0005BB60    59 0001:0005BB68    60 0001:0005BB6E
    62 0001:0005BB74    68 0001:0005BB9E    73 0001:0005BBB0    75 0001:0005BBD0
    80 0001:0005BBF0    82 0001:0005BC10    88 0001:0005BC33    94 0001:0005BC56
   100 0001:0005BC79   108 0001:0005BC9A   110 0001:0005BCA4   111 0001:0005BCAC
   115 0001:0005BDC0   116 0001:0005BDC1   117 0001:0005BDC6   118 0001:0005BDCA
   119 0001:0005BDCB   120 0001:0005BDCC   121 0001:0005BDD2   122 0001:0005BDD7
   123 0001:0005BDDC   127 0001:0005BDE0   128 0001:0005BDE1   129 0001:0005BDE7
   130 0001:0005BDED   131 0001:0005BDF0   132 0001:0005BDF1   133 0001:0005BDF5
   134 0001:0005BDF6   135 0001:0005BDF7   136 0001:0005BDFD   137 0001:0005BE02
   138 0001:0005BE07   142 0001:0005BE08   143 0001:0005BE0A   144 0001:0005BE0F
   145 0001:0005BE13   146 0001:0005BE14   147 0001:0005BE15   148 0001:0005BE1B
   149 0001:0005BE20   150 0001:0005BE25   154 0001:0005BE28   155 0001:0005BE2A
   156 0001:0005BE30   157 0001:0005BE36   158 0001:0005BE39   159 0001:0005BE3A
   160 0001:0005BE3E   161 0001:0005BE3F   162 0001:0005BE40   163 0001:0005BE46
   164 0001:0005BE4B   165 0001:0005BE50   167 0001:0005BE84   167 0001:0005BE8B

Line numbers for GUIEnhancements(plugins\GUIEnhancements.pas) segment .text

    65 0001:0005BEA4    67 0001:0005BEB6    68 0001:0005BEC4    69 0001:0005BED4
    70 0001:0005BEE2    71 0001:0005BEF2    72 0001:0005BF00    73 0001:0005BF10
    74 0001:0005BF1E    75 0001:0005BF2E    76 0001:0005BF3C    78 0001:0005BF4C
    82 0001:0005BF50    86 0001:0005BF54    87 0001:0005BF58    89 0001:0005BF72
    95 0001:0005BF9C    98 0001:0005BFC6   103 0001:0005BFE7   108 0001:0005C008
   109 0001:0005C016   114 0001:0005C037   119 0001:0005C058   124 0001:0005C079
   129 0001:0005C09A   130 0001:0005C0A8   135 0001:0005C0C9   136 0001:0005C0D7
   146 0001:0005C0F8   148 0001:0005C102   149 0001:0005C10A   204 0001:0005C24C
   205 0001:0005C284   206 0001:0005C289   208 0001:0005C28F   211 0001:0005C2B7
   212 0001:0005C2C3   214 0001:0005C2DE   220 0001:0005C318   222 0001:0005C337
   224 0001:0005C341   225 0001:0005C34F   227 0001:0005C35B   229 0001:0005C366
   230 0001:0005C372   231 0001:0005C378   233 0001:0005C38A   234 0001:0005C395
   236 0001:0005C3A0   237 0001:0005C3B6   239 0001:0005C3C1   240 0001:0005C3D7
   242 0001:0005C3E2   243 0001:0005C3F8   245 0001:0005C400   246 0001:0005C416
   248 0001:0005C41E   249 0001:0005C429   252 0001:0005C431   253 0001:0005C43F
   256 0001:0005C464   259 0001:0005C498   261 0001:0005C4BD   262 0001:0005C4D6
   263 0001:0005C4EF   264 0001:0005C505   266 0001:0005C51B   267 0001:0005C535
   268 0001:0005C543   269 0001:0005C551   271 0001:0005C55F   272 0001:0005C5C0
   274 0001:0005C5DC   276 0001:0005C5FA   278 0001:0005C610   279 0001:0005C61A
   281 0001:0005C648   283 0001:0005C676   286 0001:0005C6A4   288 0001:0005C6BA
   289 0001:0005C6C4   291 0001:0005C6EA   293 0001:0005C710   298 0001:0005C734
   301 0001:0005C758   305 0001:0005C777   306 0001:0005C77C   307 0001:0005C781
   309 0001:0005C785   311 0001:0005C78E   312 0001:0005C7A6   313 0001:0005C7AA
   315 0001:0005C7CF   316 0001:0005C7DF   319 0001:0005C7F5   321 0001:0005C7FE
   322 0001:0005C816   323 0001:0005C81A   325 0001:0005C83F   326 0001:0005C84F
   329 0001:0005C865   331 0001:0005C86E   332 0001:0005C886   333 0001:0005C88A
   335 0001:0005C8AF   336 0001:0005C8BF   341 0001:0005C8D5   342 0001:0005C8D9
   343 0001:0005C8E7   344 0001:0005C91D   346 0001:0005C946   347 0001:0005C96F
   348 0001:0005C998   351 0001:0005C99C   353 0001:0005C9A6   354 0001:0005C9AC
   357 0001:0005C9BF   358 0001:0005C9CA   361 0001:0005C9D5   362 0001:0005C9DB
   365 0001:0005C9E0   369 0001:0005C9FA   371 0001:0005CA03   372 0001:0005CA0A
   374 0001:0005CA25   377 0001:0005CA2A   379 0001:0005CA34   380 0001:0005CA4A
   381 0001:0005CA60   382 0001:0005CA80   386 0001:0005CAA0   388 0001:0005CABA
   389 0001:0005CAC8   390 0001:0005CAD6   391 0001:0005CAE4   393 0001:0005CB21
   395 0001:0005CB27   396 0001:0005CB3D   398 0001:0005CB6B   401 0001:0005CB94
   402 0001:0005CBB8   403 0001:0005CBCE   405 0001:0005CBE7   406 0001:0005CBEB
   407 0001:0005CC37   408 0001:0005CC65   409 0001:0005CC9D   410 0001:0005CCD5
   411 0001:0005CD0D   412 0001:0005CD42   413 0001:0005CD77   423 0001:0005CDAA
   425 0001:0005CDBC   426 0001:0005CDCC   431 0001:0005CDE8   434 0001:0005CDFA
   436 0001:0005CE17   437 0001:0005CE32   439 0001:0005CE3C   440 0001:0005CE42
   442 0001:0005CE4A   443 0001:0005CE6A   445 0001:0005CE75   446 0001:0005CE7D
   447 0001:0005CE85   450 0001:0005CEA5   451 0001:0005CEC3   452 0001:0005CEF5
   456 0001:0005CF0F   457 0001:0005CF2D   458 0001:0005CF5F   462 0001:0005CF79
   463 0001:0005CF96   465 0001:0005CFA1   466 0001:0005CFC7   467 0001:0005CFED
   469 0001:0005CFFD   470 0001:0005D014   475 0001:0005D03D   476 0001:0005D05B
   477 0001:0005D07A   479 0001:0005D085   480 0001:0005D09C   481 0001:0005D0C8
   482 0001:0005D100   483 0001:0005D117   488 0001:0005D12C   493 0001:0005D177
   494 0001:0005D18D   495 0001:0005D1A3   496 0001:0005D1B9   498 0001:0005D1CF
   500 0001:0005D1E9   501 0001:0005D1F7   502 0001:0005D205   503 0001:0005D213
   505 0001:0005D272   506 0001:0005D2C4   507 0001:0005D2DA   509 0001:0005D2F6
   510 0001:0005D2FD   511 0001:0005D337   512 0001:0005D368   513 0001:0005D3A3
   514 0001:0005D3DB   515 0001:0005D413   525 0001:0005D449   526 0001:0005D457
   527 0001:0005D460   530 0001:0005D4A5   532 0001:0005D4B7   534 0001:0005D4CC
   535 0001:0005D4EE   537 0001:0005D4F5   539 0001:0005D518   542 0001:0005D527
   546 0001:0005D52E   549 0001:0005D53B   557 0001:0005D545   558 0001:0005D555
   559 0001:0005D55F   562 0001:0005D5DE   563 0001:0005D601   565 0001:0005D60B
   566 0001:0005D61B   567 0001:0005D628   569 0001:0005D638   571 0001:0005D642
   572 0001:0005D666   573 0001:0005D66C   574 0001:0005D673   575 0001:0005D67B
   576 0001:0005D682   577 0001:0005D68E   578 0001:0005D694   580 0001:0005D6B4
   581 0001:0005D6BA   583 0001:0005D6DA   585 0001:0005D6F8   588 0001:0005D753
   596 0001:0005D773   599 0001:0005D7A4   600 0001:0005D7A8   602 0001:0005D7B4
   603 0001:0005D7C6   605 0001:0005D7CC   607 0001:0005D7D0   609 0001:0005D7D6
   610 0001:0005D7EC   615 0001:0005D84C   624 0001:0005D8A8   625 0001:0005D902
   626 0001:0005D907   627 0001:0005D922   628 0001:0005D929   630 0001:0005D935
   631 0001:0005D945   633 0001:0005D957   634 0001:0005D975   635 0001:0005D983
   638 0001:0005D9D3   639 0001:0005D9E0   643 0001:0005DA30   644 0001:0005DA4E
   645 0001:0005DA5C   648 0001:0005DAA9   649 0001:0005DAB6   652 0001:0005DB01
   654 0001:0005DB24   655 0001:0005DB34   657 0001:0005DB46   658 0001:0005DB64
   659 0001:0005DB72   662 0001:0005DBC2   663 0001:0005DBCF   667 0001:0005DC1F
   668 0001:0005DC3D   669 0001:0005DC4B   672 0001:0005DC98   673 0001:0005DCA5
   676 0001:0005DCF0   677 0001:0005DD5A   680 0001:0005DDF0   682 0001:0005DDF3
   684 0001:0005DE03   685 0001:0005DE18   686 0001:0005DE25   687 0001:0005DE3A
   689 0001:0005DE47   693 0001:0005DE4C   694 0001:0005DE50   695 0001:0005DE51
   696 0001:0005DE52   697 0001:0005DE57   698 0001:0005DE58   699 0001:0005DE5A
   700 0001:0005DE5F   701 0001:0005DE64   705 0001:0005DE68   706 0001:0005DE6C
   707 0001:0005DE6D   708 0001:0005DE6E   709 0001:0005DE6F   710 0001:0005DE70
   711 0001:0005DE75   712 0001:0005DE7A   713 0001:0005DE7F   717 0001:0005DE80
   718 0001:0005DE86   719 0001:0005DE8C   720 0001:0005DE91   721 0001:0005DE92
   722 0001:0005DE99   723 0001:0005DE9A   724 0001:0005DE9E   725 0001:0005DE9F
   726 0001:0005DEA0   727 0001:0005DEA6   728 0001:0005DEAA   729 0001:0005DEAC
   730 0001:0005DEB1   732 0001:0005DEB2   733 0001:0005DEB3   735 0001:0005DEB7
   736 0001:0005DEB8   737 0001:0005DEBD   738 0001:0005DEC2   739 0001:0005DEC7
   752 0001:0005DEC8   753 0001:0005DECE   754 0001:0005DED3   755 0001:0005DEE3
   757 0001:0005DEEF   758 0001:0005DF1E   760 0001:0005DF4D   775 0001:0005DF68
   776 0001:0005DF91   777 0001:0005DFBB   781 0001:0005DFE9   782 0001:0005E012
   784 0001:0005E02D   785 0001:0005E03D   792 0001:0005E065   793 0001:0005E08E
   794 0001:0005E0A0   796 0001:0005E0A6   797 0001:0005E0B8   799 0001:0005E0E3
   801 0001:0005E0E7   808 0001:0005E178   809 0001:0005E1A1   811 0001:0005E1B3
   813 0001:0005E1B9   814 0001:0005E1BD   816 0001:0005E1E8   818 0001:0005E21E
   824 0001:0005E2B0   832 0001:0005E2C0   833 0001:0005E2C1   834 0001:0005E2C8
   835 0001:0005E2CA   836 0001:0005E2CB   839 0001:0005E2CD   840 0001:0005E2CE
   841 0001:0005E2D1   842 0001:0005E2D4   843 0001:0005E2D7   844 0001:0005E2D8
   845 0001:0005E2DA   846 0001:0005E2DB   847 0001:0005E2DC   848 0001:0005E2DD
   849 0001:0005E2DE   852 0001:0005E2E4   853 0001:0005E2E7   854 0001:0005E2EA
   855 0001:0005E2ED   856 0001:0005E2EE   857 0001:0005E2EF   858 0001:0005E2F2
   859 0001:0005E2F3   860 0001:0005E2F4   861 0001:0005E2F5   862 0001:0005E2F6
   865 0001:0005E2FC   866 0001:0005E2FF   867 0001:0005E302   868 0001:0005E305
   869 0001:0005E306   870 0001:0005E307   871 0001:0005E30A   872 0001:0005E30B
   873 0001:0005E30C   874 0001:0005E30D   875 0001:0005E30E   878 0001:0005E314
   879 0001:0005E317   880 0001:0005E319   881 0001:0005E31C   882 0001:0005E31D
   883 0001:0005E31E   884 0001:0005E321   885 0001:0005E322   886 0001:0005E323
   887 0001:0005E324   888 0001:0005E325   889 0001:0005E32B   891 0001:0005E32D
   892 0001:0005E331   893 0001:0005E332   894 0001:0005E335   895 0001:0005E338
   896 0001:0005E339   897 0001:0005E33A   898 0001:0005E33C   899 0001:0005E33F
   900 0001:0005E340   901 0001:0005E341   902 0001:0005E342   903 0001:0005E345
   904 0001:0005E346   906 0001:0005E34B   907 0001:0005E350   908 0001:0005E355
   914 0001:0005E358   915 0001:0005E359   916 0001:0005E360   917 0001:0005E363
   918 0001:0005E364   919 0001:0005E366   920 0001:0005E36B   921 0001:0005E370
   923 0001:0005E375   924 0001:0005E37B   925 0001:0005E380   926 0001:0005E385
   931 0001:0005E388   932 0001:0005E391   933 0001:0005E39D   935 0001:0005E3A7
   936 0001:0005E3B4   937 0001:0005E3C0   938 0001:0005E3CC   939 0001:0005E3D8
   940 0001:0005E3E4   941 0001:0005E3F0   942 0001:0005E3FA   943 0001:0005E405
   944 0001:0005E410   945 0001:0005E41B   946 0001:0005E426   947 0001:0005E431
   948 0001:0005E43C   949 0001:0005E447   951 0001:0005E452   955 0001:0005E458
   956 0001:0005E45B   957 0001:0005E45D   958 0001:0005E463   959 0001:0005E465
   960 0001:0005E467   961 0001:0005E46A   965 0001:0005E46C   966 0001:0005E476
   967 0001:0005E482   968 0001:0005E48F   969 0001:0005E49B   971 0001:0005E4A1
   972 0001:0005E4AB   974 0001:0005E4B6   976 0001:0005E4C2   977 0001:0005E4D5
   979 0001:0005E4E0   981 0001:0005E4E8   982 0001:0005E502   983 0001:0005E512
   985 0001:0005E519   986 0001:0005E525   987 0001:0005E532   993 0001:0005E538
   994 0001:0005E540   995 0001:0005E54F   997 0001:0005E559  1000 0001:0005E58C
  1001 0001:0005E5AC  1002 0001:0005E5CF  1005 0001:0005E5F2  1006 0001:0005E607
  1007 0001:0005E61C  1009 0001:0005E630  1010 0001:0005E645  1011 0001:0005E66B
  1013 0001:0005E691  1014 0001:0005E6BA  1016 0001:0005E6CB  1017 0001:0005E707
  1018 0001:0005E712  1019 0001:0005E751  1021 0001:0005E75C  1023 0001:0005E76A
  1026 0001:0005E779  1027 0001:0005E784  1028 0001:0005E78F  1029 0001:0005E79E
  1031 0001:0005E7AB  1032 0001:0005E7C3  1034 0001:0005E7D3  1036 0001:0005E7E1
  1038 0001:0005E7F4  1039 0001:0005E7FE  1044 0001:0005E811  1048 0001:0005E81C
  1049 0001:0005E820  1050 0001:0005E821  1051 0001:0005E826  1052 0001:0005E82C
  1053 0001:0005E831  1054 0001:0005E836  1060 0001:0005E838  1062 0001:0005E840
  1064 0001:0005E84D  1065 0001:0005E85C  1067 0001:0005E866  1068 0001:0005E87B
  1069 0001:0005E892  1070 0001:0005E8B5  1071 0001:0005E8BC  1072 0001:0005E8C3
  1074 0001:0005E8D8  1075 0001:0005E8FE  1077 0001:0005E924  1078 0001:0005E94D
  1080 0001:0005E95E  1081 0001:0005E971  1082 0001:0005E97C  1083 0001:0005E98F
  1085 0001:0005E99A  1087 0001:0005E9A8  1090 0001:0005E9B7  1091 0001:0005E9C2
  1093 0001:0005E9CF  1094 0001:0005E9E6  1096 0001:0005E9F6  1098 0001:0005EA04
  1100 0001:0005EA17  1101 0001:0005EA21  1105 0001:0005EA34  1113 0001:0005EA3C
  1114 0001:0005EA3E  1115 0001:0005EA3F  1116 0001:0005EA43  1117 0001:0005EA44
  1118 0001:0005EA45  1119 0001:0005EA46  1120 0001:0005EA4B  1121 0001:0005EA4C
  1122 0001:0005EA4F  1123 0001:0005EA54  1124 0001:0005EA59  1132 0001:0005EA5C
  1133 0001:0005EA63  1134 0001:0005EA6A  1135 0001:0005EA6D  1137 0001:0005EA6F
  1138 0001:0005EA75  1139 0001:0005EA77  1140 0001:0005EA79  1141 0001:0005EA7C
  1142 0001:0005EA82  1143 0001:0005EA85  1144 0001:0005EA87  1145 0001:0005EA8A
  1146 0001:0005EA8C  1147 0001:0005EA8E  1148 0001:0005EA91  1149 0001:0005EA94
  1151 0001:0005EA97  1152 0001:0005EA99  1153 0001:0005EA9C  1154 0001:0005EAA1
  1155 0001:0005EAA3  1157 0001:0005EAA6  1158 0001:0005EAA8  1160 0001:0005EAAA
  1161 0001:0005EAAD  1162 0001:0005EAAF  1163 0001:0005EAB4  1164 0001:0005EAB9
  1166 0001:0005EABB  1167 0001:0005EAC0  1169 0001:0005EAC5  1170 0001:0005EACA
  1171 0001:0005EACF  1269 0001:0005EB0C  1269 0001:0005EB13

Line numbers for BattlerRoomMemFix(plugins\BattlerRoomMemFix.pas) segment .text

    48 0001:0005EB14    52 0001:0005EB1C    56 0001:0005EB20    59 0001:0005EB24
    60 0001:0005EB28    62 0001:0005EB3A    68 0001:0005EB61    73 0001:0005EB7F
    75 0001:0005EB89    76 0001:0005EB91    82 0001:0005EB94    83 0001:0005EB9D
    84 0001:0005EBA3    85 0001:0005EBB2    86 0001:0005EBB9    87 0001:0005EBC7
    88 0001:0005EBD4    90 0001:0005EC00    92 0001:0005EC19    95 0001:0005EC25
    96 0001:0005EC2E    98 0001:0005EC36    99 0001:0005EC4D   112 0001:0005EC54
   113 0001:0005EC55   114 0001:0005EC56   115 0001:0005EC57   116 0001:0005EC5C
   117 0001:0005EC5E   118 0001:0005EC60   119 0001:0005EC61   120 0001:0005EC68
   121 0001:0005EC69   122 0001:0005EC6A   123 0001:0005EC6F   125 0001:0005EC74
   126 0001:0005EC75   127 0001:0005EC76   128 0001:0005EC77   129 0001:0005EC7D
   130 0001:0005EC82   131 0001:0005EC87   133 0001:0005ECB8   133 0001:0005ECBF

Line numbers for Plugins(Plugins.pas) segment .text

    45 0001:0005ECC0    47 0001:0005ECC7    49 0001:0005ECD1    50 0001:0005ECDB
    52 0001:0005ECE5    53 0001:0005ECEF    54 0001:0005ECF9    55 0001:0005ED03
    56 0001:0005ED0D    58 0001:0005ED17    59 0001:0005ED21    60 0001:0005ED2B
    63 0001:0005ED35    64 0001:0005ED3F    65 0001:0005ED49    67 0001:0005ED53
    68 0001:0005ED5E    69 0001:0005ED68    70 0001:0005ED72    71 0001:0005ED7C
    72 0001:0005ED86    74 0001:0005ED90    75 0001:0005ED9E    76 0001:0005EDA8
    78 0001:0005EDB2    79 0001:0005EDBD    80 0001:0005EDC7    81 0001:0005EDD1
    82 0001:0005EDDB    83 0001:0005EDE5    84 0001:0005EDEF    85 0001:0005EDFA
    88 0001:0005EE04    89 0001:0005EE0C    92 0001:0005EE10    93 0001:0005EE13
    94 0001:0005EE18    96 0001:0005EE4C    96 0001:0005EE53

Line numbers for InitCode(InitCode.pas) segment .text

    87 0001:0005EE54    88 0001:0005EE58    89 0001:0005EE5F    90 0001:0005EE69
    91 0001:0005EE7B    93 0001:0005EE85    94 0001:0005EE9C    95 0001:0005EEA5
    97 0001:0005EEB5   103 0001:0005EEE8   108 0001:0005EF0C   109 0001:0005EF1A
   111 0001:0005EF24   114 0001:0005EF29   118 0001:0005EF34   119 0001:0005EF3F
   121 0001:0005EF48   122 0001:0005EF65   124 0001:0005EF9D   125 0001:0005EFA7
   127 0001:0005EFD7   128 0001:0005EFE1   129 0001:0005F001   130 0001:0005F028
   131 0001:0005F031   132 0001:0005F042   133 0001:0005F04B   134 0001:0005F05C
   135 0001:0005F067   137 0001:0005F07A   138 0001:0005F0A1   139 0001:0005F0AB
   140 0001:0005F0D9   144 0001:0005F0F5   150 0001:0005F0FE   155 0001:0005F129
   164 0001:0005F12E   166 0001:0005F151   168 0001:0005F154   169 0001:0005F15C
   172 0001:0005F188   175 0001:0005F2E0   176 0001:0005F2E3   177 0001:0005F2E8
   179 0001:0005F2ED   181 0001:0005F2F6   182 0001:0005F303   185 0001:0005F30C
   187 0001:0005F316   189 0001:0005F348   190 0001:0005F354   191 0001:0005F361
   192 0001:0005F36E

Line numbers for InitCode_CoreExePatching(InitCode_CoreExePatching.pas) segment .text

    50 0001:0005F370    51 0001:0005F378    53 0001:0005F37E    54 0001:0005F388
    56 0001:0005F392    71 0001:0005F398    72 0001:0005F39F    73 0001:0005F3A9
    74 0001:0005F3B3    75 0001:0005F3C1    77 0001:0005F3E8    79 0001:0005F3EB
    80 0001:0005F3F3    81 0001:0005F405    84 0001:0005F40F    88 0001:0005F418
    92 0001:0005F41D    93 0001:0005F422    94 0001:0005F423    96 0001:0005F454
    97 0001:0005F460    98 0001:0005F46D   102 0001:0005F47A   103 0001:0005F484
   104 0001:0005F48E   106 0001:0005F498   107 0001:0005F4A2

Line numbers for threadlogging(threadlogging.pas) segment .text

   145 0001:0005F4D4   145 0001:0005F4DB

Line numbers for StartBuilding(plugins\StartBuilding.pas) segment .text

    96 0001:0005F50C    96 0001:0005F513

Line numbers for KillDamage(plugins\KillDamage.pas) segment .text

    96 0001:0005F544    96 0001:0005F54B

Line numbers for dplayx(F:\TA\TADR\SVN\trunk\src\Recorder\Dplayx.dpr) segment .text

    74 0001:0005F9D4    75 0001:0005F9E4

Bound resource files

dplayx.res
dplayx.drf


Program entry point at 0001:0005F9D4
