
 Start         Length     Name                   Class
 0001:00000000 0003DD18H .text                   CODE
 0002:00000000 00000C34H .data                   DATA
 0002:00000C34 00000A79H .bss                    BSS


Detailed map of segments

 0001:00000000 0000565B C=CODE     S=.text    G=(none)   M=System   ACBP=A9
 0001:0000565C 000001CC C=CODE     S=.text    G=(none)   M=SysInit  ACBP=A9
 0001:00005828 00000038 C=CODE     S=.text    G=(none)   M=Types    ACBP=A9
 0001:00005860 0000036C C=CODE     S=.text    G=(none)   M=Windows  ACBP=A9
 0001:00005BCC 00000038 C=CODE     S=.text    G=(none)   M=Messages ACBP=A9
 0001:00005C04 00000348 C=CODE     S=.text    G=(none)   M=SysConst ACBP=A9
 0001:00005F4C 00007624 C=CODE     S=.text    G=(none)   M=SysUtils ACBP=A9
 0001:0000D570 00000887 C=CODE     S=.text    G=(none)   M=VarUtils ACBP=A9
 0001:0000DDF8 0000280E C=CODE     S=.text    G=(none)   M=Variants ACBP=A9
 0001:00010608 000000C8 C=CODE     S=.text    G=(none)   M=RTLConsts ACBP=A9
 0001:000106D0 00000084 C=CODE     S=.text    G=(none)   M=TypInfo  ACBP=A9
 0001:00010754 00000038 C=CODE     S=.text    G=(none)   M=ActiveX  ACBP=A9
 0001:0001078C 0000478E C=CODE     S=.text    G=(none)   M=Classes  ACBP=A9
 0001:00014F1C 000003DC C=CODE     S=.text    G=(none)   M=ListsU   ACBP=A9
 0001:000152F8 00000050 C=CODE     S=.text    G=(none)   M=MMSystem ACBP=A9
 0001:00015348 000001DC C=CODE     S=.text    G=(none)   M=SyncObjs ACBP=A9
 0001:00015524 00001AD4 C=CODE     S=.text    G=(none)   M=GPHugeF  ACBP=A9
 0001:00016FF8 00000038 C=CODE     S=.text    G=(none)   M=Consts   ACBP=A9
 0001:00017030 0000061C C=CODE     S=.text    G=(none)   M=textdata ACBP=A9
 0001:0001764C 00000038 C=CODE     S=.text    G=(none)   M=Math     ACBP=A9
 0001:00017684 00000194 C=CODE     S=.text    G=(none)   M=Contnrs  ACBP=A9
 0001:00017818 00000FA0 C=CODE     S=.text    G=(none)   M=uDebug   ACBP=A9
 0001:000187B8 00000060 C=CODE     S=.text    G=(none)   M=FreeListU ACBP=A9
 0001:00018818 00000040 C=CODE     S=.text    G=(none)   M=SHFolder ACBP=A9
 0001:00018858 00000B78 C=CODE     S=.text    G=(none)   M=TADemoConsts ACBP=A9
 0001:000193D0 00000330 C=CODE     S=.text    G=(none)   M=TextFileU ACBP=A9
 0001:00019700 00000A74 C=CODE     S=.text    G=(none)   M=logging  ACBP=A9
 0001:0001A174 000019A4 C=CODE     S=.text    G=(none)   M=DPlay    ACBP=A9
 0001:0001BB18 00000124 C=CODE     S=.text    G=(none)   M=DPLobby  ACBP=A9
 0001:0001BC3C 00000450 C=CODE     S=.text    G=(none)   M=MemMappedDataStructure ACBP=A9
 0001:0001C08C 00000068 C=CODE     S=.text    G=(none)   M=PacketBufferU ACBP=A9
 0001:0001C0F4 00000388 C=CODE     S=.text    G=(none)   M=log2     ACBP=A9
 0001:0001C47C 000008D8 C=CODE     S=.text    G=(none)   M=statslogging ACBP=A9
 0001:0001CD54 000010D4 C=CODE     S=.text    G=(none)   M=IniFiles ACBP=A9
 0001:0001DE28 00000E0C C=CODE     S=.text    G=(none)   M=Registry ACBP=A9
 0001:0001EC34 00001418 C=CODE     S=.text    G=(none)   M=PluginEngine ACBP=A9
 0001:0002004C 00000514 C=CODE     S=.text    G=(none)   M=TAMemManipulations ACBP=A9
 0001:00020560 000005DC C=CODE     S=.text    G=(none)   M=TA_MemoryLocations ACBP=A9
 0001:00020B3C 0000036C C=CODE     S=.text    G=(none)   M=COB_extensions ACBP=A9
 0001:00020EA8 00000394 C=CODE     S=.text    G=(none)   M=TlHelp32 ACBP=A9
 0001:0002123C 00000038 C=CODE     S=.text    G=(none)   M=TA_FunctionsU ACBP=A9
 0001:00021274 000005B4 C=CODE     S=.text    G=(none)   M=ErrorLog_ExtraData ACBP=A9
 0001:00021828 0000009C C=CODE     S=.text    G=(none)   M=Thread_marshaller ACBP=A9
 0001:000218C4 000001B0 C=CODE     S=.text    G=(none)   M=UnitLimit ACBP=A9
 0001:00021A74 00000424 C=CODE     S=.text    G=(none)   M=ModsList ACBP=A9
 0001:00021E98 00000820 C=CODE     S=.text    G=(none)   M=INI_Options ACBP=A9
 0001:000226B8 000017B0 C=CODE     S=.text    G=(none)   M=packet_old ACBP=A9
 0001:00023E68 000001EC C=CODE     S=.text    G=(none)   M=PluginCommandHandlerU ACBP=A9
 0001:00024054 00000258 C=CODE     S=.text    G=(none)   M=InputHook ACBP=A9
 0001:000242AC 0000028C C=CODE     S=.text    G=(none)   M=LOS_Radar ACBP=A9
 0001:00024538 000000CC C=CODE     S=.text    G=(none)   M=LOS_MiniMapUnits ACBP=A9
 0001:00024604 00000140 C=CODE     S=.text    G=(none)   M=LOS_PlayerSeeUnit ACBP=A9
 0001:00024744 000001B0 C=CODE     S=.text    G=(none)   M=LOS_GUIText ACBP=A9
 0001:000248F4 00000354 C=CODE     S=.text    G=(none)   M=LOS_UpdateTables ACBP=A9
 0001:00024C48 0000017C C=CODE     S=.text    G=(none)   M=LOS_AllyPlayer ACBP=A9
 0001:00024DC4 00000150 C=CODE     S=.text    G=(none)   M=LOS_extensions ACBP=A9
 0001:00024F14 00000208 C=CODE     S=.text    G=(none)   M=SpeedHack ACBP=A9
 0001:0002511C 00000038 C=CODE     S=.text    G=(none)   M=TA_NetworkingMessages ACBP=A9
 0001:00025154 00014468 C=CODE     S=.text    G=(none)   M=idplay   ACBP=A9
 0001:000395BC 0000138C C=CODE     S=.text    G=(none)   M=PlayerDataU ACBP=A9
 0001:0003A948 00000608 C=CODE     S=.text    G=(none)   M=CommandHandlerU ACBP=A9
 0001:0003AF50 0000157C C=CODE     S=.text    G=(none)   M=DPLobbyWrapper ACBP=A9
 0001:0003C4CC 00000B78 C=CODE     S=.text    G=(none)   M=Dplayx_exports ACBP=A9
 0001:0003D044 00000108 C=CODE     S=.text    G=(none)   M=PauseLock ACBP=A9
 0001:0003D14C 000001D8 C=CODE     S=.text    G=(none)   M=MultiAILimit ACBP=A9
 0001:0003D324 000000B8 C=CODE     S=.text    G=(none)   M=Plugins  ACBP=A9
 0001:0003D3DC 00000558 C=CODE     S=.text    G=(none)   M=InitCode ACBP=A9
 0001:0003D934 00000134 C=CODE     S=.text    G=(none)   M=InitCode_CoreExePatching ACBP=A9
 0001:0003DA68 00000038 C=CODE     S=.text    G=(none)   M=threadlogging ACBP=A9
 0001:0003DAA0 00000275 C=CODE     S=.text    G=(none)   M=dplayx   ACBP=A9
 0002:00000000 000000A4 C=DATA     S=.data    G=DGROUP   M=System   ACBP=A9
 0002:000000A4 00000030 C=DATA     S=.data    G=DGROUP   M=SysInit  ACBP=A9
 0002:000000D4 00000250 C=DATA     S=.data    G=DGROUP   M=SysUtils ACBP=A9
 0002:00000324 00000008 C=DATA     S=.data    G=DGROUP   M=VarUtils ACBP=A9
 0002:0000032C 00000076 C=DATA     S=.data    G=DGROUP   M=Variants ACBP=A9
 0002:000003A4 0000000C C=DATA     S=.data    G=DGROUP   M=TypInfo  ACBP=A9
 0002:000003B0 00000084 C=DATA     S=.data    G=DGROUP   M=Classes  ACBP=A9
 0002:00000434 00000020 C=DATA     S=.data    G=DGROUP   M=GPHugeF  ACBP=A9
 0002:00000454 00000400 C=DATA     S=.data    G=DGROUP   M=textdata ACBP=A9
 0002:00000854 00000004 C=DATA     S=.data    G=DGROUP   M=uDebug   ACBP=A9
 0002:00000858 00000049 C=DATA     S=.data    G=DGROUP   M=TADemoConsts ACBP=A9
 0002:000008A4 00000004 C=DATA     S=.data    G=DGROUP   M=logging  ACBP=A9
 0002:000008A8 00000020 C=DATA     S=.data    G=DGROUP   M=DPlay    ACBP=A9
 0002:000008C8 00000010 C=DATA     S=.data    G=DGROUP   M=DPLobby  ACBP=A9
 0002:000008D8 00000038 C=DATA     S=.data    G=DGROUP   M=MemMappedDataStructure ACBP=A9
 0002:00000910 00000008 C=DATA     S=.data    G=DGROUP   M=IniFiles ACBP=A9
 0002:00000918 00000008 C=DATA     S=.data    G=DGROUP   M=Registry ACBP=A9
 0002:00000920 00000007 C=DATA     S=.data    G=DGROUP   M=TA_MemoryLocations ACBP=A9
 0002:00000928 00000001 C=DATA     S=.data    G=DGROUP   M=COB_extensions ACBP=A9
 0002:0000092C 00000008 C=DATA     S=.data    G=DGROUP   M=TA_FunctionsU ACBP=A9
 0002:00000934 00000005 C=DATA     S=.data    G=DGROUP   M=UnitLimit ACBP=A9
 0002:0000093C 00000005 C=DATA     S=.data    G=DGROUP   M=packet_old ACBP=A9
 0002:00000944 0000000A C=DATA     S=.data    G=DGROUP   M=SpeedHack ACBP=A9
 0002:00000950 00000008 C=DATA     S=.data    G=DGROUP   M=idplay   ACBP=A9
 0002:00000958 00000004 C=DATA     S=.data    G=DGROUP   M=Dplayx_exports ACBP=A9
 0002:0000095C 00000008 C=DATA     S=.data    G=DGROUP   M=PauseLock ACBP=A9
 0002:00000964 00000008 C=DATA     S=.data    G=DGROUP   M=MultiAILimit ACBP=A9
 0002:00001000 0000065C C=BSS      S=.bss     G=DGROUP   M=System   ACBP=A9
 0002:0000165C 00000014 C=BSS      S=.bss     G=DGROUP   M=SysInit  ACBP=A9
 0002:00001670 00000004 C=BSS      S=.bss     G=DGROUP   M=Types    ACBP=A9
 0002:00001674 00000004 C=BSS      S=.bss     G=DGROUP   M=Windows  ACBP=A9
 0002:00001678 00000004 C=BSS      S=.bss     G=DGROUP   M=Messages ACBP=A9
 0002:0000167C 00000004 C=BSS      S=.bss     G=DGROUP   M=SysConst ACBP=A9
 0002:00001680 00000120 C=BSS      S=.bss     G=DGROUP   M=SysUtils ACBP=A9
 0002:000017A0 0000005C C=BSS      S=.bss     G=DGROUP   M=VarUtils ACBP=A9
 0002:000017FC 00000040 C=BSS      S=.bss     G=DGROUP   M=Variants ACBP=A9
 0002:0000183C 00000004 C=BSS      S=.bss     G=DGROUP   M=RTLConsts ACBP=A9
 0002:00001840 00000004 C=BSS      S=.bss     G=DGROUP   M=TypInfo  ACBP=A9
 0002:00001844 00000004 C=BSS      S=.bss     G=DGROUP   M=ActiveX  ACBP=A9
 0002:00001848 00000034 C=BSS      S=.bss     G=DGROUP   M=Classes  ACBP=A9
 0002:0000187C 00000004 C=BSS      S=.bss     G=DGROUP   M=ListsU   ACBP=A9
 0002:00001880 00000004 C=BSS      S=.bss     G=DGROUP   M=MMSystem ACBP=A9
 0002:00001884 00000004 C=BSS      S=.bss     G=DGROUP   M=SyncObjs ACBP=A9
 0002:00001888 00000004 C=BSS      S=.bss     G=DGROUP   M=GPHugeF  ACBP=A9
 0002:0000188C 00000004 C=BSS      S=.bss     G=DGROUP   M=Consts   ACBP=A9
 0002:00001890 00000004 C=BSS      S=.bss     G=DGROUP   M=textdata ACBP=A9
 0002:00001894 00000004 C=BSS      S=.bss     G=DGROUP   M=Math     ACBP=A9
 0002:00001898 00000004 C=BSS      S=.bss     G=DGROUP   M=Contnrs  ACBP=A9
 0002:0000189C 00000014 C=BSS      S=.bss     G=DGROUP   M=uDebug   ACBP=A9
 0002:000018B0 00000008 C=BSS      S=.bss     G=DGROUP   M=FreeListU ACBP=A9
 0002:000018B8 00000004 C=BSS      S=.bss     G=DGROUP   M=SHFolder ACBP=A9
 0002:000018BC 00000018 C=BSS      S=.bss     G=DGROUP   M=TADemoConsts ACBP=A9
 0002:000018D4 00000004 C=BSS      S=.bss     G=DGROUP   M=TextFileU ACBP=A9
 0002:000018D8 0000000C C=BSS      S=.bss     G=DGROUP   M=logging  ACBP=A9
 0002:000018E4 00000004 C=BSS      S=.bss     G=DGROUP   M=DPlay    ACBP=A9
 0002:000018E8 00000004 C=BSS      S=.bss     G=DGROUP   M=DPLobby  ACBP=A9
 0002:000018EC 00000004 C=BSS      S=.bss     G=DGROUP   M=MemMappedDataStructure ACBP=A9
 0002:000018F0 00000004 C=BSS      S=.bss     G=DGROUP   M=PacketBufferU ACBP=A9
 0002:000018F4 00000004 C=BSS      S=.bss     G=DGROUP   M=log2     ACBP=A9
 0002:000018F8 00000004 C=BSS      S=.bss     G=DGROUP   M=statslogging ACBP=A9
 0002:000018FC 00000004 C=BSS      S=.bss     G=DGROUP   M=IniFiles ACBP=A9
 0002:00001900 00000004 C=BSS      S=.bss     G=DGROUP   M=Registry ACBP=A9
 0002:00001904 00000008 C=BSS      S=.bss     G=DGROUP   M=PluginEngine ACBP=A9
 0002:0000190C 00000004 C=BSS      S=.bss     G=DGROUP   M=TAMemManipulations ACBP=A9
 0002:00001910 0000000A C=BSS      S=.bss     G=DGROUP   M=TA_MemoryLocations ACBP=A9
 0002:0000191C 00000004 C=BSS      S=.bss     G=DGROUP   M=COB_extensions ACBP=A9
 0002:00001920 00000048 C=BSS      S=.bss     G=DGROUP   M=TlHelp32 ACBP=A9
 0002:00001968 00000004 C=BSS      S=.bss     G=DGROUP   M=TA_FunctionsU ACBP=A9
 0002:0000196C 00000004 C=BSS      S=.bss     G=DGROUP   M=ErrorLog_ExtraData ACBP=A9
 0002:00001970 00000004 C=BSS      S=.bss     G=DGROUP   M=Thread_marshaller ACBP=A9
 0002:00001974 00000004 C=BSS      S=.bss     G=DGROUP   M=UnitLimit ACBP=A9
 0002:00001978 00000004 C=BSS      S=.bss     G=DGROUP   M=ModsList ACBP=A9
 0002:0000197C 00000028 C=BSS      S=.bss     G=DGROUP   M=INI_Options ACBP=A9
 0002:000019A4 00000004 C=BSS      S=.bss     G=DGROUP   M=packet_old ACBP=A9
 0002:000019A8 00000004 C=BSS      S=.bss     G=DGROUP   M=PluginCommandHandlerU ACBP=A9
 0002:000019AC 00000008 C=BSS      S=.bss     G=DGROUP   M=InputHook ACBP=A9
 0002:000019B4 00000014 C=BSS      S=.bss     G=DGROUP   M=LOS_Radar ACBP=A9
 0002:000019C8 00000004 C=BSS      S=.bss     G=DGROUP   M=LOS_MiniMapUnits ACBP=A9
 0002:000019CC 00000014 C=BSS      S=.bss     G=DGROUP   M=LOS_PlayerSeeUnit ACBP=A9
 0002:000019E0 00000004 C=BSS      S=.bss     G=DGROUP   M=LOS_GUIText ACBP=A9
 0002:000019E4 00000010 C=BSS      S=.bss     G=DGROUP   M=LOS_UpdateTables ACBP=A9
 0002:000019F4 00000008 C=BSS      S=.bss     G=DGROUP   M=LOS_AllyPlayer ACBP=A9
 0002:000019FC 00000008 C=BSS      S=.bss     G=DGROUP   M=LOS_extensions ACBP=A9
 0002:00001A04 00000004 C=BSS      S=.bss     G=DGROUP   M=SpeedHack ACBP=A9
 0002:00001A08 00000004 C=BSS      S=.bss     G=DGROUP   M=TA_NetworkingMessages ACBP=A9
 0002:00001A0C 0000000C C=BSS      S=.bss     G=DGROUP   M=idplay   ACBP=A9
 0002:00001A18 00000004 C=BSS      S=.bss     G=DGROUP   M=PlayerDataU ACBP=A9
 0002:00001A1C 00000004 C=BSS      S=.bss     G=DGROUP   M=CommandHandlerU ACBP=A9
 0002:00001A20 00000004 C=BSS      S=.bss     G=DGROUP   M=DPLobbyWrapper ACBP=A9
 0002:00001A24 00000028 C=BSS      S=.bss     G=DGROUP   M=Dplayx_exports ACBP=A9
 0002:00001A4C 00000004 C=BSS      S=.bss     G=DGROUP   M=PauseLock ACBP=A9
 0002:00001A50 00000004 C=BSS      S=.bss     G=DGROUP   M=MultiAILimit ACBP=A9
 0002:00001A54 00000004 C=BSS      S=.bss     G=DGROUP   M=Plugins  ACBP=A9
 0002:00001A58 00000008 C=BSS      S=.bss     G=DGROUP   M=InitCode ACBP=A9
 0002:00001A60 00000014 C=BSS      S=.bss     G=DGROUP   M=InitCode_CoreExePatching ACBP=A9
 0002:00001A74 00000004 C=BSS      S=.bss     G=DGROUP   M=threadlogging ACBP=A9


  Address         Publics by Name

 0002:000018EC       .1
 0002:00001A08       .1
 0002:000018E8       .1
 0002:00001A04       .1
 0002:00001A00       .1
 0002:000019F8       .1
 0002:000018E4       .1
 0002:0000191C       .1
 0002:000019F0       .1
 0002:0000196C       .1
 0002:00001970       .1
 0002:00001974       .1
 0002:00001978       .1
 0002:00001A50       .1
 0002:0000199C       .1
 0002:00001A60       .1
 0002:00001A4C       .1
 0002:0000188C       .1
 0002:00001890       .1
 0002:00001920       .1
 0002:0000190C       .1
 0002:000018AC       .1
 0002:000019B0       .1
 0002:000019C4       .1
 0002:000019C8       .1
 0002:000018B4       .1
 0002:000018B8       .1
 0002:00001678       .1
 0002:0000167C       .1
 0002:000019DC       .1
 0002:000019E0       .1
 0002:00001A30       .1
 0002:00001A74       .1
 0002:0000183C       .1
 0002:00001668       .1
 0002:00001670       .1
 0002:00001A54       .1
 0002:00001968       .1
 0002:000018D4       .2
 0002:00001A20       .2
 0002:000018C0       .2
 0002:000019A4       .2
 0002:00001894       .2
 0002:000018F4       .2
 0002:000018F8       .2
 0002:00001A58       .2
 0002:000018E0       .2
 0002:00001898       .21
 0002:00001844       .3
 0002:000018F0       .3
 0002:000019A8       .3
 0002:00001A1C       .3
 0002:00001674       .3
 0002:00001790       .35
 0002:00001A18       .4
 0002:00001914       .4
 0002:00001850       .45
 0002:00001888       .5
 0002:000015B4       .5
 0002:00001900       .5
 0002:000017F8       .5
 0002:00001884       .6
 0002:00001904       .6
 0002:00001840       .6
 0002:00001A14       .6
 0002:00001880       .7
 0002:000018FC       .8
 0002:0000181C       .81
 0002:0000187C       .9
 0001:00001E10       @AbstractError
 0001:00002E98       @AfterConstruction
 0001:000038F8       @Assert
 0001:000020F4       @Assign
 0001:00002250       @AStrCmp
 0001:00002EA8       @BeforeDestruction
 0001:00002B48       @BoundErr
 0001:00002DD8       @CallDynaInst
 0001:00002E40       @ClassCreate
 0001:00002E90       @ClassDestroy
 0001:000021BC       @Close
 0001:00001B58       @Copy
 0001:00004580       @CopyArray
 0001:00004464       @CopyRecord
 0001:00004674       @DispCallByIDError
 0001:0000E898       @DispInvokeError
 0001:00003324       @DoneExcept
 0001:000048C4       @DynArrayAsg
 0001:00004888       @DynArrayClear
 0001:000046A8       @DynArrayHigh
 0001:000046A0       @DynArrayLength
 0001:0000487C       @DynArraySetLength
 0001:000022C0       @EofText
 0001:0000340C       @ExceptionHandler
 0001:000022F8       @FillChar
 0001:00004440       @Finalize
 0001:00004354       @FinalizeArray
 0001:00004308       @FinalizeRecord
 0001:000021B0       @Flush
 0001:00002B3C       @FpuInit
 0001:00002A78       @FpuMaskInit
 0001:00001A28       @FreeMem
 0001:000019F8       @GetMem
 0001:0000575C       @GetTls
 0001:000038E0       @Halt
 0001:00003800       @Halt0
 0001:00002FBC       @HandleAnyException
 0001:00003270       @HandleFinally
 0001:000030E8       @HandleOnException
 0001:00004274       @InitializeArray
 0001:00004244       @InitializeRecord
 0001:000036C4       @InitImports
 0001:000057A8       @InitLib
 0001:0000369C       @InitResStringImports
 0001:00005018       @IntfAddRef
 0001:00004FD4       @IntfClear
 0001:00004FEC       @IntfCopy
 0001:00002B50       @IntOver
 0001:00002D84       @IsClass
 0001:00002A48       @isNECWindows
 0001:00003DA4       @LStrAddRef
 0001:0000393C       @LStrArrayClr
 0001:0000396C       @LStrAsg
 0001:00003BBC       @LStrCat
 0001:00003C00       @LStrCat3
 0001:00003C74       @LStrCatN
 0001:00003918       @LStrClr
 0001:00003D00       @LStrCmp
 0001:00003E14       @LStrCopy
 0001:00003E54       @LStrDelete
 0001:00003B88       @LStrFromArray
 0001:00003B00       @LStrFromChar
 0001:00003B10       @LStrFromPChar
 0001:00003A08       @LStrFromPCharLen
 0001:00003B40       @LStrFromPWChar
 0001:00003A74       @LStrFromPWCharLen
 0001:00003B7C       @LStrFromString
 0001:00003BA0       @LStrFromWStr
 0001:000039B0       @LStrLAsg
 0001:00003BB4       @LStrLen
 0001:00003E9C       @LStrPos
 0001:00003EE4       @LStrSetLength
 0001:00003DB4       @LStrToPChar
 0001:000039DC       @NewAnsiString
 0001:00003F8C       @NewWideString
 0001:0000275C       @Pow10
 0001:00002244       @PStrCpy
 0001:00002214       @PStrNCat
 0001:000032D0       @RaiseAgain
 0001:000032A8       @RaiseExcept
 0001:00002318       @RandInt
 0001:00002370       @ReadChar
 0001:000024D4       @ReadLn
 0001:00002468       @ReadLString
 0001:0000245C       @ReadString
 0001:00001A48       @ReallocMem
 0001:00001E84       @ResetText
 0001:00001E90       @RewritText
 0001:000038EC       @RunError
 0001:00002740       @SetEq
 0001:000035D4       @StartLib
 0001:0000025C       @strlen
 0001:00001DEC       @TRUNC
 0001:00003354       @TryFinallyExit
 0001:00003E0C       @UniqueStringA
 0001:00002504       @ValLong
 0001:0000FE4C       @VarAddRef
 0001:0000EB70       @VarClear
 0001:0000433C       @VarClr
 0001:0000EB84       @VarClr
 0001:0000EEAC       @VarCopy
 0001:0000444C       @VarCopy
 0001:0000F1D8       @VarToLStr
 0001:0000F8F8       @VarToWStr
 0001:00003F48       @Write0LString
 0001:0000261C       @WriteBytes
 0001:000026EC       @WriteLn
 0001:00003F64       @WriteLString
 0001:00002670       @WriteSpaces
 0001:00003FCC       @WStrArrayClr
 0001:00003FF0       @WStrAsg
 0001:00003FB4       @WStrClr
 0001:0000412C       @WStrCmp
 0001:000041B0       @WStrCopy
 0001:00004100       @WStrFromLStr
 0001:00004014       @WStrFromPCharLen
 0001:000040C4       @WStrFromPWChar
 0001:000040A0       @WStrFromPWCharLen
 0001:00004120       @WStrLen
 0001:000041FC       @WStrSetLength
 0001:00004110       @WStrToPWChar
 0001:00001B28       @_IOTest
 0001:0000467C       @_llmul
 0001:0000B49C       AbstractErrorHandler
 0002:00001028       AbstractErrorProc
 0002:0000088C       AccessMode
 0002:00000154       AccessMode
 0001:00010784       ActiveX
 0001:000003CC       AddBlockAfter
 0001:0001BC5C       AddCheatDescription
 0001:00018054       AddLineNo
 0001:00004E3C       AddModuleUnloadProc
 0001:00004E2C       AddModuleUnloadProc
 0001:00017EA0       AddProcedure
 0001:00017CBC       AddUnit
 0002:00000968       AIName
 0002:000019F4       AlliedStateChanged
 0001:00006B54       AllocMem
 0002:000015AC       AllocMemCount
 0002:000015B0       AllocMemSize
 0001:0000568C       AllocTlsBuffer
 0001:00006D5C       AnsiCompareStr
 0001:00006DA8       AnsiCompareText
 0001:00006D14       AnsiLowerCase
 0001:0000BFC0       AnsiPos
 0001:00006DF4       AnsiSameText
 0001:0000C00C       AnsiStrPos
 0001:0000C0E4       AnsiStrRScan
 0001:0000C134       AnsiStrScan
 0001:00005418       AnsiToUtf8
 0001:00006CCC       AnsiUpperCase
 0001:00008E44       AppendChars
 0001:00009264       AppendFormat
 0001:00008EC8       AppendNumber
 0001:00008EA4       AppendString
 0001:0000B464       AssertErrorHandler
 0002:00001020       AssertErrorProc
 0002:00001604       avail
 0001:0000790C       BackfillGetDiskFreeSpaceEx
 0001:0000D848       BackupVarBoolFromStr
 0001:0000D9C4       BackupVarBStrFromBool
 0001:0000D8CC       BackupVarBStrFromCy
 0001:0000D948       BackupVarBStrFromDate
 0001:0000D7D4       BackupVarCyFromStr
 0001:0000D760       BackupVarDateFromStr
 0001:0000D604       BackupVarI4FromStr
 0001:0000D590       BackupVariantChangeTypeEx
 0001:0000D678       BackupVarR4FromStr
 0001:0000D6EC       BackupVarR8FromStr
 0001:0003D168       BetterAIName
 0001:0003D1F0       BetterAINameStub
 0001:00014C10       BinToHex
 0001:00017428       BinToInt
 0001:0000D5DC       BiUnimplemented
 0002:000015DC       blockDescBlockList
 0002:000015E0       blockDescFreeList
 0002:000003A4       BooleanIdents
 0002:00000334       BooleanToStringRule
 0001:000072C0       BoolToStr
 0001:0000EF60       BoolToWStrViaOS
 0002:00000920       BoolValues
 0001:0000BB5C       ByteToCharIndex
 0001:0000BB20       ByteToCharLen
 0001:0000BABC       ByteType
 0001:0000BA10       ByteTypeTest
 0002:00001918       CacheUsed
 0001:00017550       CalcCRC
 0002:00001814       ChangeAnyProc
 0001:000076D8       ChangeFileExt
 0001:00003A38       CharFromWChar
 0001:0000BDD4       CharLength
 0001:00005B00       CharLowerBuff
 0001:00005B08       CharNext
 0001:000001D4       CharNext
 0001:0000BC98       CharToByteIndex
 0001:0000BD10       CharToByteLen
 0001:00005B10       CharToOemA
 0001:00005B18       CharUpperBuff
 0002:00001A10       chatview
 0001:0001BC3C       CheatEnabled
 0002:000008F0       Cheat_BuildAnywhere
 0002:000008EC       Cheat_ControlMenu
 0002:0000090C       Cheat_DoubleShot
 0002:00000900       Cheat_ExtraDamage
 0002:000008E0       Cheat_FastBuild
 0002:000008E4       Cheat_InfiniteResources
 0002:00000904       Cheat_InstantBuild
 0002:000008F4       Cheat_InstantCapture
 0002:000008DC       Cheat_Invisible
 0002:000008D8       Cheat_Invulnerability
 0002:000008FC       Cheat_JamAll
 0002:000008E8       Cheat_LosRadar
 0002:00000908       Cheat_ResourcesFreeze
 0002:000008F8       Cheat_SpecialMove
 0001:00020190       CheckForCheats
 0001:00002F38       CheckJmp
 0002:00000338       CInvalidCustomVariantType
 0001:00014E88       Classes
 0001:0001841C       CleanUpMapFile
 0002:00001810       ClearAnyProc
 0001:00010188       ClearVariantTypeList
 0001:00005890       CloseHandle
 0001:00000174       CloseHandle
 0002:0000103C       CmdLine
 0002:00001038       CmdShow
 0001:0000D5F0       CmpUnimplemented
 0001:00020EA0       COB_extensions
 0001:00020DF0       COB_Extensions_Handling
 0002:00001A64       CodeInjectionData
 0001:0003AF48       CommandHandlerU
 0001:0000074C       Commit
 0002:00001620       committedRoot
 0001:00029F58       compare
 0001:00017A2C       CompareHeaders
 0001:00005898       CompareString
 0001:00006C54       CompareText
 0001:000071C4       CompareWith
 0001:000155E8       Compress
 0001:00018B6C       Compress
 0001:00017028       Consts
 0001:00017810       Contnrs
 0002:000003C0       Convert
 0002:000003B0       Convert
 0001:0000ACF8       ConvertAddr
 0001:00008FC8       ConvertEraString
 0001:00006B04       ConvertError
 0001:00006B24       ConvertErrorFmt
 0001:0000914C       ConvertYearString
 0001:000046B0       CopyArray
 0001:000058A0       CopyFile
 0001:0000BBE0       CountChars
 0001:00017518       CRC32
 0002:00000454       CRC32tab
 0001:0000B39C       CreateAssertException
 0001:0000B598       CreateAVObject
 0001:0000798C       CreateDir
 0001:000058A8       CreateDirectory
 0001:000058B0       CreateEvent
 0001:000058B8       CreateFile
 0001:0000017C       CreateFileA
 0001:000058C0       CreateFileMapping
 0001:0000B288       CreateInOutError
 0001:00021168       CreateToolhelp32Snapshot
 0002:00000390       CRelationshipToBoolean
 0002:00000324       CResult
 0002:0000014C       cSimpleBoolStrs
 0002:0000033C       CText
 0002:00001618       curAlloc
 0002:00001688       CurrencyDecimals
 0002:00001684       CurrencyFormat
 0002:00001680       CurrencyString
 0001:00008E24       CurrentYear
 0001:0000877C       CurrToStr
 0001:0000EEF0       CurrToWStrViaOS
 0001:00020BEC       CustomGetters
 0001:00006EDC       CvtInt
 0001:00006F48       CvtInt64
 0002:0000018C       CWNear
 0001:00017030       DataToStr2
 0001:0001E008       DataTypeToRegData
 0001:00008DB0       Date
 0002:00001689       DateSeparator
 0001:00009B18       DateTimeToStr
 0001:00009A6C       DateTimeToString
 0001:000088E8       DateTimeToTimeStamp
 0001:00009AD8       DateToStr
 0001:0000EF28       DateToWStrViaOS
 0001:00008D80       DayOfWeek
 0002:00000188       DCon10
 0002:0000002C       DebugHook
 0002:00001687       DecimalSeparator
 0001:00008D50       DecodeDate
 0001:00008BD4       DecodeDateFully
 0001:000089F0       DecodeTime
 0001:0000080C       Decommit
 0001:00000F38       DecommitFree
 0002:000015F4       decommittedRoot
 0002:0000093C       DecompressionBufferSize
 0002:00000024       Default8087CW
 0002:00000038       DefaultTextLineBreakStyle
 0002:000015B8       DefaultUserCodePage
 0002:00000218       DefLongDayNames
 0002:000001CC       DefLongMonthNames
 0002:000001FC       DefShortDayNames
 0002:0000019C       DefShortMonthNames
 0002:00000858       Deities
 0001:00004914       DelayLoadResourceModule
 0001:00000428       DeleteBlock
 0001:00000338       DeleteCriticalSection
 0001:000058C8       DeleteCriticalSection
 0001:000058D0       DeleteFile
 0001:00000D20       DeleteFree
 0001:000058D8       DeviceIoControl
 0002:00000094       dig
 0001:00007530       DirectoryExists
 0001:0003C85C       DirectPlayCreate
 0002:00001A40       DirectPlayCreate_proc
 0001:0003C564       DirectPlayEnumerate
 0001:0003C65C       DirectPlayEnumerateA
 0002:00001A38       DirectPlayEnumerateA_proc
 0001:0003C75C       DirectPlayEnumerateW
 0002:00001A3C       DirectPlayEnumerateW_proc
 0002:00001A34       DirectPlayEnumerate_proc
 0001:0003CC04       DirectPlayLobbyCreateA
 0002:00001A48       DirectPlayLobbyCreateA_proc
 0001:0003CAC4       DirectPlayLobbyCreateW
 0002:00001A44       DirectPlayLobbyCreateW_proc
 0001:0003D3DC       DisableThreadLibraryCalls
 0002:00001000       DispCallByIDProc
 0001:00006AE8       DivMod
 0001:0003CE58       DllCanUnloadNow
 0001:0003CEF8       DllGetClassObject
 0002:00001664       DllProc
 0002:00001A28       DoFinalize
 0002:00001A24       DoInitialize
 0002:00000930       DoInterpretCommand
 0001:0000B90C       DoneExceptions
 0001:00014D2C       DoneThreadSynchronization
 0001:00020678       DoReport
 0002:000003AC       DotSep
 0001:0001210C       DoWrite
 0001:0003D324       Do_LoadTime_CodeInjections
 0001:0001BB10       DPlay
 0001:0003DD00       dplayx
 0001:0003C4CC       DPlayxHandleInvalid
 0002:00000958       dplayxLibHandle
 0001:0003D010       Dplayx_exports
 0001:0001BC34       DPLobby
 0001:0003C4C4       DPLobbyWrapper
 0001:000046C8       DynArrayClear
 0001:000046D0       DynArraySetLength
 0001:0000B24C       EHeapException.FreeInstance
 0001:00015754       Elapsed
 0002:000017FC       EmptyParam
 0002:000000D4       EmptyStr
 0002:000000D8       EmptyWideStr
 0001:00008B98       EncodeDate
 0001:000089AC       EncodeTime
 0001:00000328       EnterCriticalSection
 0001:000058E0       EnterCriticalSection
 0001:000058E8       EnumCalendarInfoA
 0001:0000A8B8       EnumEraNames
 0001:0000A904       EnumEraYearOffsets
 0002:00001750       EraNames
 0001:00009E68       EraToYear
 0002:0000176C       EraYearOffsets
 0002:0000006C       errCaption
 0001:00001B1C       Error
 0002:00000004       ErrorAddr
 0001:00001AD0       ErrorAt
 0001:0000B32C       ErrorHandler
 0001:00021820       ErrorLog_ExtraData
 0001:000217DC       Errorlog_Thunk1
 0001:00021498       Errorlog_Thunk2
 0002:00000234       ErrorMap
 0002:00001008       ErrorProc
 0001:0001A240       ErrorString
 0002:000013E0       ErrOutput
 0001:00001A98       ExceptAddr
 0002:0000100C       ExceptClsProc
 0001:0000B85C       ExceptHandler
 0001:0000AF9C       Exception.Create
 0001:0000AFE4       Exception.CreateFmt
 0001:0000B1B4       Exception.CreateFmtHelp
 0001:0000B160       Exception.CreateHelp
 0001:0000B074       Exception.CreateRes
 0001:0000B0BC       Exception.CreateResFmt
 0002:0000101C       ExceptionClass
 0001:0000AD08       ExceptionErrorMessage
 0002:0000026C       ExceptMap
 0002:00001010       ExceptObjProc
 0002:00001004       ExceptProc
 0001:0000BF74       ExcludeTrailingPathDelimiter
 0002:00000000       ExitCode
 0001:00003744       ExitDll
 0002:00001040       ExitProc
 0001:000001DC       ExitProcess
 0002:00001024       ExitProcessProc
 0001:00005738       ExitProcessTLS
 0001:00005710       ExitThreadTLS
 0001:000078C8       ExpandFileName
 0002:00000924       ExpectedData
 0001:000077B8       ExtractFileDir
 0001:00007868       ExtractFileExt
 0001:00007824       ExtractFileName
 0001:00007778       ExtractFilePath
 0002:0000178C       FalseBoolStrs
 0002:0000017C       FCon1E18
 0001:000074A0       FileAge
 0001:0000748C       FileClose
 0001:0000738C       FileCreate
 0001:000073C0       FileCreate
 0001:00007510       FileExists
 0002:0000089C       FileFlags
 0002:0000000C       FileMode
 0001:00001ED8       FileNOPProc
 0001:0000731C       FileOpen
 0001:000073E0       FileRead
 0001:00007450       FileSeek
 0001:000058F0       FileTimeToDosDateTime
 0001:000058F8       FileTimeToLocalFileTime
 0001:00007418       FileWrite
 0002:00000434       FILE_SHARING_ERRORS
 0001:00000E58       FillAfterGap
 0001:00000DF8       FillBeforeGap
 0001:00000EF8       FillerSizeAfterGap
 0001:00000E80       FillerSizeBeforeGap
 0001:0001764C       Finalization
 0001:00020528       Finalization
 0001:000245CC       Finalization
 0001:0003D3A4       Finalization
 0001:000177E0       Finalization
 0001:00020B04       Finalization
 0001:0003D2E0       Finalization
 0001:0001936C       Finalization
 0001:00005828       Finalization
 0001:00024500       Finalization
 0001:000057F0       Finalization
 0001:000104E4       Finalization
 0001:00024C10       Finalization
 0001:00010698       Finalization
 0001:00024D8C       Finalization
 0001:0003D114       Finalization
 0001:00018774       Finalization
 0001:000187E0       Finalization
 0001:000106FC       Finalization
 0001:00010754       Finalization
 0001:00024274       Finalization
 0001:00005F14       Finalization
 0001:0000D370       Finalization
 0001:00018820       Finalization
 0001:00024EDC       Finalization
 0001:00020E70       Finalization
 0001:0002401C       Finalization
 0001:00023E30       Finalization
 0001:00022664       Finalization
 0001:000250E4       Finalization
 0001:00021204       Finalization
 0001:00021E60       Finalization
 0001:0003CFE0       Finalization
 0001:0002123C       Finalization
 0001:00021A3C       Finalization
 0001:0002511C       Finalization
 0001:0001BC04       Finalization
 0001:00039578       Finalization
 0001:0001BAE0       Finalization
 0001:0000DDB4       Finalization
 0001:00005534       Finalization
 0001:0003C494       Finalization
 0001:0002188C       Finalization
 0001:000217F0       Finalization
 0001:0003A910       Finalization
 0001:0003AF18       Finalization
 0001:0001A128       Finalization
 0001:000196C8       Finalization
 0001:00020004       Finalization
 0001:00017614       Finalization
 0001:00005BCC       Finalization
 0001:0002470C       Finalization
 0001:0001EBE4       Finalization
 0001:00005B94       Finalization
 0001:0001C054       Finalization
 0001:0001C0BC       Finalization
 0001:0001DDD8       Finalization
 0001:0001CD1C       Finalization
 0001:00016FF8       Finalization
 0001:0001C444       Finalization
 0001:000248BC       Finalization
 0001:00016FC0       Finalization
 0001:00014DD8       Finalization
 0001:000152C0       Finalization
 0001:0003DAA0       Finalization
 0001:0003DA68       Finalization
 0001:0003D9E8       Finalization
 0001:000154EC       Finalization
 0001:00015310       Finalization
 0001:0003D8DC       Finalization
 0001:000046C0       FinalizeArray
 0001:000034F4       FinalizeUnits
 0001:000049A4       FindBS
 0001:00005900       FindClose
 0001:000001EC       FindClose
 0001:00000DB4       FindCommitted
 0001:0001042C       FindCustomVariantType
 0001:00005908       FindFirstFile
 0001:000001F4       FindFirstFile
 0002:0000185C       FindGlobalComponentProcs
 0001:000048EC       FindHInstance
 0001:0003555C       FindHostPlayer
 0001:0000DA64       FindProc
 0001:0000495C       FindResourceHInstance
 0002:000018C4       fIsWin9x
 0001:00021A74       FixModsINI
 0002:0000179C       FLanguages
 0001:0000840C       FloatToDecimal
 0001:0000874C       FloatToStr
 0001:000087AC       FloatToStrF
 0001:00008138       FloatToText
 0001:000021A4       Flush
 0001:00005910       FlushFileBuffers
 0001:00005918       FlushInstructionCache
 0002:00000190       FMSecsPerDay
 0001:00008018       FmtStr
 0001:00021EDC       fnRemoveInvalidChar
 0001:00007568       ForceDirectories
 0001:00007FF0       Format
 0002:00000198       Format
 0001:00007C20       FormatBuf
 0001:00007C0C       FormatClearStr
 0001:00009B34       FormatDateTime
 0001:00007B6C       FormatError
 0002:00000174       FormatErrorStrs
 0001:00005920       FormatMessage
 0001:00007BD4       FormatVarToStr
 0001:00002754       FPower10
 0001:0000D07C       FreeAndNil
 0001:00000AB4       FreeCommitted
 0001:000010EC       FreeCurAlloc
 0001:00014D48       FreeIntConstList
 0001:00005928       FreeLibrary
 0001:000001FC       FreeLibrary
 0001:00018810       FreeListU
 0001:00000684       FreeSpace
 0001:0000CA1C       FreeTerminateProcs
 0002:000008A0       fVersionLazyInited
 0001:0002459C       GameUnit_LOS_MiniMap_UnitsProjectiles_IsOwner
 0001:00024700       GameUnit_LOS_PlayerSeeUnit_EpilogCode_Exit
 0001:000246AC       GameUnit_LOS_PlayerSeeUnit_IsOwnerAllowedToSee
 0001:0002438C       GameUnit_LOS_Radar_CanDirectlySeeUnit
 0001:00024440       GameUnit_LOS_Radar_LoopCondition
 0001:000243E8       GameUnit_LOS_Radar_LoopStart
 0001:00024A4C       GameUnit_LOS_Update_1_Retry
 0001:00024A30       GameUnit_LOS_Update_1_Start
 0001:00024B38       GameUnit_LOS_Update_2_Retry
 0001:00024B1C       GameUnit_LOS_Update_2_Start
 0002:0000092C       Game_SetLOSState
 0002:00001A2C       gdwDPlaySPRefCount
 0001:00005930       GetACP
 0001:00000340       GetBlockDesc
 0001:00017170       GetChar
 0001:000002DC       GetCmdShow
 0001:00024C48       GetCodeInjections
 0001:000248F4       GetCodeInjections
 0001:000242AC       GetCodeInjections
 0001:00024538       GetCodeInjections
 0001:00024604       GetCodeInjections
 0001:00024744       GetCodeInjections
 0001:00000204       GetCommandLine
 0001:000008C8       GetCommitted
 0001:00000970       GetCommittedAt
 0001:00008F18       GetCount
 0001:00005938       GetCPInfo
 0001:00005940       GetCurrentProcess
 0001:00005948       GetCurrentThreadId
 0001:000002BC       GetCurrentThreadId
 0001:00008F50       GetDate
 0001:00005950       GetDateFormat
 0001:00009D34       GetDateOrder
 0001:00005958       GetDiskFreeSpaceA
 0002:00000148       GetDiskFreeSpaceEx
 0001:00002DA8       GetDynaMethod
 0001:0000A990       GetEraNamesAndYearOffsets
 0001:00009E04       GetEraYearOffset
 0001:0000B56C       GetExceptionClass
 0001:0000B77C       GetExceptionObject
 0001:00005960       GetFileAttributes
 0001:0000018C       GetFileSize
 0001:00005968       GetFileSize
 0001:00000184       GetFileType
 0001:0001920C       GetFileVersion
 0001:00005AE8       GetFileVersionInfo
 0001:00005AF0       GetFileVersionInfoSize
 0001:00019000       GetFileVersion_internal
 0001:0000C454       GetFormatSettings
 0001:00005970       GetFullPathName
 0001:000220C8       GetINIFileName
 0001:00002A40       GetKeyboardType
 0001:0000020C       GetLastError
 0001:00005978       GetLastError
 0001:00018534       GetLineNumberFromAddress
 0001:0000A704       GetLocaleChar
 0001:00000214       GetLocaleInfo
 0001:00005988       GetLocaleInfo
 0001:0000A6A8       GetLocaleStr
 0001:00005980       GetLocalTime
 0001:00018728       GetMapAddressFromAddress
 0001:00018630       GetMapFileName
 0001:0000021C       GetModuleFileName
 0001:00005990       GetModuleFileName
 0001:00000224       GetModuleHandle
 0001:00005998       GetModuleHandle
 0001:00018448       GetModuleNameFromAddress
 0001:0000A784       GetMonthDayNames
 0001:00018940       GetMyDocs
 0001:00001BFC       GetParamStr
 0001:0002127C       GetPlugin
 0001:00021830       GetPlugin
 0001:000218CC       GetPlugin
 0001:00020B44       GetPlugin
 0001:0003D20C       GetPlugin
 0001:0003D04C       GetPlugin
 0001:00024F38       GetPlugin
 0001:00024E24       GetPlugin
 0001:00024214       GetPlugin
 0001:000059A0       GetPrivateProfileString
 0001:000059A8       GetProcAddress
 0001:0000022C       GetProcAddress
 0001:000184C4       GetProcNameFromAddress
 0001:000005A8       GetSpace
 0001:0000060C       GetSpaceAt
 0001:00000234       GetStartupInfo
 0001:000059B0       GetStdHandle
 0001:00000194       GetStdHandle
 0001:000059B8       GetStringTypeEx
 0001:000189A0       GetSysDir
 0001:000059C0       GetSystemDirectory
 0001:000059C8       GetSystemInfo
 0001:00005B20       GetSystemMetrics
 0001:000192F4       GetTADemoVersion
 0001:000059D0       GetTempFileName
 0001:000059D8       GetTempPath
 0001:0000023C       GetThreadLocale
 0001:000059E0       GetThreadLocale
 0001:000059E8       GetTickCount
 0001:000002D4       GetTickCount
 0001:00008F88       GetTime
 0001:00005698       GetTlsSize
 0001:000002C4       GetVersion
 0001:000059F0       GetVersionEx
 0001:000059F8       GetVolumeInformation
 0001:00018AE0       GetVolumePathName
 0001:00005A00       GlobalAlloc
 0001:00005B54       GlobalAllocPtr
 0002:00001860       GlobalFixupList
 0001:00005A08       GlobalFree
 0001:00005B80       GlobalFreePtr
 0001:00005A18       GlobalHandle
 0001:00005A10       GlobalLock
 0002:00001848       GlobalNameSpace
 0001:00005A20       GlobalReAlloc
 0001:00005B64       GlobalReAllocPtr
 0001:00005A28       GlobalUnlock
 0001:00016FF0       GPHugeF
 0002:00000028       HeapAllocFlags
 0002:000015C0       heapErrorCode
 0002:000015C4       heapLock
 0002:00000144       HexDisplayPrefix
 0001:00014C78       HexToBin
 0002:00001660       HInstance
 0001:00005B38       HiWord
 0001:000395B4       idplay
 0002:000008B8       IID_IDirectPlay
 0002:000008A8       IID_IDirectPlay3
 0002:000008C8       IID_IDirectPlayLobby2
 0002:00000194       IMSecsPerDay
 0001:0000E8EC       InBounds
 0001:0000EB8C       InBounds
 0001:0000BF20       IncludeTrailingPathDelimiter
 0001:0000EBBC       Increment
 0001:0000E91C       Increment
 0002:000019A0       iniFileName_cache
 0001:0001DE20       IniFiles
 0002:0000197C       iniSettings
 0001:00000B48       InitAllocator
 0001:0003D90C       InitCode
 0001:0003DA18       InitCode_CoreExePatching
 0002:00001630       InitContext
 0001:0000CA50       InitDriveSpacePtr
 0001:0000B884       InitExceptions
 0001:00005A30       InitializeCriticalSection
 0001:00000320       InitializeCriticalSection
 0002:000015BC       initialized
 0001:0000579C       InitializeModule
 0001:0000DAA8       InitializeVarUtils
 0001:0000C204       InitLeadBytes
 0001:0000B990       InitPlatformId
 0001:000056E4       InitProcessTLS
 0001:0000C2A8       InitSysLocale
 0001:00014CF4       InitThreadSynchronization
 0001:000056A0       InitThreadTLS
 0001:0003D9DC       InitThunk_Stage1
 0001:0003D95C       InitThunk_Stage2
 0001:00020EA8       InitToolHelp
 0001:00003564       InitUnits
 0001:000226B0       INI_Options
 0002:00001048       Input
 0001:00024054       InputHandler
 0001:000242A4       InputHook
 0001:00000FF4       InsertFree
 0001:0001FCDC       InstallPlugins
 0002:00001854       IntConstList
 0001:0000CAC0       InterlockedDecrement
 0001:000002B4       InterlockedDecrement
 0001:0000CACC       InterlockedExchange
 0001:0000CAD4       InterlockedExchangeAdd
 0001:0000CAB4       InterlockedIncrement
 0001:000002AC       InterlockedIncrement
 0001:00001F18       InternalClose
 0001:0000215C       InternalFlush
 0001:00000E34       InternalFreeMem
 0001:00003DC0       InternalUniqueString
 0001:00007064       IntToHex
 0001:0000703C       IntToHex
 0001:00006F28       IntToStr
 0001:00007014       IntToStr
 0002:00001798       InvalidPointer
 0001:00002C70       InvokeImplGetter
 0001:00001B9C       IOResult
 0001:00005A38       IsBadReadPtr
 0002:00001044       IsConsole
 0001:0000BEC4       IsDelimiter
 0001:00008A50       IsLeapYear
 0002:00001034       IsLibrary
 0002:00001045       IsMultiThread
 0001:0000BE78       IsPathDelimiter
 0001:0001DF90       IsRelative
 0001:000170E4       IsStrBool
 0001:0001BF90       IsTAHookRunning
 0001:00020660       IsTAVersion31
 0002:00001919       IsTAVersion31_Cache
 0001:0000C284       IsWesternGroup
 0001:00018A80       IsWin9x
 0002:00000030       JITEnable
 0002:00001924       KernelHandle
 0002:000018BC       kernellib
 0001:00007668       LastDelimiter
 0001:000054C0       LCIDToCodePage
 0001:0000C18C       LCIDToCodePage
 0002:00000124       LeadBytes
 0001:00000330       LeaveCriticalSection
 0001:00005A40       LeaveCriticalSection
 0002:0000003C       LibModuleList
 0001:0003D934       LibraryProc
 0002:000018A4       LineNumbers
 0001:0001BCB0       ListCheats
 0002:0000174E       ListSeparator
 0001:000152F0       ListsU
 0001:000181C4       LoadAndParseMapFile
 0001:00005A48       LoadLibrary
 0001:00000244       LoadLibraryEx
 0001:00004BA8       LoadResourceModule
 0001:00005468       LoadResString
 0001:0000024C       LoadString
 0001:00005B28       LoadString
 0001:0000565C       LocalAlloc
 0001:00000300       LocalAlloc
 0001:00005664       LocalFree
 0001:00000308       LocalFree
 0001:0000A740       LocalGetLocaleStr
 0001:0001C474       log2
 0002:000008A4       logdir
 0001:00019880       LogError
 0001:00019770       LogException
 0002:000018D8       logFilename
 0001:0001A16C       logging
 0002:00000950       logsave
 0002:000018DC       Log_
 0002:00001690       LongDateFormat
 0002:00001724       LongDayNames
 0002:000016D8       LongMonthNames
 0002:000016A4       LongTimeFormat
 0001:00024DBC       LOS_AllyPlayer
 0001:00024F0C       LOS_extensions
 0001:000248EC       LOS_GUIText
 0001:00024850       LOS_GUIText_SeeCommHealth
 0001:00024888       LOS_GUIText_Unit_KillsNStuff
 0001:00024810       LOS_GUIText_Unit_Resources
 0001:000245FC       LOS_MiniMapUnits
 0001:0002473C       LOS_PlayerSeeUnit
 0001:00024530       LOS_Radar
 0002:000019E4       LOS_Updates_PTR
 0001:00024C40       LOS_UpdateTables
 0001:00006BE8       LowerCase
 0002:0000094C       LowerLimit
 0001:00000254       lstrcpyn
 0002:00001820       LVarTypes
 0002:00001824       LVarTypeSync
 0002:0000102C       MainInstance
 0002:00001030       MainThreadID
 0001:000003C4       MakeEmpty
 0001:000036E8       MakeErrorMessage
 0001:00018F5C       MakeTempFilename
 0001:0000B4B8       MapException
 0002:00000854       MapFileName
 0002:000018A8       MapFileSetup
 0001:0000336C       MapToRunError
 0001:00005A50       MapViewOfFile
 0001:0001767C       Math
 0001:0001C084       MemMappedDataStructure
 0002:00000044       MemoryManager
 0001:0000045C       MergeBlockAfter
 0001:00001138       MergeCommit
 0001:000001E4       MessageBox
 0001:00005B30       MessageBox
 0001:00005BFC       Messages
 0001:00015340       MMSystem
 0001:00021E90       ModsList
 0002:000000AC       Module
 0001:0002119C       Module32First
 0001:000211D0       Module32Next
 0001:00021450       ModuleInfoComparer
 0002:0000165D       ModuleIsCpp
 0002:0000165C       ModuleIsLib
 0001:00014DC4       ModuleUnload
 0002:00000040       ModuleUnloadList
 0002:000000F4       MonthDays
 0001:00001BBC       Move
 0001:0003D31C       MultiAILimit
 0001:00000264       MultiByteToWideChar
 0002:00001685       NegCurrFormat
 0001:000011C4       NewCommit
 0001:000011F0       NewCommitAt
 0002:00000934       NewUnitLimit
 0001:0000BE24       NextCharIndex
 0002:00000034       NoErrMsg
 0001:00002F24       NotifyAnyExcept
 0001:00002EF8       NotifyExcept
 0001:00002F58       NotifyExceptFinally
 0001:00004EE4       NotifyModuleUnload
 0001:00002ED4       NotifyNonDelphiException
 0001:00002F10       NotifyOnExcept
 0001:00002EB8       NotifyReRaise
 0001:00002F80       NotifyTerminate
 0001:00002F9C       NotifyUnhandled
 0001:00008DDC       Now
 0002:00000330       NullAsStringValue
 0002:0000032C       NullStrictConvert
 0002:000018B0       ObjectsToFree
 0001:0001687C       OffsetPtr
 0001:0003D8A4       OnFinalize
 0001:000187D0       OnFinalize
 0001:0003C4F4       OnInit
 0001:0003D470       OnInitialize
 0001:000187B8       OnInitialize
 0001:000241E4       OnInstall
 0001:0003D044       OnInstall
 0001:0003D14C       OnInstall
 0001:00021828       OnInstall
 0001:00021274       OnInstall
 0001:00020B3C       OnInstallCobExtensions
 0001:00024DE0       OnInstallShareLOS
 0001:00024F28       OnInstallSpeedHack
 0001:000218C4       OnInstallUnitLimit
 0001:0002182C       OnUnInstall
 0001:0003D048       OnUninstall
 0001:00021278       OnUnInstall
 0001:00024204       OnUnInstall
 0001:0003D150       OnUninstall
 0001:00020B40       OnUninstallCobExtensions
 0001:00024DEC       OnUninstallShareLOS
 0001:00024F34       OnUninstallSpeedHack
 0001:000218C8       OnUninstallUnitLimit
 0001:0001BFE0       OpenMemMap
 0001:00001E2C       OpenText
 0002:00001794       OutOfMemory
 0002:00001214       Output
 0001:00033AFC       OutputInfo
 0001:0001C0EC       PacketBufferU
 0001:00023E60       packet_old
 0001:00001D60       ParamStr
 0001:000171C8       ParseParams
 0001:0001EF5C       PatchNJump
 0001:0003D0EC       PauseHandling
 0001:0003D144       PauseLock
 0001:0003A940       PlayerDataU
 0002:000019BC       PlayerPtr
 0002:000019E8       PlayerPtr
 0002:000019D0       PlayerPtr
 0001:00024D5C       Player_SetAlliedState_JumpHook
 0001:00024D74       Player_SetAlliedState_RetHook
 0001:0002404C       PluginCommandHandlerU
 0002:000019AC       PluginCommands
 0001:00020044       PluginEngine
 0001:0003D3D4       Plugins
 0002:00001908       Plugins
 0001:00011274       PointerInModule
 0002:000018C8       proc
 0002:00001A5C       proc
 0002:000018A0       Procedures
 0001:00014364       PropValueError
 0002:000000A8       PtrToNil
 0001:000173F4       PtrToStr
 0001:000080F4       PutExponent
 0001:000002CC       QueryPerformanceCounter
 0001:00011A08       QuickSort
 0001:0000B454       RaiseAssertException
 0001:0000019C       RaiseException
 0001:000138C4       RaiseException
 0002:00001014       RaiseExceptionProc
 0001:0000C94C       RaiseLastOSError
 0001:00001DC4       Randomize
 0002:00000008       RandSeed
 0001:00014344       ReadError
 0001:0001DF5C       ReadError
 0001:000001A4       ReadFile
 0001:00005A58       ReadFile
 0001:000222D4       ReadINISettings
 0001:000023DC       ReadLine
 0001:00021D28       ReadModsIniField
 0001:00005A60       ReadProcessMemory
 0002:00001818       RefAnyProc
 0001:00005860       RegCloseKey
 0001:0000026C       RegCloseKey
 0001:00005868       RegCreateKeyEx
 0001:0001DFB8       RegDataToDataType
 0001:00005870       RegFlushKey
 0002:00001858       RegGroups
 0001:00004F40       RegisterModule
 0001:0001FC78       RegisterPlugin
 0001:0001EC2C       Registry
 0001:00005878       RegOpenKeyEx
 0001:00000274       RegOpenKeyEx
 0001:00005880       RegQueryValueEx
 0001:0000027C       RegQueryValueEx
 0001:00005888       RegSetValueEx
 0002:00000050       reMap
 0002:00001614       remBytes
 0001:000004E4       RemoveBlock
 0001:000141F4       RemoveFixupReferences
 0001:000142B0       RemoveFixups
 0001:0001759C       RemoveInvalid
 0001:00004E34       RemoveModuleUnloadProc
 0001:00004E5C       RemoveModuleUnloadProc
 0001:00005A68       ResetEvent
 0001:00024F14       ResetGameSpeedLimits
 0001:00024DC4       ResetShareLosState
 0001:00001728       ResizeInPlace
 0001:00012290       ReturnAddr
 0001:000116AC       ReturnAddr
 0002:00001610       rover
 0001:000106C8       RTLConsts
 0001:000001AC       RtlUnwind
 0002:00001018       RTLUnwindProc
 0002:00000074       runErrMsg
 0001:00001AC4       RunErrorAt
 0001:0000DA44       SafeArrayCreate
 0001:0000DA4C       SafeArrayGetLBound
 0001:0000DA54       SafeArrayGetUBound
 0001:0000DA5C       SafeArrayPtrOfIndex
 0001:00006CA8       SameText
 0001:00009B58       ScanBlanks
 0001:00009CE4       ScanChar
 0001:00009ED0       ScanDate
 0001:00009B98       ScanNumber
 0001:00009C4C       ScanString
 0001:0000A264       ScanTime
 0001:00009D9C       ScanToNumber
 0001:00001224       SearchSmallBlocks
 0001:00018DEC       SelfLocation
 0002:000018CC       SelfLocation_cache
 0001:00010158       SetClearVarToEmptyParam
 0001:00005A70       SetEndOfFile
 0001:000001B4       SetEndOfFile
 0001:00005A78       SetEvent
 0001:000034AC       SetExceptionHandler
 0001:00005A80       SetFilePointer
 0001:000001BC       SetFilePointer
 0001:00001B48       SetInOutRes
 0001:00005A88       SetLastError
 0001:00020178       SetLongword
 0001:00010140       SetVarAsError
 0001:0002015C       SetWord
 0002:00000894       ShareFlags
 0002:00000160       ShareMode
 0001:00018850       SHFolder
 0001:00018818       SHGetFolderPath
 0002:0000168C       ShortDateFormat
 0002:00001708       ShortDayNames
 0002:000016A8       ShortMonthNames
 0002:000016A0       ShortTimeFormat
 0001:0000AEC0       ShowException
 0001:00024D18       Signal_AlliedStateChange
 0001:000174D0       SimpleCrypt
 0001:00014754       SkipBinary
 0001:00014788       SkipCollection
 0001:00014728       SkipList
 0001:00005A90       Sleep
 0001:0000C944       Sleep
 0002:0000161C       smallTab
 0002:000015E4       spaceRoot
 0001:00025114       SpeedHack
 0001:00025054       SpeedState_DecreaseSpeed_Check
 0001:0002508C       SpeedState_IncreaseSpeed_Check
 0001:000250BC       SpeedState_SetSpeed_Check
 0001:0001EF8C       SpliceInJump
 0002:00001A0C       StartedFrom
 0002:00000928       State_COB_extensions
 0002:00000964       State_MultiAILimit
 0002:0000095C       State_PauseLock
 0002:00000944       State_SpeedHack
 0002:00000938       State_UnitLimit
 0002:00000954       statslog
 0001:0001CD4C       statslogging
 0001:00039690       StatusToStr
 0002:00000960       StopPauseStateChange
 0001:00007B00       StrAlloc
 0001:0000BAF0       StrByteType
 0001:0000BD84       StrCharLength
 0001:000136E4       StringListCompareStrings
 0001:0000C7E8       StringReplace
 0001:00017968       StripFromString
 0001:000079FC       StrLCopy
 0001:000079B8       StrLen
 0001:00007F98       StrLFmt
 0001:00007A30       StrLIComp
 0001:000079D0       StrMove
 0001:00007B2C       StrNew
 0001:0000BDB8       StrNextChar
 0001:00007AAC       StrPos
 0001:00007A74       StrScan
 0001:0000A480       StrToDate
 0001:0000A578       StrToDateTime
 0001:000087E8       StrToFloat
 0001:00007094       StrToInt
 0001:000070D4       StrToIntDef
 0001:0000A4FC       StrToTime
 0001:0003CF9C       StubCall
 0001:00018BE4       SupportsCompression
 0002:0000184C       SyncEvent
 0001:00017AB8       SyncHeaders
 0002:00000430       SyncList
 0001:0001551C       SyncObjs
 0001:00000294       SysAllocStringLen
 0001:00005F44       SysConst
 0001:0000A644       SysErrorMessage
 0001:00001550       SysFreeMem
 0001:000002A4       SysFreeString
 0001:000013A4       SysGetMem
 0001:00005820       SysInit
 0002:00001740       SysLocale
 0001:0000192C       SysReallocMem
 0001:0000029C       SysReAllocStringLen
 0001:00005588       System
 0001:0000D4F0       SysUtils
 0002:00001910       TAData
 0001:000193C8       TADemoConsts
 0002:000018D0       TADemoVersion_cache
 0001:000208B0       TAMem.getActualUnitLimit
 0001:0002085C       TAMem.getGameSpeed
 0001:000208DC       TAMem.getIsAlteredUnitLimit
 0001:00020884       TAMem.getMaxUnitLimit
 0001:00020930       TAMem.getPlayerIndex
 0001:000209B4       TAMem.GetUnitPtr
 0001:00020908       TAMem.getUnitsPtr
 0001:00020834       TAMem.getViewPLayer
 0001:0002079C       TAMem.IsTAVersion31
 0001:00020558       TAMemManipulations
 0001:00020A18       TAPlayer.GetAlliedState
 0001:00020A60       TAPlayer.PlayerType
 0001:00020A88       TAUnit.getKills
 0001:00020ADC       TAUnit.GetOwnerIndex
 0001:00020AB4       TAUnit.GetOwnerPtr
 0001:0002126C       TA_FunctionsU
 0001:00020B34       TA_MemoryLocations
 0001:0002514C       TA_NetworkingMessages
 0001:0001F0F8       TCodeInjection.Create
 0001:0001F13C       TCodeInjection.RestoreProc
 0001:0001F5E4       TCodeInjection_RelativeJmp.Create
 0001:0001F64C       TCodeInjection_RelativeJmp.WriteProc
 0001:0001F27C       TCodeInjection_Replacement.WriteProc
 0001:0001F430       TCodeInjection_StaticCall.WriteProc
 0001:0003AA20       TCommandHandler.Create
 0001:0003ADE4       TCommands.AddCommand
 0001:0003AC80       TCommands.AddCommandAlias
 0001:0003ABD8       TCommands.ClearCommands
 0001:0003AAC4       TCommands.Create
 0001:0003AB30       TCommands.destroy
 0001:0003AB74       TCommands.GetCount
 0001:0003ABA4       TCommands.GetItem
 0001:0003AC38       TCommands.LookUpCommand
 0001:000154BC       TCriticalSection.Acquire
 0001:0001542C       TCriticalSection.Create
 0001:0001547C       TCriticalSection.Destroy
 0001:000154D4       TCriticalSection.Release
 0001:0001CF2C       TCustomIniFile.Create
 0001:0001D5B8       TCustomIniFile.ReadBinaryStream
 0001:0001D0A4       TCustomIniFile.ReadBool
 0001:0001D0D8       TCustomIniFile.ReadDate
 0001:0001D194       TCustomIniFile.ReadDateTime
 0001:0001D250       TCustomIniFile.ReadFloat
 0001:0001CF74       TCustomIniFile.ReadInteger
 0001:0001D30C       TCustomIniFile.ReadTime
 0001:0001D72C       TCustomIniFile.WriteBinaryStream
 0001:0001D584       TCustomIniFile.WriteBool
 0001:0001D3C8       TCustomIniFile.WriteDate
 0001:0001D430       TCustomIniFile.WriteDateTime
 0001:0001D498       TCustomIniFile.WriteFloat
 0001:0001D040       TCustomIniFile.WriteInteger
 0001:0001D504       TCustomIniFile.WriteTime
 0001:00013EF8       TCustomMemoryStream.Read
 0001:00013F68       TCustomMemoryStream.Seek
 0001:00013ED0       TCustomMemoryStream.SetPointer
 0001:000101F4       TCustomVariantType.BinaryOp
 0001:00010200       TCustomVariantType.Cast
 0001:00010238       TCustomVariantType.CastTo
 0001:000102C4       TCustomVariantType.CastToOle
 0001:00010280       TCustomVariantType.Compare
 0001:0001028C       TCustomVariantType.CompareOp
 0001:00010300       TCustomVariantType.Destroy
 0001:000103E0       TCustomVariantType.DispInvoke
 0001:0001038C       TCustomVariantType.IsClear
 0001:00010390       TCustomVariantType.LeftPromotion
 0001:000103A4       TCustomVariantType.OlePromotion
 0001:00010404       TCustomVariantType.QueryInterface
 0001:000103AC       TCustomVariantType.RaiseCastError
 0001:000103BC       TCustomVariantType.RaiseDispError
 0001:000103B4       TCustomVariantType.RaiseInvalidOp
 0001:000103C4       TCustomVariantType.RightPromotion
 0001:000103D8       TCustomVariantType.UnaryOp
 0001:000103EC       TCustomVariantType._AddRef
 0001:000103F8       TCustomVariantType._Release
 0001:0002F2A0       TDPlay.AddGroupToGroup
 0001:0002E31C       TDPlay.AddPlayerToGroup
 0001:00027CE0       TDPlay.ChatMsgHandler
 0001:00026498       TDPlay.checkForCheats
 0001:000357FC       TDPlay.Close
 0001:00036654       TDPlay.Create
 0001:0002E41C       TDPlay.CreateGroup
 0001:0002EC80       TDPlay.CreateGroup
 0001:0002F31C       TDPlay.CreateGroupInGroup
 0001:0002892C       TDPlay.createlogfile
 0001:0002E398       TDPlay.CreatePlayer
 0001:0002F92C       TDPlay.CreatePlayer
 0001:0002F3A8       TDPlay.DeleteGroupFromGroup
 0001:0002E49C       TDPlay.DeletePlayerFromGroup
 0001:000394C4       TDPlay.Destroy
 0001:0002E518       TDPlay.DestroyGroup
 0001:0002FBE0       TDPlay.DestroyPlayer
 0001:000274D4       TDPlay.dobase
 0001:0002E590       TDPlay.EnableNewPlayers
 0001:0002FFFC       TDPlay.EnumConnections
 0001:0002E608       TDPlay.EnumGroupPlayers
 0001:0002ED08       TDPlay.EnumGroupPlayers
 0001:0002ED90       TDPlay.EnumGroups
 0001:0002E68C       TDPlay.EnumGroups
 0001:0002F424       TDPlay.EnumGroupsInGroup
 0001:0002E710       TDPlay.EnumPlayers
 0001:0002FD04       TDPlay.EnumPlayers
 0001:0002E794       TDPlay.EnumSessions
 0001:0002FDC4       TDPlay.EnumSessions
 0001:00035234       TDPlay.ExceptMessage
 0001:00036180       TDPlay.Exiting
 0001:00029D1C       TDPlay.facexpshandler
 0001:0002E81C       TDPlay.GetCaps
 0001:0002EE14       TDPlay.GetCaps
 0001:00031674       TDPlay.GetFixFacExps
 0001:000354C0       TDPlay.GetGoodSource
 0001:0002F4AC       TDPlay.GetGroupConnectionSettings
 0001:0002EE90       TDPlay.GetGroupData
 0001:0002F734       TDPlay.GetGroupFlags
 0001:0002EF14       TDPlay.GetGroupName
 0001:0002F7B0       TDPlay.GetGroupParent
 0001:0002E894       TDPlay.GetMessageCount
 0001:0002F82C       TDPlay.GetPlayerAccount
 0001:0002FE48       TDPlay.GetPlayerAddress
 0001:0002EF94       TDPlay.GetPlayerCaps
 0001:0002E910       TDPlay.GetPlayerCaps
 0001:0002F014       TDPlay.GetPlayerData
 0001:0002F8B0       TDPlay.GetPlayerFlags
 0001:000300FC       TDPlay.GetPlayerName
 0001:0002E98C       TDPlay.GetPlayerName
 0001:000316A8       TDPlay.GetProtectDT
 0001:000264D0       TDPlay.GetRandomMap
 0001:00027BD0       TDPlay.getRecorderStatusString
 0001:000355D8       TDPlay.GetServerPlayer
 0001:0002FF0C       TDPlay.GetSessionDesc
 0001:00029984       TDPlay.Handleunitdata
 0001:00035614       TDPlay.ImServer
 0001:00026A30       TDPlay.initbuilding
 0001:00026AC4       TDPlay.initfastbase
 0001:0002EA14       TDPlay.Initialize
 0001:00030080       TDPlay.InitializeConnection
 0001:00034B4C       TDPlay.On3dta
 0001:000341D0       TDPlay.OnAbout
 0001:00033234       TDPlay.OnAutoPause
 0001:000338E8       TDPlay.OnBase
 0001:000331BC       TDPlay.OnBaseOff
 0001:00033420       TDPlay.OnCmdwarp
 0001:0003401C       TDPlay.OnCrash
 0001:00034DF4       TDPlay.OnCreatetxt
 0001:00032270       TDPlay.OnDate
 0001:0003399C       TDPlay.OnDoBase
 0001:00031960       TDPlay.OnEhaoff
 0001:00031A2C       TDPlay.OnEhaOn
 0001:00031BC0       TDPlay.Onehareport
 0001:00035214       TDPlay.OnException
 0001:00033370       TDPlay.Onf1off
 0001:00035074       TDPlay.OnFakeWatch
 0001:0003431C       TDPlay.OnFixall
 0001:000317E8       TDPlay.OnFixDisabled
 0001:000318A4       TDPlay.OnFixEnabled
 0001:00034384       TDPlay.OnFixFactoryExplosions
 0001:00035100       TDPlay.OnForceCd
 0001:000326D0       TDPlay.OnForceGo
 0001:0003273C       TDPlay.OnGive
 0001:00033C24       TDPlay.OnHelp
 0001:000330D4       TDPlay.OnHookReport
 0001:00034E98       TDPlay.OnLockOn
 0001:00034D50       TDPlay.OnOnlyUnits
 0001:00034118       TDPlay.OnPanic
 0001:00031D38       TDPlay.OnPlayers
 0001:0003446C       TDPlay.OnProtectDT
 0001:00034FA8       TDPlay.OnRandMap
 0001:00034828       TDPlay.OnRecord
 0001:00035538       TDPlay.OnRemovePlayer
 0001:00031F7C       TDPlay.OnReport
 0001:000320AC       TDPlay.OnReportMod
 0001:000316DC       TDPlay.OnShareLos
 0001:00034544       TDPlay.OnSharemapPos
 0001:00033EEC       TDPlay.OnStatus
 0001:00032870       TDPlay.OnStopGive
 0001:00034D04       TDPlay.OnStopLog
 0001:0003388C       TDPlay.OnSyncOff
 0001:000334D0       TDPlay.OnSyncon
 0001:00031AF4       TDPlay.OnTaHookOff
 0001:00032CF8       TDPlay.OnTake
 0001:0003467C       TDPlay.OnTime
 0001:00032950       TDPlay.OnUnits
 0001:00032550       TDPlay.OnVoteGo
 0001:0003237C       TDPlay.OnVoteReady
 0001:00033FC4       TDPlay.OnYankspank
 0001:00035648       TDPlay.Open
 0001:0002EA8C       TDPlay.Open
 0001:0002A0A0       TDPlay.PacketHandler
 0001:00028624       TDPlay.PacketLostHandler
 0001:00030B58       TDPlay.Receive
 0001:0002EB04       TDPlay.Receive
 0001:000358AC       TDPlay.ResetRecorder
 0001:0002EB8C       TDPlay.SaveSession
 0001:0002F530       TDPlay.SecureOpen
 0001:000306FC       TDPlay.Send
 0001:00025EB4       TDPlay.SendAlliedChat
 0001:000259DC       TDPlay.SendChat
 0001:00025B20       TDPlay.SendChatLocal
 0001:00025C50       TDPlay.SendChatLocal2
 0001:0002F5B4       TDPlay.SendChatMessage
 0001:000263D0       TDPlay.SendClipboard
 0001:00025D14       TDPlay.SendLocal
 0001:00025D44       TDPlay.SendLocal
 0001:00026248       TDPlay.SendRecorderToRecorderMsg
 0001:00025F84       TDPlay.SendRecorderToRecorderMsg2
 0001:00029FA0       TDPlay.SetAutoPauseAtStart
 0001:00029FC0       TDPlay.SetCommanderWarp
 0001:00029FFC       TDPlay.SetF1Disable
 0001:0002A058       TDPlay.SetFastSpeed
 0001:0002F638       TDPlay.SetGroupConnectionSettings
 0001:0002F098       TDPlay.SetGroupData
 0001:0002F11C       TDPlay.SetGroupName
 0001:0002F19C       TDPlay.SetPlayerData
 0001:0002EC00       TDPlay.SetPlayerName
 0001:0002F220       TDPlay.SetPlayerName
 0001:0002FF84       TDPlay.SetSessionDesc
 0001:0002A07C       TDPlay.SetSlowSpeed
 0001:0002A038       TDPlay.SetSpeedLock
 0001:00029718       TDPlay.SmartPak
 0001:0002F6B8       TDPlay.StartSession
 0001:0002855C       TDPlay.UnitCountChange
 0001:00018EBC       TempPath
 0002:00000320       TerminateProcList
 0002:00001046       Test8086
 0001:0002004C       TestByte
 0001:00020084       TestByte
 0001:000200D0       TestBytes
 0002:000019D4       TestPlayer
 0002:000019EC       TestPlayer
 0002:000019B4       TestPlayerIndex
 0002:000019B8       TestPlayerPtr
 0001:00001F28       TextClose
 0001:00024DF8       TextCommand_View_Hook
 0001:00017644       textdata
 0001:000196F8       TextFileU
 0001:00001E9C       TextIn
 0001:00001F48       TextOpen
 0001:00001EDC       TextOut
 0001:00008638       TextToFloat
 0001:00013CD8       TFileStream.Create
 0001:00013D28       TFileStream.Create
 0001:00013E88       TFileStream.Destroy
 0001:000157D0       TGpHugeFile.AccessFile
 0001:00016674       TGpHugeFile.AllocBuffer
 0001:00015FE4       TGpHugeFile.BlockWrite
 0001:00016BD0       TGpHugeFile.BlockWriteUnsafe
 0001:00015E20       TGpHugeFile.CheckHandle
 0001:00015D68       TGpHugeFile.Close
 0001:00015660       TGpHugeFile.CreateEx
 0001:00015718       TGpHugeFile.Destroy
 0001:00016510       TGpHugeFile.FilePos
 0001:00016F10       TGpHugeFile.FileSize
 0001:00015E8C       TGpHugeFile.FileSizeNoCache
 0001:000165D4       TGpHugeFile.Flush
 0001:00016B0C       TGpHugeFile.FlushBuffer
 0001:000167AC       TGpHugeFile.FreeBuffer
 0001:00016F8C       TGpHugeFile.InitReadBuffer
 0001:00016F58       TGpHugeFile.InitWriteBuffer
 0001:00016C8C       TGpHugeFile.IsOpen
 0001:00016EA8       TGpHugeFile.LoadedToTheEOF
 0001:00015A78       TGpHugeFile.ResetEx
 0001:00015C04       TGpHugeFile.RewriteEx
 0001:00016648       TGpHugeFile.RoundToPageSize
 0001:000163A0       TGpHugeFile.Seek
 0001:00016898       TGpHugeFile.Transmit
 0001:00016424       TGpHugeFile.Truncate
 0001:00016E60       TGpHugeFile.Win32Check
 0001:0001613C       TGpHugeFile._Seek
 0001:00013B94       THandleStream.Create
 0001:00013BE4       THandleStream.Read
 0001:00013C54       THandleStream.Seek
 0001:00013C88       THandleStream.SetSize
 0001:00013CA8       THandleStream.SetSize
 0001:00013C1C       THandleStream.Write
 0002:00001686       ThousandSeparator
 0002:00001864       ThreadLock
 0001:0003DA98       threadlogging
 0001:000218BC       Thread_marshaller
 0001:00016CA8       ThrowCase1
 0001:00016DA0       ThrowCase2
 0002:00001698       TimeAMString
 0001:000152F8       timeBeginPeriod
 0001:00015300       timeGetDevCaps
 0001:00015308       timeGetTime
 0002:0000169C       TimePMString
 0002:00001694       TimeSeparator
 0001:00009AF8       TimeToStr
 0001:0001DD7C       TIniFile.DeleteKey
 0001:0001D89C       TIniFile.Destroy
 0001:0001DD20       TIniFile.EraseSection
 0001:0001DAB4       TIniFile.ReadSection
 0001:0001D9A8       TIniFile.ReadSections
 0001:0001DBCC       TIniFile.ReadSectionValues
 0001:0001D8D8       TIniFile.ReadString
 0001:0001DDB4       TIniFile.UpdateFile
 0001:0001D938       TIniFile.WriteString
 0001:00005024       TInterfacedObject.AfterConstruction
 0001:00005030       TInterfacedObject.BeforeDestruction
 0001:00005040       TInterfacedObject.NewInstance
 0001:00005050       TInterfacedObject.QueryInterface
 0001:00005078       TInterfacedObject._AddRef
 0001:0000508C       TInterfacedObject._Release
 0001:00021234       TlHelp32
 0001:000115A0       TList.Add
 0001:000115F8       TList.Clear
 0001:00011618       TList.Delete
 0001:00011574       TList.Destroy
 0001:000116F4       TList.Error
 0001:000116B4       TList.Error
 0001:00011B14       TList.Extract
 0001:00011754       TList.Get
 0001:0001179C       TList.Grow
 0001:000117F4       TList.IndexOf
 0001:00011B70       TList.Notify
 0001:00011840       TList.Put
 0001:000118D0       TList.Remove
 0001:00011904       TList.SetCapacity
 0001:00011960       TList.SetCount
 0001:00011AD8       TList.Sort
 0001:0003B194       TLobby.Connect
 0001:0003C378       TLobby.Create
 0001:0003B344       TLobby.CreateAddress
 0001:0003C2C0       TLobby.CreateCompoundAddress
 0001:0003B3F8       TLobby.EnumAddress
 0001:0003B4A4       TLobby.EnumAddressTypes
 0001:0003B554       TLobby.EnumLocalApplications
 0001:0003B604       TLobby.GetConnectionSettings
 0001:0003B6B4       TLobby.ReceiveLobbyMessage
 0001:0003B87C       TLobby.RunApplication
 0001:0003BFE8       TLobby.SendLobbyMessage
 0001:0003C160       TLobby.SetConnectionSettings
 0001:0003C210       TLobby.SetLobbyMessageEvent
 0001:00019EB4       TLog.Add
 0001:0001A0AC       TLog.Add
 0001:00019F38       TLog.Add
 0001:00019D9C       TLog.Add2
 0001:000199D0       TLog.Create
 0001:00019CC8       TLog.Destroy
 0001:00019D70       TLog.Flush
 0001:0001C250       TLog2.Add
 0001:0001C158       TLog2.Create
 0001:0001C408       TLog2.Destroy
 0001:0001C228       TLog2.Flush
 0001:0000566C       TlsAlloc
 0002:0000166C       tlsBuffer
 0001:00005674       TlsFree
 0001:0000567C       TlsGetValue
 0002:000000A4       TlsIndex
 0002:FF8C100C       TlsLast
 0002:000000C4       TlsProc
 0001:00005684       TlsSetValue
 0001:00013FFC       TMemoryStream.Clear
 0001:00013FC0       TMemoryStream.Destroy
 0001:0001409C       TMemoryStream.Realloc
 0001:00014020       TMemoryStream.SetCapacity
 0001:00014054       TMemoryStream.SetSize
 0001:00014164       TMemoryStream.Write
 0001:00021370       TModuleInfo.Create
 0001:0000CF70       TMultiReadExclusiveWriteSynchronizer.BeginRead
 0001:0000CE28       TMultiReadExclusiveWriteSynchronizer.BeginWrite
 0001:0000CDA0       TMultiReadExclusiveWriteSynchronizer.BlockReaders
 0001:0000CCB4       TMultiReadExclusiveWriteSynchronizer.Create
 0001:0000CD44       TMultiReadExclusiveWriteSynchronizer.Destroy
 0001:0000CFF8       TMultiReadExclusiveWriteSynchronizer.EndRead
 0001:0000CF04       TMultiReadExclusiveWriteSynchronizer.EndWrite
 0001:0000CDD0       TMultiReadExclusiveWriteSynchronizer.UnblockOneWriter
 0001:0000CDB8       TMultiReadExclusiveWriteSynchronizer.UnblockReaders
 0001:0000CDE8       TMultiReadExclusiveWriteSynchronizer.WaitForReadSignal
 0001:0000CE08       TMultiReadExclusiveWriteSynchronizer.WaitForWriteSignal
 0001:00002E10       TObject.AfterConstruction
 0001:00002E14       TObject.BeforeDestruction
 0001:00002B64       TObject.ClassName
 0001:00002B78       TObject.ClassParent
 0001:00002B58       TObject.ClassType
 0001:00002C50       TObject.CleanupInstance
 0001:00002BBC       TObject.Create
 0001:00002E0C       TObject.DefaultHandler
 0001:00002BDC       TObject.Destroy
 0001:00002E18       TObject.Dispatch
 0001:00002BEC       TObject.Free
 0001:00002BA0       TObject.FreeInstance
 0001:00002CA0       TObject.GetInterface
 0001:00002D40       TObject.GetInterfaceEntry
 0001:00002DF0       TObject.InheritsFrom
 0001:00002BF8       TObject.InitInstance
 0001:00002BB4       TObject.InstanceSize
 0001:00002B84       TObject.NewInstance
 0001:00002E04       TObject.SafeCallException
 0001:000176EC       TObjectList.Add
 0001:00017710       TObjectList.Create
 0001:00017760       TObjectList.Extract
 0001:00017784       TObjectList.GetItem
 0001:000177A8       TObjectList.Notify
 0001:000049D0       ToLongPath
 0001:000238A0       TPacket.Compress
 0001:00022720       TPacket.Create
 0001:000233E4       TPacket.Decompress
 0001:00023174       TPacket.Decrypt
 0001:000232BC       TPacket.Encrypt
 0001:00022898       TPacket.GetRawData2
 0001:000228D4       TPacket.GetTAData
 0001:0002285C       TPacket.GetTimestamp
 0001:00022938       TPacket.PacketLength
 0001:000227CC       TPacket.SJCreateNew
 0001:00022E04       TPacket.Split2
 0001:00011CE4       TPersistent.Assign
 0001:00011D10       TPersistent.AssignError
 0001:00011DE8       TPersistent.AssignTo
 0001:00011E04       TPersistent.DefineProperties
 0001:00011CA8       TPersistent.Destroy
 0001:00011E14       TPersistent.GetNamePath
 0001:00011ECC       TPersistent.GetOwner
 0001:00039720       TPlayerData.Create
 0001:00039868       TPlayerData.IsSelf
 0001:000398F8       TPlayerData.IsServer
 0001:000397F0       TPlayerData.OnPlayerRemoved
 0001:00039C6C       TPlayers.Add
 0001:00039B7C       TPlayers.Clear
 0001:0003A624       TPlayers.Convert
 0001:0003A7A0       TPlayers.ConvertId
 0001:00039990       TPlayers.Create
 0001:00039B20       TPlayers.Destroy
 0001:0003A20C       TPlayers.getCount
 0001:0003A428       TPlayers.GetData_
 0001:0003A2CC       TPlayers.Name
 0001:0003A228       TPlayers.Name
 0001:0003A1D0       TPlayers.Remove
 0001:00039CC0       TPlayers.Remove
 0001:00023F74       TPluginCommands.ClearCommands
 0001:00023EC4       TPluginCommands.Create
 0001:00023F30       TPluginCommands.destroy
 0001:00023FD4       TPluginCommands.LookUpCommand
 0001:0001F8A4       TPluginData.create
 0001:0001FA10       TPluginData.MakeNOPReplacement
 0001:0001F948       TPluginData.MakeRelativeJmp
 0001:0001FAB4       TPluginData.MakeReplacement
 0001:0001F9BC       TPluginData.MakeStaticCall
 0001:0001FB6C       TPluginData.NewCodeInjection
 0001:0000AA54       TranslateDateFormat
 0001:0000E604       TranslateResult
 0001:00014374       TReader.CheckValue
 0001:000143A4       TReader.EndOfList
 0001:000143C8       TReader.NextValue
 0001:000143EC       TReader.Read
 0001:00014438       TReader.ReadBuffer
 0001:0001448C       TReader.ReadListBegin
 0001:000144A0       TReader.ReadListEnd
 0001:000144B4       TReader.ReadStr
 0001:000144FC       TReader.ReadString
 0001:000146B8       TReader.ReadValue
 0001:000145C0       TReader.ReadWideString
 0001:000149E8       TReader.SkipBytes
 0001:00014998       TReader.SkipProperty
 0001:000146D8       TReader.SkipSetBody
 0001:000147FC       TReader.SkipValue
 0001:00011198       TRegGroup.Create
 0001:00011220       TRegGroup.Destroy
 0001:000112A4       TRegGroup.UnregisterModuleClasses
 0001:00011380       TRegGroups.Create
 0001:0001140C       TRegGroups.Destroy
 0001:00011488       TRegGroups.Lock
 0001:000114A0       TRegGroups.Unlock
 0001:000114B8       TRegGroups.UnregisterModuleClasses
 0001:0001E7B4       TRegIniFile.Create
 0001:0001E768       TRegIniFile.Create
 0001:0001EB98       TRegIniFile.ReadBool
 0001:0001E998       TRegIniFile.ReadInteger
 0001:0001E818       TRegIniFile.ReadString
 0001:0001EAA4       TRegIniFile.WriteInteger
 0001:0001E8E8       TRegIniFile.WriteString
 0001:0001E1C0       TRegistry.ChangeKey
 0001:0001E130       TRegistry.CloseKey
 0001:0001E0A4       TRegistry.Create
 0001:0001E04C       TRegistry.Create
 0001:0001E248       TRegistry.CreateKey
 0001:0001E0F4       TRegistry.Destroy
 0001:0001E1F4       TRegistry.GetBaseKey
 0001:0001E624       TRegistry.GetData
 0001:0001E464       TRegistry.GetDataInfo
 0001:0001E4C0       TRegistry.GetDataSize
 0001:0001E6C8       TRegistry.GetKey
 0001:0001E32C       TRegistry.OpenKey
 0001:0001E5B4       TRegistry.PutData
 0001:0001E528       TRegistry.ReadString
 0001:0001E22C       TRegistry.SetCurrentKey
 0001:0001E178       TRegistry.SetRootKey
 0001:0001E6A4       TRegistry.ValueExists
 0001:0001E4F4       TRegistry.WriteString
 0001:00006E18       Trim
 0001:00006E8C       TrimLeft
 0002:00001788       TrueBoolStrs
 0001:00008A94       TryEncodeDate
 0001:0000892C       TryEncodeTime
 0001:0000125C       TryHarder
 0001:00002334       TryOpenForInput
 0001:000025D8       TryOpenForOutput
 0001:00007214       TryStrToBool
 0001:000088C0       TryStrToCurr
 0001:0000A4B8       TryStrToDate
 0001:0000A5B0       TryStrToDateTime
 0001:00008828       TryStrToFloat
 0001:00008888       TryStrToFloat
 0001:00008850       TryStrToFloat
 0001:00007104       TryStrToInt
 0001:0000A534       TryStrToTime
 0001:0001C5E0       TStatsLogging.Add
 0001:0001C4E8       TStatsLogging.Create
 0001:0001C970       TStatsLogging.Damage_StatEvent
 0001:0001CCE0       TStatsLogging.Destroy
 0001:0001C5B8       TStatsLogging.Flush
 0001:0001CA64       TStatsLogging.Kill_StatEvent
 0001:0001C7A8       TStatsLogging.NewUnit_StatEvent
 0001:0001CB40       TStatsLogging.Stats_StatEvent
 0001:0001C8A0       TStatsLogging.UnitFinished_StatEvent
 0001:00013A9C       TStream.CopyFrom
 0001:000137CC       TStream.GetPosition
 0001:00013810       TStream.GetSize
 0001:00013A0C       TStream.ReadBuffer
 0001:00013910       TStream.Seek
 0001:0001399C       TStream.Seek
 0001:000137F4       TStream.SetPosition
 0001:0001386C       TStream.SetSize
 0001:0001385C       TStream.SetSize
 0001:00013A54       TStream.WriteBuffer
 0001:00012EA4       TStringList.Add
 0001:00012ECC       TStringList.AddObject
 0001:00012F44       TStringList.Changed
 0001:00012F70       TStringList.Changing
 0001:00012F9C       TStringList.Clear
 0001:0001378C       TStringList.CompareStrings
 0001:0001373C       TStringList.CustomSort
 0001:00012FF0       TStringList.Delete
 0001:00012E28       TStringList.Destroy
 0001:00013090       TStringList.Exchange
 0001:0001310C       TStringList.ExchangeItems
 0001:00013178       TStringList.Find
 0001:00013210       TStringList.Get
 0001:0001325C       TStringList.GetCapacity
 0001:00013278       TStringList.GetCount
 0001:00013294       TStringList.GetObject
 0001:000132DC       TStringList.Grow
 0001:00013334       TStringList.IndexOf
 0001:00013380       TStringList.Insert
 0001:00013410       TStringList.InsertItem
 0001:000133A8       TStringList.InsertObject
 0001:000134B8       TStringList.Put
 0001:00013530       TStringList.PutObject
 0001:0001358C       TStringList.QuickSort
 0001:00013650       TStringList.SetCapacity
 0001:0001367C       TStringList.SetSorted
 0001:000136B4       TStringList.SetUpdateState
 0001:00013720       TStringList.Sort
 0001:00015018       TStringQueue.Clear
 0001:00014FA8       TStringQueue.Create
 0001:000151D0       TStringQueue.DeQueue
 0001:0001514C       TStringQueue.EnQueue
 0001:00015278       TStringQueue.Examine
 0001:0001503C       TStringQueue.Grow
 0001:00011F20       TStrings.Add
 0001:00011F50       TStrings.AddObject
 0001:00011F84       TStrings.AddStrings
 0001:00012044       TStrings.Assign
 0001:000120E8       TStrings.BeginUpdate
 0001:00012DA4       TStrings.CompareStrings
 0001:0001216C       TStrings.DefineProperties
 0001:00011EE4       TStrings.Destroy
 0001:000121B8       TStrings.EndUpdate
 0001:000121DC       TStrings.Equals
 0001:000122D8       TStrings.Error
 0001:00012298       TStrings.Error
 0001:00012338       TStrings.Exchange
 0001:00012424       TStrings.GetCapacity
 0001:00012DC8       TStrings.GetNameValueSeparator
 0001:00012440       TStrings.GetObject
 0001:00012458       TStrings.GetText
 0001:000124B4       TStrings.GetTextStr
 0001:000125FC       TStrings.IndexOf
 0001:00012688       TStrings.IndexOfName
 0001:00012764       TStrings.IndexOfObject
 0001:000127B0       TStrings.InsertObject
 0001:000127E4       TStrings.LoadFromFile
 0001:00012840       TStrings.LoadFromStream
 0001:000128F4       TStrings.Move
 0001:000129B0       TStrings.Put
 0001:000129F0       TStrings.PutObject
 0001:00012A04       TStrings.ReadData
 0001:00012AB4       TStrings.SaveToFile
 0001:00012B14       TStrings.SaveToStream
 0001:00012B74       TStrings.SetCapacity
 0001:00012DF4       TStrings.SetNameValueSeparator
 0001:00012B84       TStrings.SetStringsAdapter
 0001:00012BD0       TStrings.SetText
 0001:00012C28       TStrings.SetTextStr
 0001:00012D08       TStrings.SetUpdateState
 0001:00012D18       TStrings.WriteData
 0001:00015414       TSynchroObject.Acquire
 0001:00015420       TSynchroObject.Release
 0001:00019428       TTextFile.Create_Append
 0001:00019500       TTextFile.Create_Rewrite
 0001:000195C0       TTextFile.Destroy
 0001:000195FC       TTextFile.Flush
 0001:00019624       TTextFile.Writeln
 0001:00011B84       TThreadList.Create
 0001:00011BEC       TThreadList.Destroy
 0001:00011C68       TThreadList.LockList
 0001:00011C90       TThreadList.UnlockList
 0001:0000CC2C       TThreadLocalCounter.Delete
 0001:0000CADC       TThreadLocalCounter.Destroy
 0001:0000CB58       TThreadLocalCounter.HashIndex
 0001:0000CB7C       TThreadLocalCounter.Open
 0001:0000CC50       TThreadLocalCounter.Recycle
 0002:000000F0       TwoDigitYearCenturyWindow
 0001:00014A44       TWriter.Write
 0001:00014A90       TWriter.WriteBuffer
 0001:00014ABC       TWriter.WriteListBegin
 0001:00014AD0       TWriter.WriteListEnd
 0001:00014AE4       TWriter.WriteMinStr
 0001:00014B94       TWriter.WriteString
 0001:00014BF0       TWriter.WriteValue
 0001:00005858       Types
 0001:0001074C       TypInfo
 0001:000187B0       uDebug
 0001:000001C4       UnhandledExceptionFilter
 0001:000050B4       UnicodeToUtf8
 0001:00000C20       UninitAllocator
 0001:0003D398       UninstallCodeInjections
 0001:0001FEA4       UnInstallPlugins
 0001:00003E04       UniqueString
 0001:00021A6C       UnitLimit
 0002:000019CC       UnitPtr
 0002:0000189C       Units
 0001:0000D5C8       UniUnimplemented
 0001:00004F50       UnregisterModule
 0001:00011524       UnRegisterModuleClasses
 0001:000034CC       UnsetExceptionHandler
 0001:0001F064       UnSpliceJump
 0001:00006B7C       UpperCase
 0002:00000948       Upperlimit
 0002:00000940       UseCompression
 0001:00005374       UTF8Decode
 0001:000052C8       UTF8Encode
 0001:00005190       Utf8ToUnicode
 0002:00000918       Values
 0002:00000910       Values
 0002:000017AC       VarAdd
 0002:00000014       VarAddRefProc
 0002:000017C4       VarAnd
 0001:0000E978       VarArrayClear
 0001:0000EC18       VarArrayCopyForEach
 0001:0000E5B0       VarArrayCreateError
 0002:000017E8       VarBoolFromStr
 0002:000017F4       VarBstrFromBool
 0002:000017EC       VarBstrFromCy
 0002:000017F0       VarBstrFromDate
 0001:0000E3D0       VarCastError
 0001:0000E424       VarCastError
 0001:0000EAF4       VarClearDeep
 0002:00000010       VarClearProc
 0002:000017D0       VarCmp
 0001:0000EDF8       VarCopyCopyProc
 0001:0000EE00       VarCopyDeep
 0002:00000018       VarCopyProc
 0002:000017E4       VarCyFromStr
 0002:000017E0       VarDateFromStr
 0002:0000180C       VarDispProc
 0002:000017B8       VarDiv
 0002:000017D4       VarI4FromStr
 0001:0000D588       VariantChangeType
 0002:000017A0       VariantChangeTypeEx
 0001:0000D578       VariantClear
 0001:0000D580       VariantCopy
 0001:0000D570       VariantInit
 0001:0001055C       Variants
 0002:000017BC       VarIDiv
 0001:0000E4C0       VarInvalidOp
 0002:000017C0       VarMod
 0002:000017B4       VarMul
 0002:000017A4       VarNeg
 0002:000017A8       VarNot
 0002:000017C8       VarOr
 0001:0000E514       VarOverflowError
 0002:000017D8       VarR4FromStr
 0002:000017DC       VarR8FromStr
 0001:0000E864       VarResultCheck
 0001:0000E858       VarResultCheck
 0002:000017B0       VarSub
 0001:0000F0F0       VarToLStrAny
 0001:0000F154       VarToLStrCustom
 0002:0000001C       VarToLStrProc
 0001:0000F024       VarToLStrViaOS
 0001:0000F7CC       VarToWStrAny
 0001:0000F830       VarToWStrCustom
 0002:00000020       VarToWStrProc
 0001:0000F714       VarToWStrViaOS
 0001:0000FFD0       VarTypeAsText
 0001:0000DDE4       VarUtils
 0002:000017CC       VarXor
 0001:00007130       VerifyBoolStrArray
 0001:00005AF8       VerQueryValue
 0002:000019FC       ViewPlayer
 0002:000019D8       ViewPlayerPlSeeU
 0002:000019C0       ViewPlayerRadar
 0001:00000310       VirtualAlloc
 0001:00005A98       VirtualAlloc
 0001:00000318       VirtualFree
 0001:00005AA0       VirtualFree
 0001:00005AA8       VirtualLock
 0001:00005AB0       VirtualProtect
 0001:00005AB8       VirtualQuery
 0001:0000028C       VirtualQuery
 0001:00005AC0       VirtualUnlock
 0001:00005AC8       WaitForSingleObject
 0001:00003A58       WCharFromChar
 0002:0000031C       WesternGroups
 0001:00000284       WideCharToMultiByte
 0002:000000E8       Win32BuildNumber
 0001:0000C9F8       Win32Check
 0002:000000EC       Win32CSDVersion
 0002:000000E0       Win32MajorVersion
 0002:000000E4       Win32MinorVersion
 0002:000000DC       Win32Platform
 0001:00005BC4       Windows
 0001:00003774       WriteErrorMessage
 0001:00005AD0       WriteFile
 0001:000001CC       WriteFile
 0001:00005AD8       WritePrivateProfileString
 0001:00005AE0       WriteProcessMemory
 0001:00003F84       WStrError
 0001:00003FA4       WStrSet
 0002:00001928       _CreateToolhelp32Snapshot
 0002:00001934       _Heap32First
 0002:0000192C       _Heap32ListFirst
 0002:00001930       _Heap32ListNext
 0002:00001938       _Heap32Next
 0002:00001958       _Module32First
 0002:00001960       _Module32FirstW
 0002:0000195C       _Module32Next
 0002:00001964       _Module32NextW
 0002:00001940       _Process32First
 0002:00001948       _Process32FirstW
 0002:00001944       _Process32Next
 0002:0000194C       _Process32NextW
 0002:00001950       _Thread32First
 0002:00001954       _Thread32Next
 0002:0000193C       _Toolhelp32ReadProcessMemory


  Address         Publics by Value

 0002:FF8C100C       TlsLast
 0001:00000174       CloseHandle
 0001:0000017C       CreateFileA
 0001:00000184       GetFileType
 0001:0000018C       GetFileSize
 0001:00000194       GetStdHandle
 0001:0000019C       RaiseException
 0001:000001A4       ReadFile
 0001:000001AC       RtlUnwind
 0001:000001B4       SetEndOfFile
 0001:000001BC       SetFilePointer
 0001:000001C4       UnhandledExceptionFilter
 0001:000001CC       WriteFile
 0001:000001D4       CharNext
 0001:000001DC       ExitProcess
 0001:000001E4       MessageBox
 0001:000001EC       FindClose
 0001:000001F4       FindFirstFile
 0001:000001FC       FreeLibrary
 0001:00000204       GetCommandLine
 0001:0000020C       GetLastError
 0001:00000214       GetLocaleInfo
 0001:0000021C       GetModuleFileName
 0001:00000224       GetModuleHandle
 0001:0000022C       GetProcAddress
 0001:00000234       GetStartupInfo
 0001:0000023C       GetThreadLocale
 0001:00000244       LoadLibraryEx
 0001:0000024C       LoadString
 0001:00000254       lstrcpyn
 0001:0000025C       @strlen
 0001:00000264       MultiByteToWideChar
 0001:0000026C       RegCloseKey
 0001:00000274       RegOpenKeyEx
 0001:0000027C       RegQueryValueEx
 0001:00000284       WideCharToMultiByte
 0001:0000028C       VirtualQuery
 0001:00000294       SysAllocStringLen
 0001:0000029C       SysReAllocStringLen
 0001:000002A4       SysFreeString
 0001:000002AC       InterlockedIncrement
 0001:000002B4       InterlockedDecrement
 0001:000002BC       GetCurrentThreadId
 0001:000002C4       GetVersion
 0001:000002CC       QueryPerformanceCounter
 0001:000002D4       GetTickCount
 0001:000002DC       GetCmdShow
 0001:00000300       LocalAlloc
 0001:00000308       LocalFree
 0001:00000310       VirtualAlloc
 0001:00000318       VirtualFree
 0001:00000320       InitializeCriticalSection
 0001:00000328       EnterCriticalSection
 0001:00000330       LeaveCriticalSection
 0001:00000338       DeleteCriticalSection
 0001:00000340       GetBlockDesc
 0001:000003C4       MakeEmpty
 0001:000003CC       AddBlockAfter
 0001:00000428       DeleteBlock
 0001:0000045C       MergeBlockAfter
 0001:000004E4       RemoveBlock
 0001:000005A8       GetSpace
 0001:0000060C       GetSpaceAt
 0001:00000684       FreeSpace
 0001:0000074C       Commit
 0001:0000080C       Decommit
 0001:000008C8       GetCommitted
 0001:00000970       GetCommittedAt
 0001:00000AB4       FreeCommitted
 0001:00000B48       InitAllocator
 0001:00000C20       UninitAllocator
 0001:00000D20       DeleteFree
 0001:00000DB4       FindCommitted
 0001:00000DF8       FillBeforeGap
 0001:00000E34       InternalFreeMem
 0001:00000E58       FillAfterGap
 0001:00000E80       FillerSizeBeforeGap
 0001:00000EF8       FillerSizeAfterGap
 0001:00000F38       DecommitFree
 0001:00000FF4       InsertFree
 0001:000010EC       FreeCurAlloc
 0001:00001138       MergeCommit
 0001:000011C4       NewCommit
 0001:000011F0       NewCommitAt
 0001:00001224       SearchSmallBlocks
 0001:0000125C       TryHarder
 0001:000013A4       SysGetMem
 0001:00001550       SysFreeMem
 0001:00001728       ResizeInPlace
 0001:0000192C       SysReallocMem
 0001:000019F8       @GetMem
 0001:00001A28       @FreeMem
 0001:00001A48       @ReallocMem
 0001:00001A98       ExceptAddr
 0001:00001AC4       RunErrorAt
 0001:00001AD0       ErrorAt
 0001:00001B1C       Error
 0001:00001B28       @_IOTest
 0001:00001B48       SetInOutRes
 0001:00001B58       @Copy
 0001:00001B9C       IOResult
 0001:00001BBC       Move
 0001:00001BFC       GetParamStr
 0001:00001D60       ParamStr
 0001:00001DC4       Randomize
 0001:00001DEC       @TRUNC
 0001:00001E10       @AbstractError
 0001:00001E2C       OpenText
 0001:00001E84       @ResetText
 0001:00001E90       @RewritText
 0001:00001E9C       TextIn
 0001:00001ED8       FileNOPProc
 0001:00001EDC       TextOut
 0001:00001F18       InternalClose
 0001:00001F28       TextClose
 0001:00001F48       TextOpen
 0001:000020F4       @Assign
 0001:0000215C       InternalFlush
 0001:000021A4       Flush
 0001:000021B0       @Flush
 0001:000021BC       @Close
 0001:00002214       @PStrNCat
 0001:00002244       @PStrCpy
 0001:00002250       @AStrCmp
 0001:000022C0       @EofText
 0001:000022F8       @FillChar
 0001:00002318       @RandInt
 0001:00002334       TryOpenForInput
 0001:00002370       @ReadChar
 0001:000023DC       ReadLine
 0001:0000245C       @ReadString
 0001:00002468       @ReadLString
 0001:000024D4       @ReadLn
 0001:00002504       @ValLong
 0001:000025D8       TryOpenForOutput
 0001:0000261C       @WriteBytes
 0001:00002670       @WriteSpaces
 0001:000026EC       @WriteLn
 0001:00002740       @SetEq
 0001:00002754       FPower10
 0001:0000275C       @Pow10
 0001:00002A40       GetKeyboardType
 0001:00002A48       @isNECWindows
 0001:00002A78       @FpuMaskInit
 0001:00002B3C       @FpuInit
 0001:00002B48       @BoundErr
 0001:00002B50       @IntOver
 0001:00002B58       TObject.ClassType
 0001:00002B64       TObject.ClassName
 0001:00002B78       TObject.ClassParent
 0001:00002B84       TObject.NewInstance
 0001:00002BA0       TObject.FreeInstance
 0001:00002BB4       TObject.InstanceSize
 0001:00002BBC       TObject.Create
 0001:00002BDC       TObject.Destroy
 0001:00002BEC       TObject.Free
 0001:00002BF8       TObject.InitInstance
 0001:00002C50       TObject.CleanupInstance
 0001:00002C70       InvokeImplGetter
 0001:00002CA0       TObject.GetInterface
 0001:00002D40       TObject.GetInterfaceEntry
 0001:00002D84       @IsClass
 0001:00002DA8       GetDynaMethod
 0001:00002DD8       @CallDynaInst
 0001:00002DF0       TObject.InheritsFrom
 0001:00002E04       TObject.SafeCallException
 0001:00002E0C       TObject.DefaultHandler
 0001:00002E10       TObject.AfterConstruction
 0001:00002E14       TObject.BeforeDestruction
 0001:00002E18       TObject.Dispatch
 0001:00002E40       @ClassCreate
 0001:00002E90       @ClassDestroy
 0001:00002E98       @AfterConstruction
 0001:00002EA8       @BeforeDestruction
 0001:00002EB8       NotifyReRaise
 0001:00002ED4       NotifyNonDelphiException
 0001:00002EF8       NotifyExcept
 0001:00002F10       NotifyOnExcept
 0001:00002F24       NotifyAnyExcept
 0001:00002F38       CheckJmp
 0001:00002F58       NotifyExceptFinally
 0001:00002F80       NotifyTerminate
 0001:00002F9C       NotifyUnhandled
 0001:00002FBC       @HandleAnyException
 0001:000030E8       @HandleOnException
 0001:00003270       @HandleFinally
 0001:000032A8       @RaiseExcept
 0001:000032D0       @RaiseAgain
 0001:00003324       @DoneExcept
 0001:00003354       @TryFinallyExit
 0001:0000336C       MapToRunError
 0001:0000340C       @ExceptionHandler
 0001:000034AC       SetExceptionHandler
 0001:000034CC       UnsetExceptionHandler
 0001:000034F4       FinalizeUnits
 0001:00003564       InitUnits
 0001:000035D4       @StartLib
 0001:0000369C       @InitResStringImports
 0001:000036C4       @InitImports
 0001:000036E8       MakeErrorMessage
 0001:00003744       ExitDll
 0001:00003774       WriteErrorMessage
 0001:00003800       @Halt0
 0001:000038E0       @Halt
 0001:000038EC       @RunError
 0001:000038F8       @Assert
 0001:00003918       @LStrClr
 0001:0000393C       @LStrArrayClr
 0001:0000396C       @LStrAsg
 0001:000039B0       @LStrLAsg
 0001:000039DC       @NewAnsiString
 0001:00003A08       @LStrFromPCharLen
 0001:00003A38       CharFromWChar
 0001:00003A58       WCharFromChar
 0001:00003A74       @LStrFromPWCharLen
 0001:00003B00       @LStrFromChar
 0001:00003B10       @LStrFromPChar
 0001:00003B40       @LStrFromPWChar
 0001:00003B7C       @LStrFromString
 0001:00003B88       @LStrFromArray
 0001:00003BA0       @LStrFromWStr
 0001:00003BB4       @LStrLen
 0001:00003BBC       @LStrCat
 0001:00003C00       @LStrCat3
 0001:00003C74       @LStrCatN
 0001:00003D00       @LStrCmp
 0001:00003DA4       @LStrAddRef
 0001:00003DB4       @LStrToPChar
 0001:00003DC0       InternalUniqueString
 0001:00003E04       UniqueString
 0001:00003E0C       @UniqueStringA
 0001:00003E14       @LStrCopy
 0001:00003E54       @LStrDelete
 0001:00003E9C       @LStrPos
 0001:00003EE4       @LStrSetLength
 0001:00003F48       @Write0LString
 0001:00003F64       @WriteLString
 0001:00003F84       WStrError
 0001:00003F8C       @NewWideString
 0001:00003FA4       WStrSet
 0001:00003FB4       @WStrClr
 0001:00003FCC       @WStrArrayClr
 0001:00003FF0       @WStrAsg
 0001:00004014       @WStrFromPCharLen
 0001:000040A0       @WStrFromPWCharLen
 0001:000040C4       @WStrFromPWChar
 0001:00004100       @WStrFromLStr
 0001:00004110       @WStrToPWChar
 0001:00004120       @WStrLen
 0001:0000412C       @WStrCmp
 0001:000041B0       @WStrCopy
 0001:000041FC       @WStrSetLength
 0001:00004244       @InitializeRecord
 0001:00004274       @InitializeArray
 0001:00004308       @FinalizeRecord
 0001:0000433C       @VarClr
 0001:00004354       @FinalizeArray
 0001:00004440       @Finalize
 0001:0000444C       @VarCopy
 0001:00004464       @CopyRecord
 0001:00004580       @CopyArray
 0001:00004674       @DispCallByIDError
 0001:0000467C       @_llmul
 0001:000046A0       @DynArrayLength
 0001:000046A8       @DynArrayHigh
 0001:000046B0       CopyArray
 0001:000046C0       FinalizeArray
 0001:000046C8       DynArrayClear
 0001:000046D0       DynArraySetLength
 0001:0000487C       @DynArraySetLength
 0001:00004888       @DynArrayClear
 0001:000048C4       @DynArrayAsg
 0001:000048EC       FindHInstance
 0001:00004914       DelayLoadResourceModule
 0001:0000495C       FindResourceHInstance
 0001:000049A4       FindBS
 0001:000049D0       ToLongPath
 0001:00004BA8       LoadResourceModule
 0001:00004E2C       AddModuleUnloadProc
 0001:00004E34       RemoveModuleUnloadProc
 0001:00004E3C       AddModuleUnloadProc
 0001:00004E5C       RemoveModuleUnloadProc
 0001:00004EE4       NotifyModuleUnload
 0001:00004F40       RegisterModule
 0001:00004F50       UnregisterModule
 0001:00004FD4       @IntfClear
 0001:00004FEC       @IntfCopy
 0001:00005018       @IntfAddRef
 0001:00005024       TInterfacedObject.AfterConstruction
 0001:00005030       TInterfacedObject.BeforeDestruction
 0001:00005040       TInterfacedObject.NewInstance
 0001:00005050       TInterfacedObject.QueryInterface
 0001:00005078       TInterfacedObject._AddRef
 0001:0000508C       TInterfacedObject._Release
 0001:000050B4       UnicodeToUtf8
 0001:00005190       Utf8ToUnicode
 0001:000052C8       UTF8Encode
 0001:00005374       UTF8Decode
 0001:00005418       AnsiToUtf8
 0001:00005468       LoadResString
 0001:000054C0       LCIDToCodePage
 0001:00005534       Finalization
 0001:00005588       System
 0001:0000565C       LocalAlloc
 0001:00005664       LocalFree
 0001:0000566C       TlsAlloc
 0001:00005674       TlsFree
 0001:0000567C       TlsGetValue
 0001:00005684       TlsSetValue
 0001:0000568C       AllocTlsBuffer
 0001:00005698       GetTlsSize
 0001:000056A0       InitThreadTLS
 0001:000056E4       InitProcessTLS
 0001:00005710       ExitThreadTLS
 0001:00005738       ExitProcessTLS
 0001:0000575C       @GetTls
 0001:0000579C       InitializeModule
 0001:000057A8       @InitLib
 0001:000057F0       Finalization
 0001:00005820       SysInit
 0001:00005828       Finalization
 0001:00005858       Types
 0001:00005860       RegCloseKey
 0001:00005868       RegCreateKeyEx
 0001:00005870       RegFlushKey
 0001:00005878       RegOpenKeyEx
 0001:00005880       RegQueryValueEx
 0001:00005888       RegSetValueEx
 0001:00005890       CloseHandle
 0001:00005898       CompareString
 0001:000058A0       CopyFile
 0001:000058A8       CreateDirectory
 0001:000058B0       CreateEvent
 0001:000058B8       CreateFile
 0001:000058C0       CreateFileMapping
 0001:000058C8       DeleteCriticalSection
 0001:000058D0       DeleteFile
 0001:000058D8       DeviceIoControl
 0001:000058E0       EnterCriticalSection
 0001:000058E8       EnumCalendarInfoA
 0001:000058F0       FileTimeToDosDateTime
 0001:000058F8       FileTimeToLocalFileTime
 0001:00005900       FindClose
 0001:00005908       FindFirstFile
 0001:00005910       FlushFileBuffers
 0001:00005918       FlushInstructionCache
 0001:00005920       FormatMessage
 0001:00005928       FreeLibrary
 0001:00005930       GetACP
 0001:00005938       GetCPInfo
 0001:00005940       GetCurrentProcess
 0001:00005948       GetCurrentThreadId
 0001:00005950       GetDateFormat
 0001:00005958       GetDiskFreeSpaceA
 0001:00005960       GetFileAttributes
 0001:00005968       GetFileSize
 0001:00005970       GetFullPathName
 0001:00005978       GetLastError
 0001:00005980       GetLocalTime
 0001:00005988       GetLocaleInfo
 0001:00005990       GetModuleFileName
 0001:00005998       GetModuleHandle
 0001:000059A0       GetPrivateProfileString
 0001:000059A8       GetProcAddress
 0001:000059B0       GetStdHandle
 0001:000059B8       GetStringTypeEx
 0001:000059C0       GetSystemDirectory
 0001:000059C8       GetSystemInfo
 0001:000059D0       GetTempFileName
 0001:000059D8       GetTempPath
 0001:000059E0       GetThreadLocale
 0001:000059E8       GetTickCount
 0001:000059F0       GetVersionEx
 0001:000059F8       GetVolumeInformation
 0001:00005A00       GlobalAlloc
 0001:00005A08       GlobalFree
 0001:00005A10       GlobalLock
 0001:00005A18       GlobalHandle
 0001:00005A20       GlobalReAlloc
 0001:00005A28       GlobalUnlock
 0001:00005A30       InitializeCriticalSection
 0001:00005A38       IsBadReadPtr
 0001:00005A40       LeaveCriticalSection
 0001:00005A48       LoadLibrary
 0001:00005A50       MapViewOfFile
 0001:00005A58       ReadFile
 0001:00005A60       ReadProcessMemory
 0001:00005A68       ResetEvent
 0001:00005A70       SetEndOfFile
 0001:00005A78       SetEvent
 0001:00005A80       SetFilePointer
 0001:00005A88       SetLastError
 0001:00005A90       Sleep
 0001:00005A98       VirtualAlloc
 0001:00005AA0       VirtualFree
 0001:00005AA8       VirtualLock
 0001:00005AB0       VirtualProtect
 0001:00005AB8       VirtualQuery
 0001:00005AC0       VirtualUnlock
 0001:00005AC8       WaitForSingleObject
 0001:00005AD0       WriteFile
 0001:00005AD8       WritePrivateProfileString
 0001:00005AE0       WriteProcessMemory
 0001:00005AE8       GetFileVersionInfo
 0001:00005AF0       GetFileVersionInfoSize
 0001:00005AF8       VerQueryValue
 0001:00005B00       CharLowerBuff
 0001:00005B08       CharNext
 0001:00005B10       CharToOemA
 0001:00005B18       CharUpperBuff
 0001:00005B20       GetSystemMetrics
 0001:00005B28       LoadString
 0001:00005B30       MessageBox
 0001:00005B38       HiWord
 0001:00005B54       GlobalAllocPtr
 0001:00005B64       GlobalReAllocPtr
 0001:00005B80       GlobalFreePtr
 0001:00005B94       Finalization
 0001:00005BC4       Windows
 0001:00005BCC       Finalization
 0001:00005BFC       Messages
 0001:00005F14       Finalization
 0001:00005F44       SysConst
 0001:00006AE8       DivMod
 0001:00006B04       ConvertError
 0001:00006B24       ConvertErrorFmt
 0001:00006B54       AllocMem
 0001:00006B7C       UpperCase
 0001:00006BE8       LowerCase
 0001:00006C54       CompareText
 0001:00006CA8       SameText
 0001:00006CCC       AnsiUpperCase
 0001:00006D14       AnsiLowerCase
 0001:00006D5C       AnsiCompareStr
 0001:00006DA8       AnsiCompareText
 0001:00006DF4       AnsiSameText
 0001:00006E18       Trim
 0001:00006E8C       TrimLeft
 0001:00006EDC       CvtInt
 0001:00006F28       IntToStr
 0001:00006F48       CvtInt64
 0001:00007014       IntToStr
 0001:0000703C       IntToHex
 0001:00007064       IntToHex
 0001:00007094       StrToInt
 0001:000070D4       StrToIntDef
 0001:00007104       TryStrToInt
 0001:00007130       VerifyBoolStrArray
 0001:000071C4       CompareWith
 0001:00007214       TryStrToBool
 0001:000072C0       BoolToStr
 0001:0000731C       FileOpen
 0001:0000738C       FileCreate
 0001:000073C0       FileCreate
 0001:000073E0       FileRead
 0001:00007418       FileWrite
 0001:00007450       FileSeek
 0001:0000748C       FileClose
 0001:000074A0       FileAge
 0001:00007510       FileExists
 0001:00007530       DirectoryExists
 0001:00007568       ForceDirectories
 0001:00007668       LastDelimiter
 0001:000076D8       ChangeFileExt
 0001:00007778       ExtractFilePath
 0001:000077B8       ExtractFileDir
 0001:00007824       ExtractFileName
 0001:00007868       ExtractFileExt
 0001:000078C8       ExpandFileName
 0001:0000790C       BackfillGetDiskFreeSpaceEx
 0001:0000798C       CreateDir
 0001:000079B8       StrLen
 0001:000079D0       StrMove
 0001:000079FC       StrLCopy
 0001:00007A30       StrLIComp
 0001:00007A74       StrScan
 0001:00007AAC       StrPos
 0001:00007B00       StrAlloc
 0001:00007B2C       StrNew
 0001:00007B6C       FormatError
 0001:00007BD4       FormatVarToStr
 0001:00007C0C       FormatClearStr
 0001:00007C20       FormatBuf
 0001:00007F98       StrLFmt
 0001:00007FF0       Format
 0001:00008018       FmtStr
 0001:000080F4       PutExponent
 0001:00008138       FloatToText
 0001:0000840C       FloatToDecimal
 0001:00008638       TextToFloat
 0001:0000874C       FloatToStr
 0001:0000877C       CurrToStr
 0001:000087AC       FloatToStrF
 0001:000087E8       StrToFloat
 0001:00008828       TryStrToFloat
 0001:00008850       TryStrToFloat
 0001:00008888       TryStrToFloat
 0001:000088C0       TryStrToCurr
 0001:000088E8       DateTimeToTimeStamp
 0001:0000892C       TryEncodeTime
 0001:000089AC       EncodeTime
 0001:000089F0       DecodeTime
 0001:00008A50       IsLeapYear
 0001:00008A94       TryEncodeDate
 0001:00008B98       EncodeDate
 0001:00008BD4       DecodeDateFully
 0001:00008D50       DecodeDate
 0001:00008D80       DayOfWeek
 0001:00008DB0       Date
 0001:00008DDC       Now
 0001:00008E24       CurrentYear
 0001:00008E44       AppendChars
 0001:00008EA4       AppendString
 0001:00008EC8       AppendNumber
 0001:00008F18       GetCount
 0001:00008F50       GetDate
 0001:00008F88       GetTime
 0001:00008FC8       ConvertEraString
 0001:0000914C       ConvertYearString
 0001:00009264       AppendFormat
 0001:00009A6C       DateTimeToString
 0001:00009AD8       DateToStr
 0001:00009AF8       TimeToStr
 0001:00009B18       DateTimeToStr
 0001:00009B34       FormatDateTime
 0001:00009B58       ScanBlanks
 0001:00009B98       ScanNumber
 0001:00009C4C       ScanString
 0001:00009CE4       ScanChar
 0001:00009D34       GetDateOrder
 0001:00009D9C       ScanToNumber
 0001:00009E04       GetEraYearOffset
 0001:00009E68       EraToYear
 0001:00009ED0       ScanDate
 0001:0000A264       ScanTime
 0001:0000A480       StrToDate
 0001:0000A4B8       TryStrToDate
 0001:0000A4FC       StrToTime
 0001:0000A534       TryStrToTime
 0001:0000A578       StrToDateTime
 0001:0000A5B0       TryStrToDateTime
 0001:0000A644       SysErrorMessage
 0001:0000A6A8       GetLocaleStr
 0001:0000A704       GetLocaleChar
 0001:0000A740       LocalGetLocaleStr
 0001:0000A784       GetMonthDayNames
 0001:0000A8B8       EnumEraNames
 0001:0000A904       EnumEraYearOffsets
 0001:0000A990       GetEraNamesAndYearOffsets
 0001:0000AA54       TranslateDateFormat
 0001:0000ACF8       ConvertAddr
 0001:0000AD08       ExceptionErrorMessage
 0001:0000AEC0       ShowException
 0001:0000AF9C       Exception.Create
 0001:0000AFE4       Exception.CreateFmt
 0001:0000B074       Exception.CreateRes
 0001:0000B0BC       Exception.CreateResFmt
 0001:0000B160       Exception.CreateHelp
 0001:0000B1B4       Exception.CreateFmtHelp
 0001:0000B24C       EHeapException.FreeInstance
 0001:0000B288       CreateInOutError
 0001:0000B32C       ErrorHandler
 0001:0000B39C       CreateAssertException
 0001:0000B454       RaiseAssertException
 0001:0000B464       AssertErrorHandler
 0001:0000B49C       AbstractErrorHandler
 0001:0000B4B8       MapException
 0001:0000B56C       GetExceptionClass
 0001:0000B598       CreateAVObject
 0001:0000B77C       GetExceptionObject
 0001:0000B85C       ExceptHandler
 0001:0000B884       InitExceptions
 0001:0000B90C       DoneExceptions
 0001:0000B990       InitPlatformId
 0001:0000BA10       ByteTypeTest
 0001:0000BABC       ByteType
 0001:0000BAF0       StrByteType
 0001:0000BB20       ByteToCharLen
 0001:0000BB5C       ByteToCharIndex
 0001:0000BBE0       CountChars
 0001:0000BC98       CharToByteIndex
 0001:0000BD10       CharToByteLen
 0001:0000BD84       StrCharLength
 0001:0000BDB8       StrNextChar
 0001:0000BDD4       CharLength
 0001:0000BE24       NextCharIndex
 0001:0000BE78       IsPathDelimiter
 0001:0000BEC4       IsDelimiter
 0001:0000BF20       IncludeTrailingPathDelimiter
 0001:0000BF74       ExcludeTrailingPathDelimiter
 0001:0000BFC0       AnsiPos
 0001:0000C00C       AnsiStrPos
 0001:0000C0E4       AnsiStrRScan
 0001:0000C134       AnsiStrScan
 0001:0000C18C       LCIDToCodePage
 0001:0000C204       InitLeadBytes
 0001:0000C284       IsWesternGroup
 0001:0000C2A8       InitSysLocale
 0001:0000C454       GetFormatSettings
 0001:0000C7E8       StringReplace
 0001:0000C944       Sleep
 0001:0000C94C       RaiseLastOSError
 0001:0000C9F8       Win32Check
 0001:0000CA1C       FreeTerminateProcs
 0001:0000CA50       InitDriveSpacePtr
 0001:0000CAB4       InterlockedIncrement
 0001:0000CAC0       InterlockedDecrement
 0001:0000CACC       InterlockedExchange
 0001:0000CAD4       InterlockedExchangeAdd
 0001:0000CADC       TThreadLocalCounter.Destroy
 0001:0000CB58       TThreadLocalCounter.HashIndex
 0001:0000CB7C       TThreadLocalCounter.Open
 0001:0000CC2C       TThreadLocalCounter.Delete
 0001:0000CC50       TThreadLocalCounter.Recycle
 0001:0000CCB4       TMultiReadExclusiveWriteSynchronizer.Create
 0001:0000CD44       TMultiReadExclusiveWriteSynchronizer.Destroy
 0001:0000CDA0       TMultiReadExclusiveWriteSynchronizer.BlockReaders
 0001:0000CDB8       TMultiReadExclusiveWriteSynchronizer.UnblockReaders
 0001:0000CDD0       TMultiReadExclusiveWriteSynchronizer.UnblockOneWriter
 0001:0000CDE8       TMultiReadExclusiveWriteSynchronizer.WaitForReadSignal
 0001:0000CE08       TMultiReadExclusiveWriteSynchronizer.WaitForWriteSignal
 0001:0000CE28       TMultiReadExclusiveWriteSynchronizer.BeginWrite
 0001:0000CF04       TMultiReadExclusiveWriteSynchronizer.EndWrite
 0001:0000CF70       TMultiReadExclusiveWriteSynchronizer.BeginRead
 0001:0000CFF8       TMultiReadExclusiveWriteSynchronizer.EndRead
 0001:0000D07C       FreeAndNil
 0001:0000D370       Finalization
 0001:0000D4F0       SysUtils
 0001:0000D570       VariantInit
 0001:0000D578       VariantClear
 0001:0000D580       VariantCopy
 0001:0000D588       VariantChangeType
 0001:0000D590       BackupVariantChangeTypeEx
 0001:0000D5C8       UniUnimplemented
 0001:0000D5DC       BiUnimplemented
 0001:0000D5F0       CmpUnimplemented
 0001:0000D604       BackupVarI4FromStr
 0001:0000D678       BackupVarR4FromStr
 0001:0000D6EC       BackupVarR8FromStr
 0001:0000D760       BackupVarDateFromStr
 0001:0000D7D4       BackupVarCyFromStr
 0001:0000D848       BackupVarBoolFromStr
 0001:0000D8CC       BackupVarBStrFromCy
 0001:0000D948       BackupVarBStrFromDate
 0001:0000D9C4       BackupVarBStrFromBool
 0001:0000DA44       SafeArrayCreate
 0001:0000DA4C       SafeArrayGetLBound
 0001:0000DA54       SafeArrayGetUBound
 0001:0000DA5C       SafeArrayPtrOfIndex
 0001:0000DA64       FindProc
 0001:0000DAA8       InitializeVarUtils
 0001:0000DDB4       Finalization
 0001:0000DDE4       VarUtils
 0001:0000E3D0       VarCastError
 0001:0000E424       VarCastError
 0001:0000E4C0       VarInvalidOp
 0001:0000E514       VarOverflowError
 0001:0000E5B0       VarArrayCreateError
 0001:0000E604       TranslateResult
 0001:0000E858       VarResultCheck
 0001:0000E864       VarResultCheck
 0001:0000E898       @DispInvokeError
 0001:0000E8EC       InBounds
 0001:0000E91C       Increment
 0001:0000E978       VarArrayClear
 0001:0000EAF4       VarClearDeep
 0001:0000EB70       @VarClear
 0001:0000EB84       @VarClr
 0001:0000EB8C       InBounds
 0001:0000EBBC       Increment
 0001:0000EC18       VarArrayCopyForEach
 0001:0000EDF8       VarCopyCopyProc
 0001:0000EE00       VarCopyDeep
 0001:0000EEAC       @VarCopy
 0001:0000EEF0       CurrToWStrViaOS
 0001:0000EF28       DateToWStrViaOS
 0001:0000EF60       BoolToWStrViaOS
 0001:0000F024       VarToLStrViaOS
 0001:0000F0F0       VarToLStrAny
 0001:0000F154       VarToLStrCustom
 0001:0000F1D8       @VarToLStr
 0001:0000F714       VarToWStrViaOS
 0001:0000F7CC       VarToWStrAny
 0001:0000F830       VarToWStrCustom
 0001:0000F8F8       @VarToWStr
 0001:0000FE4C       @VarAddRef
 0001:0000FFD0       VarTypeAsText
 0001:00010140       SetVarAsError
 0001:00010158       SetClearVarToEmptyParam
 0001:00010188       ClearVariantTypeList
 0001:000101F4       TCustomVariantType.BinaryOp
 0001:00010200       TCustomVariantType.Cast
 0001:00010238       TCustomVariantType.CastTo
 0001:00010280       TCustomVariantType.Compare
 0001:0001028C       TCustomVariantType.CompareOp
 0001:000102C4       TCustomVariantType.CastToOle
 0001:00010300       TCustomVariantType.Destroy
 0001:0001038C       TCustomVariantType.IsClear
 0001:00010390       TCustomVariantType.LeftPromotion
 0001:000103A4       TCustomVariantType.OlePromotion
 0001:000103AC       TCustomVariantType.RaiseCastError
 0001:000103B4       TCustomVariantType.RaiseInvalidOp
 0001:000103BC       TCustomVariantType.RaiseDispError
 0001:000103C4       TCustomVariantType.RightPromotion
 0001:000103D8       TCustomVariantType.UnaryOp
 0001:000103E0       TCustomVariantType.DispInvoke
 0001:000103EC       TCustomVariantType._AddRef
 0001:000103F8       TCustomVariantType._Release
 0001:00010404       TCustomVariantType.QueryInterface
 0001:0001042C       FindCustomVariantType
 0001:000104E4       Finalization
 0001:0001055C       Variants
 0001:00010698       Finalization
 0001:000106C8       RTLConsts
 0001:000106FC       Finalization
 0001:0001074C       TypInfo
 0001:00010754       Finalization
 0001:00010784       ActiveX
 0001:00011198       TRegGroup.Create
 0001:00011220       TRegGroup.Destroy
 0001:00011274       PointerInModule
 0001:000112A4       TRegGroup.UnregisterModuleClasses
 0001:00011380       TRegGroups.Create
 0001:0001140C       TRegGroups.Destroy
 0001:00011488       TRegGroups.Lock
 0001:000114A0       TRegGroups.Unlock
 0001:000114B8       TRegGroups.UnregisterModuleClasses
 0001:00011524       UnRegisterModuleClasses
 0001:00011574       TList.Destroy
 0001:000115A0       TList.Add
 0001:000115F8       TList.Clear
 0001:00011618       TList.Delete
 0001:000116AC       ReturnAddr
 0001:000116B4       TList.Error
 0001:000116F4       TList.Error
 0001:00011754       TList.Get
 0001:0001179C       TList.Grow
 0001:000117F4       TList.IndexOf
 0001:00011840       TList.Put
 0001:000118D0       TList.Remove
 0001:00011904       TList.SetCapacity
 0001:00011960       TList.SetCount
 0001:00011A08       QuickSort
 0001:00011AD8       TList.Sort
 0001:00011B14       TList.Extract
 0001:00011B70       TList.Notify
 0001:00011B84       TThreadList.Create
 0001:00011BEC       TThreadList.Destroy
 0001:00011C68       TThreadList.LockList
 0001:00011C90       TThreadList.UnlockList
 0001:00011CA8       TPersistent.Destroy
 0001:00011CE4       TPersistent.Assign
 0001:00011D10       TPersistent.AssignError
 0001:00011DE8       TPersistent.AssignTo
 0001:00011E04       TPersistent.DefineProperties
 0001:00011E14       TPersistent.GetNamePath
 0001:00011ECC       TPersistent.GetOwner
 0001:00011EE4       TStrings.Destroy
 0001:00011F20       TStrings.Add
 0001:00011F50       TStrings.AddObject
 0001:00011F84       TStrings.AddStrings
 0001:00012044       TStrings.Assign
 0001:000120E8       TStrings.BeginUpdate
 0001:0001210C       DoWrite
 0001:0001216C       TStrings.DefineProperties
 0001:000121B8       TStrings.EndUpdate
 0001:000121DC       TStrings.Equals
 0001:00012290       ReturnAddr
 0001:00012298       TStrings.Error
 0001:000122D8       TStrings.Error
 0001:00012338       TStrings.Exchange
 0001:00012424       TStrings.GetCapacity
 0001:00012440       TStrings.GetObject
 0001:00012458       TStrings.GetText
 0001:000124B4       TStrings.GetTextStr
 0001:000125FC       TStrings.IndexOf
 0001:00012688       TStrings.IndexOfName
 0001:00012764       TStrings.IndexOfObject
 0001:000127B0       TStrings.InsertObject
 0001:000127E4       TStrings.LoadFromFile
 0001:00012840       TStrings.LoadFromStream
 0001:000128F4       TStrings.Move
 0001:000129B0       TStrings.Put
 0001:000129F0       TStrings.PutObject
 0001:00012A04       TStrings.ReadData
 0001:00012AB4       TStrings.SaveToFile
 0001:00012B14       TStrings.SaveToStream
 0001:00012B74       TStrings.SetCapacity
 0001:00012B84       TStrings.SetStringsAdapter
 0001:00012BD0       TStrings.SetText
 0001:00012C28       TStrings.SetTextStr
 0001:00012D08       TStrings.SetUpdateState
 0001:00012D18       TStrings.WriteData
 0001:00012DA4       TStrings.CompareStrings
 0001:00012DC8       TStrings.GetNameValueSeparator
 0001:00012DF4       TStrings.SetNameValueSeparator
 0001:00012E28       TStringList.Destroy
 0001:00012EA4       TStringList.Add
 0001:00012ECC       TStringList.AddObject
 0001:00012F44       TStringList.Changed
 0001:00012F70       TStringList.Changing
 0001:00012F9C       TStringList.Clear
 0001:00012FF0       TStringList.Delete
 0001:00013090       TStringList.Exchange
 0001:0001310C       TStringList.ExchangeItems
 0001:00013178       TStringList.Find
 0001:00013210       TStringList.Get
 0001:0001325C       TStringList.GetCapacity
 0001:00013278       TStringList.GetCount
 0001:00013294       TStringList.GetObject
 0001:000132DC       TStringList.Grow
 0001:00013334       TStringList.IndexOf
 0001:00013380       TStringList.Insert
 0001:000133A8       TStringList.InsertObject
 0001:00013410       TStringList.InsertItem
 0001:000134B8       TStringList.Put
 0001:00013530       TStringList.PutObject
 0001:0001358C       TStringList.QuickSort
 0001:00013650       TStringList.SetCapacity
 0001:0001367C       TStringList.SetSorted
 0001:000136B4       TStringList.SetUpdateState
 0001:000136E4       StringListCompareStrings
 0001:00013720       TStringList.Sort
 0001:0001373C       TStringList.CustomSort
 0001:0001378C       TStringList.CompareStrings
 0001:000137CC       TStream.GetPosition
 0001:000137F4       TStream.SetPosition
 0001:00013810       TStream.GetSize
 0001:0001385C       TStream.SetSize
 0001:0001386C       TStream.SetSize
 0001:000138C4       RaiseException
 0001:00013910       TStream.Seek
 0001:0001399C       TStream.Seek
 0001:00013A0C       TStream.ReadBuffer
 0001:00013A54       TStream.WriteBuffer
 0001:00013A9C       TStream.CopyFrom
 0001:00013B94       THandleStream.Create
 0001:00013BE4       THandleStream.Read
 0001:00013C1C       THandleStream.Write
 0001:00013C54       THandleStream.Seek
 0001:00013C88       THandleStream.SetSize
 0001:00013CA8       THandleStream.SetSize
 0001:00013CD8       TFileStream.Create
 0001:00013D28       TFileStream.Create
 0001:00013E88       TFileStream.Destroy
 0001:00013ED0       TCustomMemoryStream.SetPointer
 0001:00013EF8       TCustomMemoryStream.Read
 0001:00013F68       TCustomMemoryStream.Seek
 0001:00013FC0       TMemoryStream.Destroy
 0001:00013FFC       TMemoryStream.Clear
 0001:00014020       TMemoryStream.SetCapacity
 0001:00014054       TMemoryStream.SetSize
 0001:0001409C       TMemoryStream.Realloc
 0001:00014164       TMemoryStream.Write
 0001:000141F4       RemoveFixupReferences
 0001:000142B0       RemoveFixups
 0001:00014344       ReadError
 0001:00014364       PropValueError
 0001:00014374       TReader.CheckValue
 0001:000143A4       TReader.EndOfList
 0001:000143C8       TReader.NextValue
 0001:000143EC       TReader.Read
 0001:00014438       TReader.ReadBuffer
 0001:0001448C       TReader.ReadListBegin
 0001:000144A0       TReader.ReadListEnd
 0001:000144B4       TReader.ReadStr
 0001:000144FC       TReader.ReadString
 0001:000145C0       TReader.ReadWideString
 0001:000146B8       TReader.ReadValue
 0001:000146D8       TReader.SkipSetBody
 0001:00014728       SkipList
 0001:00014754       SkipBinary
 0001:00014788       SkipCollection
 0001:000147FC       TReader.SkipValue
 0001:00014998       TReader.SkipProperty
 0001:000149E8       TReader.SkipBytes
 0001:00014A44       TWriter.Write
 0001:00014A90       TWriter.WriteBuffer
 0001:00014ABC       TWriter.WriteListBegin
 0001:00014AD0       TWriter.WriteListEnd
 0001:00014AE4       TWriter.WriteMinStr
 0001:00014B94       TWriter.WriteString
 0001:00014BF0       TWriter.WriteValue
 0001:00014C10       BinToHex
 0001:00014C78       HexToBin
 0001:00014CF4       InitThreadSynchronization
 0001:00014D2C       DoneThreadSynchronization
 0001:00014D48       FreeIntConstList
 0001:00014DC4       ModuleUnload
 0001:00014DD8       Finalization
 0001:00014E88       Classes
 0001:00014FA8       TStringQueue.Create
 0001:00015018       TStringQueue.Clear
 0001:0001503C       TStringQueue.Grow
 0001:0001514C       TStringQueue.EnQueue
 0001:000151D0       TStringQueue.DeQueue
 0001:00015278       TStringQueue.Examine
 0001:000152C0       Finalization
 0001:000152F0       ListsU
 0001:000152F8       timeBeginPeriod
 0001:00015300       timeGetDevCaps
 0001:00015308       timeGetTime
 0001:00015310       Finalization
 0001:00015340       MMSystem
 0001:00015414       TSynchroObject.Acquire
 0001:00015420       TSynchroObject.Release
 0001:0001542C       TCriticalSection.Create
 0001:0001547C       TCriticalSection.Destroy
 0001:000154BC       TCriticalSection.Acquire
 0001:000154D4       TCriticalSection.Release
 0001:000154EC       Finalization
 0001:0001551C       SyncObjs
 0001:000155E8       Compress
 0001:00015660       TGpHugeFile.CreateEx
 0001:00015718       TGpHugeFile.Destroy
 0001:00015754       Elapsed
 0001:000157D0       TGpHugeFile.AccessFile
 0001:00015A78       TGpHugeFile.ResetEx
 0001:00015C04       TGpHugeFile.RewriteEx
 0001:00015D68       TGpHugeFile.Close
 0001:00015E20       TGpHugeFile.CheckHandle
 0001:00015E8C       TGpHugeFile.FileSizeNoCache
 0001:00015FE4       TGpHugeFile.BlockWrite
 0001:0001613C       TGpHugeFile._Seek
 0001:000163A0       TGpHugeFile.Seek
 0001:00016424       TGpHugeFile.Truncate
 0001:00016510       TGpHugeFile.FilePos
 0001:000165D4       TGpHugeFile.Flush
 0001:00016648       TGpHugeFile.RoundToPageSize
 0001:00016674       TGpHugeFile.AllocBuffer
 0001:000167AC       TGpHugeFile.FreeBuffer
 0001:0001687C       OffsetPtr
 0001:00016898       TGpHugeFile.Transmit
 0001:00016B0C       TGpHugeFile.FlushBuffer
 0001:00016BD0       TGpHugeFile.BlockWriteUnsafe
 0001:00016C8C       TGpHugeFile.IsOpen
 0001:00016CA8       ThrowCase1
 0001:00016DA0       ThrowCase2
 0001:00016E60       TGpHugeFile.Win32Check
 0001:00016EA8       TGpHugeFile.LoadedToTheEOF
 0001:00016F10       TGpHugeFile.FileSize
 0001:00016F58       TGpHugeFile.InitWriteBuffer
 0001:00016F8C       TGpHugeFile.InitReadBuffer
 0001:00016FC0       Finalization
 0001:00016FF0       GPHugeF
 0001:00016FF8       Finalization
 0001:00017028       Consts
 0001:00017030       DataToStr2
 0001:000170E4       IsStrBool
 0001:00017170       GetChar
 0001:000171C8       ParseParams
 0001:000173F4       PtrToStr
 0001:00017428       BinToInt
 0001:000174D0       SimpleCrypt
 0001:00017518       CRC32
 0001:00017550       CalcCRC
 0001:0001759C       RemoveInvalid
 0001:00017614       Finalization
 0001:00017644       textdata
 0001:0001764C       Finalization
 0001:0001767C       Math
 0001:000176EC       TObjectList.Add
 0001:00017710       TObjectList.Create
 0001:00017760       TObjectList.Extract
 0001:00017784       TObjectList.GetItem
 0001:000177A8       TObjectList.Notify
 0001:000177E0       Finalization
 0001:00017810       Contnrs
 0001:00017968       StripFromString
 0001:00017A2C       CompareHeaders
 0001:00017AB8       SyncHeaders
 0001:00017CBC       AddUnit
 0001:00017EA0       AddProcedure
 0001:00018054       AddLineNo
 0001:000181C4       LoadAndParseMapFile
 0001:0001841C       CleanUpMapFile
 0001:00018448       GetModuleNameFromAddress
 0001:000184C4       GetProcNameFromAddress
 0001:00018534       GetLineNumberFromAddress
 0001:00018630       GetMapFileName
 0001:00018728       GetMapAddressFromAddress
 0001:00018774       Finalization
 0001:000187B0       uDebug
 0001:000187B8       OnInitialize
 0001:000187D0       OnFinalize
 0001:000187E0       Finalization
 0001:00018810       FreeListU
 0001:00018818       SHGetFolderPath
 0001:00018820       Finalization
 0001:00018850       SHFolder
 0001:00018940       GetMyDocs
 0001:000189A0       GetSysDir
 0001:00018A80       IsWin9x
 0001:00018AE0       GetVolumePathName
 0001:00018B6C       Compress
 0001:00018BE4       SupportsCompression
 0001:00018DEC       SelfLocation
 0001:00018EBC       TempPath
 0001:00018F5C       MakeTempFilename
 0001:00019000       GetFileVersion_internal
 0001:0001920C       GetFileVersion
 0001:000192F4       GetTADemoVersion
 0001:0001936C       Finalization
 0001:000193C8       TADemoConsts
 0001:00019428       TTextFile.Create_Append
 0001:00019500       TTextFile.Create_Rewrite
 0001:000195C0       TTextFile.Destroy
 0001:000195FC       TTextFile.Flush
 0001:00019624       TTextFile.Writeln
 0001:000196C8       Finalization
 0001:000196F8       TextFileU
 0001:00019770       LogException
 0001:00019880       LogError
 0001:000199D0       TLog.Create
 0001:00019CC8       TLog.Destroy
 0001:00019D70       TLog.Flush
 0001:00019D9C       TLog.Add2
 0001:00019EB4       TLog.Add
 0001:00019F38       TLog.Add
 0001:0001A0AC       TLog.Add
 0001:0001A128       Finalization
 0001:0001A16C       logging
 0001:0001A240       ErrorString
 0001:0001BAE0       Finalization
 0001:0001BB10       DPlay
 0001:0001BC04       Finalization
 0001:0001BC34       DPLobby
 0001:0001BC3C       CheatEnabled
 0001:0001BC5C       AddCheatDescription
 0001:0001BCB0       ListCheats
 0001:0001BF90       IsTAHookRunning
 0001:0001BFE0       OpenMemMap
 0001:0001C054       Finalization
 0001:0001C084       MemMappedDataStructure
 0001:0001C0BC       Finalization
 0001:0001C0EC       PacketBufferU
 0001:0001C158       TLog2.Create
 0001:0001C228       TLog2.Flush
 0001:0001C250       TLog2.Add
 0001:0001C408       TLog2.Destroy
 0001:0001C444       Finalization
 0001:0001C474       log2
 0001:0001C4E8       TStatsLogging.Create
 0001:0001C5B8       TStatsLogging.Flush
 0001:0001C5E0       TStatsLogging.Add
 0001:0001C7A8       TStatsLogging.NewUnit_StatEvent
 0001:0001C8A0       TStatsLogging.UnitFinished_StatEvent
 0001:0001C970       TStatsLogging.Damage_StatEvent
 0001:0001CA64       TStatsLogging.Kill_StatEvent
 0001:0001CB40       TStatsLogging.Stats_StatEvent
 0001:0001CCE0       TStatsLogging.Destroy
 0001:0001CD1C       Finalization
 0001:0001CD4C       statslogging
 0001:0001CF2C       TCustomIniFile.Create
 0001:0001CF74       TCustomIniFile.ReadInteger
 0001:0001D040       TCustomIniFile.WriteInteger
 0001:0001D0A4       TCustomIniFile.ReadBool
 0001:0001D0D8       TCustomIniFile.ReadDate
 0001:0001D194       TCustomIniFile.ReadDateTime
 0001:0001D250       TCustomIniFile.ReadFloat
 0001:0001D30C       TCustomIniFile.ReadTime
 0001:0001D3C8       TCustomIniFile.WriteDate
 0001:0001D430       TCustomIniFile.WriteDateTime
 0001:0001D498       TCustomIniFile.WriteFloat
 0001:0001D504       TCustomIniFile.WriteTime
 0001:0001D584       TCustomIniFile.WriteBool
 0001:0001D5B8       TCustomIniFile.ReadBinaryStream
 0001:0001D72C       TCustomIniFile.WriteBinaryStream
 0001:0001D89C       TIniFile.Destroy
 0001:0001D8D8       TIniFile.ReadString
 0001:0001D938       TIniFile.WriteString
 0001:0001D9A8       TIniFile.ReadSections
 0001:0001DAB4       TIniFile.ReadSection
 0001:0001DBCC       TIniFile.ReadSectionValues
 0001:0001DD20       TIniFile.EraseSection
 0001:0001DD7C       TIniFile.DeleteKey
 0001:0001DDB4       TIniFile.UpdateFile
 0001:0001DDD8       Finalization
 0001:0001DE20       IniFiles
 0001:0001DF5C       ReadError
 0001:0001DF90       IsRelative
 0001:0001DFB8       RegDataToDataType
 0001:0001E008       DataTypeToRegData
 0001:0001E04C       TRegistry.Create
 0001:0001E0A4       TRegistry.Create
 0001:0001E0F4       TRegistry.Destroy
 0001:0001E130       TRegistry.CloseKey
 0001:0001E178       TRegistry.SetRootKey
 0001:0001E1C0       TRegistry.ChangeKey
 0001:0001E1F4       TRegistry.GetBaseKey
 0001:0001E22C       TRegistry.SetCurrentKey
 0001:0001E248       TRegistry.CreateKey
 0001:0001E32C       TRegistry.OpenKey
 0001:0001E464       TRegistry.GetDataInfo
 0001:0001E4C0       TRegistry.GetDataSize
 0001:0001E4F4       TRegistry.WriteString
 0001:0001E528       TRegistry.ReadString
 0001:0001E5B4       TRegistry.PutData
 0001:0001E624       TRegistry.GetData
 0001:0001E6A4       TRegistry.ValueExists
 0001:0001E6C8       TRegistry.GetKey
 0001:0001E768       TRegIniFile.Create
 0001:0001E7B4       TRegIniFile.Create
 0001:0001E818       TRegIniFile.ReadString
 0001:0001E8E8       TRegIniFile.WriteString
 0001:0001E998       TRegIniFile.ReadInteger
 0001:0001EAA4       TRegIniFile.WriteInteger
 0001:0001EB98       TRegIniFile.ReadBool
 0001:0001EBE4       Finalization
 0001:0001EC2C       Registry
 0001:0001EF5C       PatchNJump
 0001:0001EF8C       SpliceInJump
 0001:0001F064       UnSpliceJump
 0001:0001F0F8       TCodeInjection.Create
 0001:0001F13C       TCodeInjection.RestoreProc
 0001:0001F27C       TCodeInjection_Replacement.WriteProc
 0001:0001F430       TCodeInjection_StaticCall.WriteProc
 0001:0001F5E4       TCodeInjection_RelativeJmp.Create
 0001:0001F64C       TCodeInjection_RelativeJmp.WriteProc
 0001:0001F8A4       TPluginData.create
 0001:0001F948       TPluginData.MakeRelativeJmp
 0001:0001F9BC       TPluginData.MakeStaticCall
 0001:0001FA10       TPluginData.MakeNOPReplacement
 0001:0001FAB4       TPluginData.MakeReplacement
 0001:0001FB6C       TPluginData.NewCodeInjection
 0001:0001FC78       RegisterPlugin
 0001:0001FCDC       InstallPlugins
 0001:0001FEA4       UnInstallPlugins
 0001:00020004       Finalization
 0001:00020044       PluginEngine
 0001:0002004C       TestByte
 0001:00020084       TestByte
 0001:000200D0       TestBytes
 0001:0002015C       SetWord
 0001:00020178       SetLongword
 0001:00020190       CheckForCheats
 0001:00020528       Finalization
 0001:00020558       TAMemManipulations
 0001:00020660       IsTAVersion31
 0001:00020678       DoReport
 0001:0002079C       TAMem.IsTAVersion31
 0001:00020834       TAMem.getViewPLayer
 0001:0002085C       TAMem.getGameSpeed
 0001:00020884       TAMem.getMaxUnitLimit
 0001:000208B0       TAMem.getActualUnitLimit
 0001:000208DC       TAMem.getIsAlteredUnitLimit
 0001:00020908       TAMem.getUnitsPtr
 0001:00020930       TAMem.getPlayerIndex
 0001:000209B4       TAMem.GetUnitPtr
 0001:00020A18       TAPlayer.GetAlliedState
 0001:00020A60       TAPlayer.PlayerType
 0001:00020A88       TAUnit.getKills
 0001:00020AB4       TAUnit.GetOwnerPtr
 0001:00020ADC       TAUnit.GetOwnerIndex
 0001:00020B04       Finalization
 0001:00020B34       TA_MemoryLocations
 0001:00020B3C       OnInstallCobExtensions
 0001:00020B40       OnUninstallCobExtensions
 0001:00020B44       GetPlugin
 0001:00020BEC       CustomGetters
 0001:00020DF0       COB_Extensions_Handling
 0001:00020E70       Finalization
 0001:00020EA0       COB_extensions
 0001:00020EA8       InitToolHelp
 0001:00021168       CreateToolhelp32Snapshot
 0001:0002119C       Module32First
 0001:000211D0       Module32Next
 0001:00021204       Finalization
 0001:00021234       TlHelp32
 0001:0002123C       Finalization
 0001:0002126C       TA_FunctionsU
 0001:00021274       OnInstall
 0001:00021278       OnUnInstall
 0001:0002127C       GetPlugin
 0001:00021370       TModuleInfo.Create
 0001:00021450       ModuleInfoComparer
 0001:00021498       Errorlog_Thunk2
 0001:000217DC       Errorlog_Thunk1
 0001:000217F0       Finalization
 0001:00021820       ErrorLog_ExtraData
 0001:00021828       OnInstall
 0001:0002182C       OnUnInstall
 0001:00021830       GetPlugin
 0001:0002188C       Finalization
 0001:000218BC       Thread_marshaller
 0001:000218C4       OnInstallUnitLimit
 0001:000218C8       OnUninstallUnitLimit
 0001:000218CC       GetPlugin
 0001:00021A3C       Finalization
 0001:00021A6C       UnitLimit
 0001:00021A74       FixModsINI
 0001:00021D28       ReadModsIniField
 0001:00021E60       Finalization
 0001:00021E90       ModsList
 0001:00021EDC       fnRemoveInvalidChar
 0001:000220C8       GetINIFileName
 0001:000222D4       ReadINISettings
 0001:00022664       Finalization
 0001:000226B0       INI_Options
 0001:00022720       TPacket.Create
 0001:000227CC       TPacket.SJCreateNew
 0001:0002285C       TPacket.GetTimestamp
 0001:00022898       TPacket.GetRawData2
 0001:000228D4       TPacket.GetTAData
 0001:00022938       TPacket.PacketLength
 0001:00022E04       TPacket.Split2
 0001:00023174       TPacket.Decrypt
 0001:000232BC       TPacket.Encrypt
 0001:000233E4       TPacket.Decompress
 0001:000238A0       TPacket.Compress
 0001:00023E30       Finalization
 0001:00023E60       packet_old
 0001:00023EC4       TPluginCommands.Create
 0001:00023F30       TPluginCommands.destroy
 0001:00023F74       TPluginCommands.ClearCommands
 0001:00023FD4       TPluginCommands.LookUpCommand
 0001:0002401C       Finalization
 0001:0002404C       PluginCommandHandlerU
 0001:00024054       InputHandler
 0001:000241E4       OnInstall
 0001:00024204       OnUnInstall
 0001:00024214       GetPlugin
 0001:00024274       Finalization
 0001:000242A4       InputHook
 0001:000242AC       GetCodeInjections
 0001:0002438C       GameUnit_LOS_Radar_CanDirectlySeeUnit
 0001:000243E8       GameUnit_LOS_Radar_LoopStart
 0001:00024440       GameUnit_LOS_Radar_LoopCondition
 0001:00024500       Finalization
 0001:00024530       LOS_Radar
 0001:00024538       GetCodeInjections
 0001:0002459C       GameUnit_LOS_MiniMap_UnitsProjectiles_IsOwner
 0001:000245CC       Finalization
 0001:000245FC       LOS_MiniMapUnits
 0001:00024604       GetCodeInjections
 0001:000246AC       GameUnit_LOS_PlayerSeeUnit_IsOwnerAllowedToSee
 0001:00024700       GameUnit_LOS_PlayerSeeUnit_EpilogCode_Exit
 0001:0002470C       Finalization
 0001:0002473C       LOS_PlayerSeeUnit
 0001:00024744       GetCodeInjections
 0001:00024810       LOS_GUIText_Unit_Resources
 0001:00024850       LOS_GUIText_SeeCommHealth
 0001:00024888       LOS_GUIText_Unit_KillsNStuff
 0001:000248BC       Finalization
 0001:000248EC       LOS_GUIText
 0001:000248F4       GetCodeInjections
 0001:00024A30       GameUnit_LOS_Update_1_Start
 0001:00024A4C       GameUnit_LOS_Update_1_Retry
 0001:00024B1C       GameUnit_LOS_Update_2_Start
 0001:00024B38       GameUnit_LOS_Update_2_Retry
 0001:00024C10       Finalization
 0001:00024C40       LOS_UpdateTables
 0001:00024C48       GetCodeInjections
 0001:00024D18       Signal_AlliedStateChange
 0001:00024D5C       Player_SetAlliedState_JumpHook
 0001:00024D74       Player_SetAlliedState_RetHook
 0001:00024D8C       Finalization
 0001:00024DBC       LOS_AllyPlayer
 0001:00024DC4       ResetShareLosState
 0001:00024DE0       OnInstallShareLOS
 0001:00024DEC       OnUninstallShareLOS
 0001:00024DF8       TextCommand_View_Hook
 0001:00024E24       GetPlugin
 0001:00024EDC       Finalization
 0001:00024F0C       LOS_extensions
 0001:00024F14       ResetGameSpeedLimits
 0001:00024F28       OnInstallSpeedHack
 0001:00024F34       OnUninstallSpeedHack
 0001:00024F38       GetPlugin
 0001:00025054       SpeedState_DecreaseSpeed_Check
 0001:0002508C       SpeedState_IncreaseSpeed_Check
 0001:000250BC       SpeedState_SetSpeed_Check
 0001:000250E4       Finalization
 0001:00025114       SpeedHack
 0001:0002511C       Finalization
 0001:0002514C       TA_NetworkingMessages
 0001:000259DC       TDPlay.SendChat
 0001:00025B20       TDPlay.SendChatLocal
 0001:00025C50       TDPlay.SendChatLocal2
 0001:00025D14       TDPlay.SendLocal
 0001:00025D44       TDPlay.SendLocal
 0001:00025EB4       TDPlay.SendAlliedChat
 0001:00025F84       TDPlay.SendRecorderToRecorderMsg2
 0001:00026248       TDPlay.SendRecorderToRecorderMsg
 0001:000263D0       TDPlay.SendClipboard
 0001:00026498       TDPlay.checkForCheats
 0001:000264D0       TDPlay.GetRandomMap
 0001:00026A30       TDPlay.initbuilding
 0001:00026AC4       TDPlay.initfastbase
 0001:000274D4       TDPlay.dobase
 0001:00027BD0       TDPlay.getRecorderStatusString
 0001:00027CE0       TDPlay.ChatMsgHandler
 0001:0002855C       TDPlay.UnitCountChange
 0001:00028624       TDPlay.PacketLostHandler
 0001:0002892C       TDPlay.createlogfile
 0001:00029718       TDPlay.SmartPak
 0001:00029984       TDPlay.Handleunitdata
 0001:00029D1C       TDPlay.facexpshandler
 0001:00029F58       compare
 0001:00029FA0       TDPlay.SetAutoPauseAtStart
 0001:00029FC0       TDPlay.SetCommanderWarp
 0001:00029FFC       TDPlay.SetF1Disable
 0001:0002A038       TDPlay.SetSpeedLock
 0001:0002A058       TDPlay.SetFastSpeed
 0001:0002A07C       TDPlay.SetSlowSpeed
 0001:0002A0A0       TDPlay.PacketHandler
 0001:0002E31C       TDPlay.AddPlayerToGroup
 0001:0002E398       TDPlay.CreatePlayer
 0001:0002E41C       TDPlay.CreateGroup
 0001:0002E49C       TDPlay.DeletePlayerFromGroup
 0001:0002E518       TDPlay.DestroyGroup
 0001:0002E590       TDPlay.EnableNewPlayers
 0001:0002E608       TDPlay.EnumGroupPlayers
 0001:0002E68C       TDPlay.EnumGroups
 0001:0002E710       TDPlay.EnumPlayers
 0001:0002E794       TDPlay.EnumSessions
 0001:0002E81C       TDPlay.GetCaps
 0001:0002E894       TDPlay.GetMessageCount
 0001:0002E910       TDPlay.GetPlayerCaps
 0001:0002E98C       TDPlay.GetPlayerName
 0001:0002EA14       TDPlay.Initialize
 0001:0002EA8C       TDPlay.Open
 0001:0002EB04       TDPlay.Receive
 0001:0002EB8C       TDPlay.SaveSession
 0001:0002EC00       TDPlay.SetPlayerName
 0001:0002EC80       TDPlay.CreateGroup
 0001:0002ED08       TDPlay.EnumGroupPlayers
 0001:0002ED90       TDPlay.EnumGroups
 0001:0002EE14       TDPlay.GetCaps
 0001:0002EE90       TDPlay.GetGroupData
 0001:0002EF14       TDPlay.GetGroupName
 0001:0002EF94       TDPlay.GetPlayerCaps
 0001:0002F014       TDPlay.GetPlayerData
 0001:0002F098       TDPlay.SetGroupData
 0001:0002F11C       TDPlay.SetGroupName
 0001:0002F19C       TDPlay.SetPlayerData
 0001:0002F220       TDPlay.SetPlayerName
 0001:0002F2A0       TDPlay.AddGroupToGroup
 0001:0002F31C       TDPlay.CreateGroupInGroup
 0001:0002F3A8       TDPlay.DeleteGroupFromGroup
 0001:0002F424       TDPlay.EnumGroupsInGroup
 0001:0002F4AC       TDPlay.GetGroupConnectionSettings
 0001:0002F530       TDPlay.SecureOpen
 0001:0002F5B4       TDPlay.SendChatMessage
 0001:0002F638       TDPlay.SetGroupConnectionSettings
 0001:0002F6B8       TDPlay.StartSession
 0001:0002F734       TDPlay.GetGroupFlags
 0001:0002F7B0       TDPlay.GetGroupParent
 0001:0002F82C       TDPlay.GetPlayerAccount
 0001:0002F8B0       TDPlay.GetPlayerFlags
 0001:0002F92C       TDPlay.CreatePlayer
 0001:0002FBE0       TDPlay.DestroyPlayer
 0001:0002FD04       TDPlay.EnumPlayers
 0001:0002FDC4       TDPlay.EnumSessions
 0001:0002FE48       TDPlay.GetPlayerAddress
 0001:0002FF0C       TDPlay.GetSessionDesc
 0001:0002FF84       TDPlay.SetSessionDesc
 0001:0002FFFC       TDPlay.EnumConnections
 0001:00030080       TDPlay.InitializeConnection
 0001:000300FC       TDPlay.GetPlayerName
 0001:000306FC       TDPlay.Send
 0001:00030B58       TDPlay.Receive
 0001:00031674       TDPlay.GetFixFacExps
 0001:000316A8       TDPlay.GetProtectDT
 0001:000316DC       TDPlay.OnShareLos
 0001:000317E8       TDPlay.OnFixDisabled
 0001:000318A4       TDPlay.OnFixEnabled
 0001:00031960       TDPlay.OnEhaoff
 0001:00031A2C       TDPlay.OnEhaOn
 0001:00031AF4       TDPlay.OnTaHookOff
 0001:00031BC0       TDPlay.Onehareport
 0001:00031D38       TDPlay.OnPlayers
 0001:00031F7C       TDPlay.OnReport
 0001:000320AC       TDPlay.OnReportMod
 0001:00032270       TDPlay.OnDate
 0001:0003237C       TDPlay.OnVoteReady
 0001:00032550       TDPlay.OnVoteGo
 0001:000326D0       TDPlay.OnForceGo
 0001:0003273C       TDPlay.OnGive
 0001:00032870       TDPlay.OnStopGive
 0001:00032950       TDPlay.OnUnits
 0001:00032CF8       TDPlay.OnTake
 0001:000330D4       TDPlay.OnHookReport
 0001:000331BC       TDPlay.OnBaseOff
 0001:00033234       TDPlay.OnAutoPause
 0001:00033370       TDPlay.Onf1off
 0001:00033420       TDPlay.OnCmdwarp
 0001:000334D0       TDPlay.OnSyncon
 0001:0003388C       TDPlay.OnSyncOff
 0001:000338E8       TDPlay.OnBase
 0001:0003399C       TDPlay.OnDoBase
 0001:00033AFC       OutputInfo
 0001:00033C24       TDPlay.OnHelp
 0001:00033EEC       TDPlay.OnStatus
 0001:00033FC4       TDPlay.OnYankspank
 0001:0003401C       TDPlay.OnCrash
 0001:00034118       TDPlay.OnPanic
 0001:000341D0       TDPlay.OnAbout
 0001:0003431C       TDPlay.OnFixall
 0001:00034384       TDPlay.OnFixFactoryExplosions
 0001:0003446C       TDPlay.OnProtectDT
 0001:00034544       TDPlay.OnSharemapPos
 0001:0003467C       TDPlay.OnTime
 0001:00034828       TDPlay.OnRecord
 0001:00034B4C       TDPlay.On3dta
 0001:00034D04       TDPlay.OnStopLog
 0001:00034D50       TDPlay.OnOnlyUnits
 0001:00034DF4       TDPlay.OnCreatetxt
 0001:00034E98       TDPlay.OnLockOn
 0001:00034FA8       TDPlay.OnRandMap
 0001:00035074       TDPlay.OnFakeWatch
 0001:00035100       TDPlay.OnForceCd
 0001:00035214       TDPlay.OnException
 0001:00035234       TDPlay.ExceptMessage
 0001:000354C0       TDPlay.GetGoodSource
 0001:00035538       TDPlay.OnRemovePlayer
 0001:0003555C       FindHostPlayer
 0001:000355D8       TDPlay.GetServerPlayer
 0001:00035614       TDPlay.ImServer
 0001:00035648       TDPlay.Open
 0001:000357FC       TDPlay.Close
 0001:000358AC       TDPlay.ResetRecorder
 0001:00036180       TDPlay.Exiting
 0001:00036654       TDPlay.Create
 0001:000394C4       TDPlay.Destroy
 0001:00039578       Finalization
 0001:000395B4       idplay
 0001:00039690       StatusToStr
 0001:00039720       TPlayerData.Create
 0001:000397F0       TPlayerData.OnPlayerRemoved
 0001:00039868       TPlayerData.IsSelf
 0001:000398F8       TPlayerData.IsServer
 0001:00039990       TPlayers.Create
 0001:00039B20       TPlayers.Destroy
 0001:00039B7C       TPlayers.Clear
 0001:00039C6C       TPlayers.Add
 0001:00039CC0       TPlayers.Remove
 0001:0003A1D0       TPlayers.Remove
 0001:0003A20C       TPlayers.getCount
 0001:0003A228       TPlayers.Name
 0001:0003A2CC       TPlayers.Name
 0001:0003A428       TPlayers.GetData_
 0001:0003A624       TPlayers.Convert
 0001:0003A7A0       TPlayers.ConvertId
 0001:0003A910       Finalization
 0001:0003A940       PlayerDataU
 0001:0003AA20       TCommandHandler.Create
 0001:0003AAC4       TCommands.Create
 0001:0003AB30       TCommands.destroy
 0001:0003AB74       TCommands.GetCount
 0001:0003ABA4       TCommands.GetItem
 0001:0003ABD8       TCommands.ClearCommands
 0001:0003AC38       TCommands.LookUpCommand
 0001:0003AC80       TCommands.AddCommandAlias
 0001:0003ADE4       TCommands.AddCommand
 0001:0003AF18       Finalization
 0001:0003AF48       CommandHandlerU
 0001:0003B194       TLobby.Connect
 0001:0003B344       TLobby.CreateAddress
 0001:0003B3F8       TLobby.EnumAddress
 0001:0003B4A4       TLobby.EnumAddressTypes
 0001:0003B554       TLobby.EnumLocalApplications
 0001:0003B604       TLobby.GetConnectionSettings
 0001:0003B6B4       TLobby.ReceiveLobbyMessage
 0001:0003B87C       TLobby.RunApplication
 0001:0003BFE8       TLobby.SendLobbyMessage
 0001:0003C160       TLobby.SetConnectionSettings
 0001:0003C210       TLobby.SetLobbyMessageEvent
 0001:0003C2C0       TLobby.CreateCompoundAddress
 0001:0003C378       TLobby.Create
 0001:0003C494       Finalization
 0001:0003C4C4       DPLobbyWrapper
 0001:0003C4CC       DPlayxHandleInvalid
 0001:0003C4F4       OnInit
 0001:0003C564       DirectPlayEnumerate
 0001:0003C65C       DirectPlayEnumerateA
 0001:0003C75C       DirectPlayEnumerateW
 0001:0003C85C       DirectPlayCreate
 0001:0003CAC4       DirectPlayLobbyCreateW
 0001:0003CC04       DirectPlayLobbyCreateA
 0001:0003CE58       DllCanUnloadNow
 0001:0003CEF8       DllGetClassObject
 0001:0003CF9C       StubCall
 0001:0003CFE0       Finalization
 0001:0003D010       Dplayx_exports
 0001:0003D044       OnInstall
 0001:0003D048       OnUninstall
 0001:0003D04C       GetPlugin
 0001:0003D0EC       PauseHandling
 0001:0003D114       Finalization
 0001:0003D144       PauseLock
 0001:0003D14C       OnInstall
 0001:0003D150       OnUninstall
 0001:0003D168       BetterAIName
 0001:0003D1F0       BetterAINameStub
 0001:0003D20C       GetPlugin
 0001:0003D2E0       Finalization
 0001:0003D31C       MultiAILimit
 0001:0003D324       Do_LoadTime_CodeInjections
 0001:0003D398       UninstallCodeInjections
 0001:0003D3A4       Finalization
 0001:0003D3D4       Plugins
 0001:0003D3DC       DisableThreadLibraryCalls
 0001:0003D470       OnInitialize
 0001:0003D8A4       OnFinalize
 0001:0003D8DC       Finalization
 0001:0003D90C       InitCode
 0001:0003D934       LibraryProc
 0001:0003D95C       InitThunk_Stage2
 0001:0003D9DC       InitThunk_Stage1
 0001:0003D9E8       Finalization
 0001:0003DA18       InitCode_CoreExePatching
 0001:0003DA68       Finalization
 0001:0003DA98       threadlogging
 0001:0003DAA0       Finalization
 0001:0003DD00       dplayx
 0002:00000000       ExitCode
 0002:00000004       ErrorAddr
 0002:00000008       RandSeed
 0002:0000000C       FileMode
 0002:00000010       VarClearProc
 0002:00000014       VarAddRefProc
 0002:00000018       VarCopyProc
 0002:0000001C       VarToLStrProc
 0002:00000020       VarToWStrProc
 0002:00000024       Default8087CW
 0002:00000028       HeapAllocFlags
 0002:0000002C       DebugHook
 0002:00000030       JITEnable
 0002:00000034       NoErrMsg
 0002:00000038       DefaultTextLineBreakStyle
 0002:0000003C       LibModuleList
 0002:00000040       ModuleUnloadList
 0002:00000044       MemoryManager
 0002:00000050       reMap
 0002:0000006C       errCaption
 0002:00000074       runErrMsg
 0002:00000094       dig
 0002:000000A4       TlsIndex
 0002:000000A8       PtrToNil
 0002:000000AC       Module
 0002:000000C4       TlsProc
 0002:000000D4       EmptyStr
 0002:000000D8       EmptyWideStr
 0002:000000DC       Win32Platform
 0002:000000E0       Win32MajorVersion
 0002:000000E4       Win32MinorVersion
 0002:000000E8       Win32BuildNumber
 0002:000000EC       Win32CSDVersion
 0002:000000F0       TwoDigitYearCenturyWindow
 0002:000000F4       MonthDays
 0002:00000124       LeadBytes
 0002:00000144       HexDisplayPrefix
 0002:00000148       GetDiskFreeSpaceEx
 0002:0000014C       cSimpleBoolStrs
 0002:00000154       AccessMode
 0002:00000160       ShareMode
 0002:00000174       FormatErrorStrs
 0002:0000017C       FCon1E18
 0002:00000188       DCon10
 0002:0000018C       CWNear
 0002:00000190       FMSecsPerDay
 0002:00000194       IMSecsPerDay
 0002:00000198       Format
 0002:0000019C       DefShortMonthNames
 0002:000001CC       DefLongMonthNames
 0002:000001FC       DefShortDayNames
 0002:00000218       DefLongDayNames
 0002:00000234       ErrorMap
 0002:0000026C       ExceptMap
 0002:0000031C       WesternGroups
 0002:00000320       TerminateProcList
 0002:00000324       CResult
 0002:0000032C       NullStrictConvert
 0002:00000330       NullAsStringValue
 0002:00000334       BooleanToStringRule
 0002:00000338       CInvalidCustomVariantType
 0002:0000033C       CText
 0002:00000390       CRelationshipToBoolean
 0002:000003A4       BooleanIdents
 0002:000003AC       DotSep
 0002:000003B0       Convert
 0002:000003C0       Convert
 0002:00000430       SyncList
 0002:00000434       FILE_SHARING_ERRORS
 0002:00000454       CRC32tab
 0002:00000854       MapFileName
 0002:00000858       Deities
 0002:0000088C       AccessMode
 0002:00000894       ShareFlags
 0002:0000089C       FileFlags
 0002:000008A0       fVersionLazyInited
 0002:000008A4       logdir
 0002:000008A8       IID_IDirectPlay3
 0002:000008B8       IID_IDirectPlay
 0002:000008C8       IID_IDirectPlayLobby2
 0002:000008D8       Cheat_Invulnerability
 0002:000008DC       Cheat_Invisible
 0002:000008E0       Cheat_FastBuild
 0002:000008E4       Cheat_InfiniteResources
 0002:000008E8       Cheat_LosRadar
 0002:000008EC       Cheat_ControlMenu
 0002:000008F0       Cheat_BuildAnywhere
 0002:000008F4       Cheat_InstantCapture
 0002:000008F8       Cheat_SpecialMove
 0002:000008FC       Cheat_JamAll
 0002:00000900       Cheat_ExtraDamage
 0002:00000904       Cheat_InstantBuild
 0002:00000908       Cheat_ResourcesFreeze
 0002:0000090C       Cheat_DoubleShot
 0002:00000910       Values
 0002:00000918       Values
 0002:00000920       BoolValues
 0002:00000924       ExpectedData
 0002:00000928       State_COB_extensions
 0002:0000092C       Game_SetLOSState
 0002:00000930       DoInterpretCommand
 0002:00000934       NewUnitLimit
 0002:00000938       State_UnitLimit
 0002:0000093C       DecompressionBufferSize
 0002:00000940       UseCompression
 0002:00000944       State_SpeedHack
 0002:00000948       Upperlimit
 0002:0000094C       LowerLimit
 0002:00000950       logsave
 0002:00000954       statslog
 0002:00000958       dplayxLibHandle
 0002:0000095C       State_PauseLock
 0002:00000960       StopPauseStateChange
 0002:00000964       State_MultiAILimit
 0002:00000968       AIName
 0002:00001000       DispCallByIDProc
 0002:00001004       ExceptProc
 0002:00001008       ErrorProc
 0002:0000100C       ExceptClsProc
 0002:00001010       ExceptObjProc
 0002:00001014       RaiseExceptionProc
 0002:00001018       RTLUnwindProc
 0002:0000101C       ExceptionClass
 0002:00001020       AssertErrorProc
 0002:00001024       ExitProcessProc
 0002:00001028       AbstractErrorProc
 0002:0000102C       MainInstance
 0002:00001030       MainThreadID
 0002:00001034       IsLibrary
 0002:00001038       CmdShow
 0002:0000103C       CmdLine
 0002:00001040       ExitProc
 0002:00001044       IsConsole
 0002:00001045       IsMultiThread
 0002:00001046       Test8086
 0002:00001048       Input
 0002:00001214       Output
 0002:000013E0       ErrOutput
 0002:000015AC       AllocMemCount
 0002:000015B0       AllocMemSize
 0002:000015B4       .5
 0002:000015B8       DefaultUserCodePage
 0002:000015BC       initialized
 0002:000015C0       heapErrorCode
 0002:000015C4       heapLock
 0002:000015DC       blockDescBlockList
 0002:000015E0       blockDescFreeList
 0002:000015E4       spaceRoot
 0002:000015F4       decommittedRoot
 0002:00001604       avail
 0002:00001610       rover
 0002:00001614       remBytes
 0002:00001618       curAlloc
 0002:0000161C       smallTab
 0002:00001620       committedRoot
 0002:00001630       InitContext
 0002:0000165C       ModuleIsLib
 0002:0000165D       ModuleIsCpp
 0002:00001660       HInstance
 0002:00001664       DllProc
 0002:00001668       .1
 0002:0000166C       tlsBuffer
 0002:00001670       .1
 0002:00001674       .3
 0002:00001678       .1
 0002:0000167C       .1
 0002:00001680       CurrencyString
 0002:00001684       CurrencyFormat
 0002:00001685       NegCurrFormat
 0002:00001686       ThousandSeparator
 0002:00001687       DecimalSeparator
 0002:00001688       CurrencyDecimals
 0002:00001689       DateSeparator
 0002:0000168C       ShortDateFormat
 0002:00001690       LongDateFormat
 0002:00001694       TimeSeparator
 0002:00001698       TimeAMString
 0002:0000169C       TimePMString
 0002:000016A0       ShortTimeFormat
 0002:000016A4       LongTimeFormat
 0002:000016A8       ShortMonthNames
 0002:000016D8       LongMonthNames
 0002:00001708       ShortDayNames
 0002:00001724       LongDayNames
 0002:00001740       SysLocale
 0002:0000174E       ListSeparator
 0002:00001750       EraNames
 0002:0000176C       EraYearOffsets
 0002:00001788       TrueBoolStrs
 0002:0000178C       FalseBoolStrs
 0002:00001790       .35
 0002:00001794       OutOfMemory
 0002:00001798       InvalidPointer
 0002:0000179C       FLanguages
 0002:000017A0       VariantChangeTypeEx
 0002:000017A4       VarNeg
 0002:000017A8       VarNot
 0002:000017AC       VarAdd
 0002:000017B0       VarSub
 0002:000017B4       VarMul
 0002:000017B8       VarDiv
 0002:000017BC       VarIDiv
 0002:000017C0       VarMod
 0002:000017C4       VarAnd
 0002:000017C8       VarOr
 0002:000017CC       VarXor
 0002:000017D0       VarCmp
 0002:000017D4       VarI4FromStr
 0002:000017D8       VarR4FromStr
 0002:000017DC       VarR8FromStr
 0002:000017E0       VarDateFromStr
 0002:000017E4       VarCyFromStr
 0002:000017E8       VarBoolFromStr
 0002:000017EC       VarBstrFromCy
 0002:000017F0       VarBstrFromDate
 0002:000017F4       VarBstrFromBool
 0002:000017F8       .5
 0002:000017FC       EmptyParam
 0002:0000180C       VarDispProc
 0002:00001810       ClearAnyProc
 0002:00001814       ChangeAnyProc
 0002:00001818       RefAnyProc
 0002:0000181C       .81
 0002:00001820       LVarTypes
 0002:00001824       LVarTypeSync
 0002:0000183C       .1
 0002:00001840       .6
 0002:00001844       .3
 0002:00001848       GlobalNameSpace
 0002:0000184C       SyncEvent
 0002:00001850       .45
 0002:00001854       IntConstList
 0002:00001858       RegGroups
 0002:0000185C       FindGlobalComponentProcs
 0002:00001860       GlobalFixupList
 0002:00001864       ThreadLock
 0002:0000187C       .9
 0002:00001880       .7
 0002:00001884       .6
 0002:00001888       .5
 0002:0000188C       .1
 0002:00001890       .1
 0002:00001894       .2
 0002:00001898       .21
 0002:0000189C       Units
 0002:000018A0       Procedures
 0002:000018A4       LineNumbers
 0002:000018A8       MapFileSetup
 0002:000018AC       .1
 0002:000018B0       ObjectsToFree
 0002:000018B4       .1
 0002:000018B8       .1
 0002:000018BC       kernellib
 0002:000018C0       .2
 0002:000018C4       fIsWin9x
 0002:000018C8       proc
 0002:000018CC       SelfLocation_cache
 0002:000018D0       TADemoVersion_cache
 0002:000018D4       .2
 0002:000018D8       logFilename
 0002:000018DC       Log_
 0002:000018E0       .2
 0002:000018E4       .1
 0002:000018E8       .1
 0002:000018EC       .1
 0002:000018F0       .3
 0002:000018F4       .2
 0002:000018F8       .2
 0002:000018FC       .8
 0002:00001900       .5
 0002:00001904       .6
 0002:00001908       Plugins
 0002:0000190C       .1
 0002:00001910       TAData
 0002:00001914       .4
 0002:00001918       CacheUsed
 0002:00001919       IsTAVersion31_Cache
 0002:0000191C       .1
 0002:00001920       .1
 0002:00001924       KernelHandle
 0002:00001928       _CreateToolhelp32Snapshot
 0002:0000192C       _Heap32ListFirst
 0002:00001930       _Heap32ListNext
 0002:00001934       _Heap32First
 0002:00001938       _Heap32Next
 0002:0000193C       _Toolhelp32ReadProcessMemory
 0002:00001940       _Process32First
 0002:00001944       _Process32Next
 0002:00001948       _Process32FirstW
 0002:0000194C       _Process32NextW
 0002:00001950       _Thread32First
 0002:00001954       _Thread32Next
 0002:00001958       _Module32First
 0002:0000195C       _Module32Next
 0002:00001960       _Module32FirstW
 0002:00001964       _Module32NextW
 0002:00001968       .1
 0002:0000196C       .1
 0002:00001970       .1
 0002:00001974       .1
 0002:00001978       .1
 0002:0000197C       iniSettings
 0002:0000199C       .1
 0002:000019A0       iniFileName_cache
 0002:000019A4       .2
 0002:000019A8       .3
 0002:000019AC       PluginCommands
 0002:000019B0       .1
 0002:000019B4       TestPlayerIndex
 0002:000019B8       TestPlayerPtr
 0002:000019BC       PlayerPtr
 0002:000019C0       ViewPlayerRadar
 0002:000019C4       .1
 0002:000019C8       .1
 0002:000019CC       UnitPtr
 0002:000019D0       PlayerPtr
 0002:000019D4       TestPlayer
 0002:000019D8       ViewPlayerPlSeeU
 0002:000019DC       .1
 0002:000019E0       .1
 0002:000019E4       LOS_Updates_PTR
 0002:000019E8       PlayerPtr
 0002:000019EC       TestPlayer
 0002:000019F0       .1
 0002:000019F4       AlliedStateChanged
 0002:000019F8       .1
 0002:000019FC       ViewPlayer
 0002:00001A00       .1
 0002:00001A04       .1
 0002:00001A08       .1
 0002:00001A0C       StartedFrom
 0002:00001A10       chatview
 0002:00001A14       .6
 0002:00001A18       .4
 0002:00001A1C       .3
 0002:00001A20       .2
 0002:00001A24       DoInitialize
 0002:00001A28       DoFinalize
 0002:00001A2C       gdwDPlaySPRefCount
 0002:00001A30       .1
 0002:00001A34       DirectPlayEnumerate_proc
 0002:00001A38       DirectPlayEnumerateA_proc
 0002:00001A3C       DirectPlayEnumerateW_proc
 0002:00001A40       DirectPlayCreate_proc
 0002:00001A44       DirectPlayLobbyCreateW_proc
 0002:00001A48       DirectPlayLobbyCreateA_proc
 0002:00001A4C       .1
 0002:00001A50       .1
 0002:00001A54       .1
 0002:00001A58       .2
 0002:00001A5C       proc
 0002:00001A60       .1
 0002:00001A64       CodeInjectionData
 0002:00001A74       .1


Line numbers for System(system.pas) segment .text

   287 0001:000000C4  2144 0001:00000174  2148 0001:0000017C  2152 0001:00000184
  2155 0001:0000018C  2157 0001:00000194  2160 0001:0000019C  2163 0001:000001A4
  2164 0001:000001AC  2166 0001:000001B4  2169 0001:000001BC  2171 0001:000001C4
  2174 0001:000001CC  2177 0001:000001D4  2188 0001:000001DC  2191 0001:000001E4
  2197 0001:000001EC  2200 0001:000001F4  2203 0001:000001FC  2206 0001:00000204
  2212 0001:0000020C  2218 0001:00000214  2222 0001:0000021C  2225 0001:00000224
  2228 0001:0000022C  2231 0001:00000234  2234 0001:0000023C  2237 0001:00000244
  2241 0001:0000024C  2251 0001:00000254  2254 0001:0000025C  2258 0001:00000264
  2261 0001:0000026C  2265 0001:00000274  2269 0001:0000027C  2280 0001:00000284
  2284 0001:0000028C  2290 0001:00000294  2294 0001:0000029C  2297 0001:000002A4
  2303 0001:000002AC  2306 0001:000002B4  2309 0001:000002BC  2312 0001:000002C4
  2315 0001:000002CC  2318 0001:000002D4  2324 0001:000002DC  2325 0001:000002E0
  2326 0001:000002E5  2327 0001:000002EB  2328 0001:000002F2  2329 0001:000002F9

Line numbers for System(GETMEM.INC) segment .text

    47 0001:00000300    49 0001:00000308    53 0001:00000310    55 0001:00000318
    58 0001:00000320    60 0001:00000328    62 0001:00000330    64 0001:00000338
   129 0001:00000340   130 0001:00000349   131 0001:0000034E   132 0001:0000035E
   133 0001:00000365   134 0001:0000036A   136 0001:0000036C   137 0001:00000378
   138 0001:00000381   139 0001:00000383   140 0001:00000393   141 0001:0000039B
   142 0001:000003A1   138 0001:000003A2   144 0001:000003A7   145 0001:000003AD
   146 0001:000003B5   147 0001:000003BF   152 0001:000003C4   153 0001:000003C6
   154 0001:000003C9   160 0001:000003CC   161 0001:000003D5   162 0001:000003DE
   163 0001:000003E5   165 0001:000003E9   166 0001:000003F2   168 0001:000003FC
   169 0001:00000401   170 0001:0000040A   171 0001:00000411   172 0001:0000041B
   174 0001:00000421   176 0001:00000423   182 0001:00000428   183 0001:0000042B
   184 0001:00000431   185 0001:00000437   186 0001:00000440   187 0001:0000044A
   188 0001:00000452   189 0001:00000457   195 0001:0000045C   196 0001:00000469
   197 0001:0000046D   199 0001:00000477   200 0001:0000047F   201 0001:00000491
   202 0001:00000498   203 0001:0000049F   204 0001:000004A9   205 0001:000004B0
   206 0001:000004B7   208 0001:000004BF   209 0001:000004C5   210 0001:000004C9
   211 0001:000004D6   212 0001:000004DA   219 0001:000004E4   220 0001:000004F0
   222 0001:000004F6   223 0001:00000515   224 0001:00000519   225 0001:00000521
   226 0001:00000529   227 0001:00000531   228 0001:0000053A   229 0001:0000054A
   231 0001:00000554   232 0001:0000055D   233 0001:0000056D   234 0001:00000574
   235 0001:00000583   236 0001:00000585   239 0001:00000587   240 0001:00000589
   242 0001:0000058B   243 0001:00000591   244 0001:0000059D   245 0001:0000059F
   266 0001:000005A8   267 0001:000005AF   268 0001:000005B7   270 0001:000005BE
   272 0001:000005CA   273 0001:000005CD   274 0001:000005E0   277 0001:000005E4
   278 0001:000005F4   279 0001:00000603   282 0001:00000607   289 0001:0000060C
   290 0001:00000616   291 0001:0000061D   292 0001:00000633   293 0001:00000637
   294 0001:00000643   295 0001:00000646   297 0001:00000656   298 0001:0000065B
   299 0001:0000066B   300 0001:0000067A   303 0001:0000067E   312 0001:00000684
   313 0001:0000068F   314 0001:00000697   315 0001:0000069D   316 0001:000006A1
   317 0001:000006A9   319 0001:000006B2   320 0001:000006BA   321 0001:000006D2
   322 0001:000006D8   323 0001:000006DC   324 0001:000006EC   325 0001:000006F0
   326 0001:00000706   327 0001:00000710   329 0001:00000717   318 0001:0000071D
   331 0001:00000726   332 0001:0000072A   333 0001:00000731   334 0001:00000737
   336 0001:00000742   346 0001:0000074C   347 0001:00000764   348 0001:00000772
   349 0001:00000785   350 0001:0000078B   351 0001:00000796   354 0001:0000079F
   355 0001:000007A6   356 0001:000007B0   357 0001:000007B8   358 0001:000007BE
   359 0001:000007C7   360 0001:000007CE   361 0001:000007D5   362 0001:000007EE
   363 0001:000007F2   366 0001:000007F4   352 0001:000007FA   368 0001:00000803
   377 0001:0000080C   378 0001:00000822   379 0001:00000836   380 0001:00000843
   381 0001:00000849   382 0001:00000854   385 0001:0000085D   386 0001:00000864
   387 0001:0000086D   388 0001:00000875   389 0001:0000087B   390 0001:00000883
   391 0001:00000889   392 0001:0000088F   393 0001:000008A5   395 0001:000008AF
   383 0001:000008B5   397 0001:000008BE   416 0001:000008C8   417 0001:000008DA
   419 0001:000008E6   421 0001:000008ED   422 0001:000008F4   423 0001:00000902
   425 0001:00000907   426 0001:0000090F   427 0001:00000917   428 0001:0000091F
   429 0001:00000926   431 0001:00000928   420 0001:0000092E   433 0001:00000932
   434 0001:0000093B   436 0001:00000940   437 0001:00000954   438 0001:00000962
   442 0001:00000966   452 0001:00000970   453 0001:00000987   456 0001:00000993
   458 0001:0000099A   457 0001:000009A0   460 0001:000009AB   461 0001:000009B2
   463 0001:000009BD   464 0001:000009D7   465 0001:000009DE   468 0001:000009F4
   469 0001:00000A05   470 0001:00000A0C   475 0001:00000A11   476 0001:00000A1E
   479 0001:00000A25   480 0001:00000A3F   481 0001:00000A50   482 0001:00000A57
   486 0001:00000A59   487 0001:00000A69   488 0001:00000A75   490 0001:00000A7D
   491 0001:00000A88   492 0001:00000A93   493 0001:00000A9B   495 0001:00000AA4
   496 0001:00000AAB   505 0001:00000AB4   506 0001:00000ABA   507 0001:00000AC9
   508 0001:00000AD5   509 0001:00000ADE   510 0001:00000AEF   511 0001:00000AFF
   512 0001:00000B07   513 0001:00000B26   514 0001:00000B2D   516 0001:00000B3D
   517 0001:00000B41   562 0001:00000B48   563 0001:00000B4C   564 0001:00000B5A
   565 0001:00000B64   567 0001:00000B77   568 0001:00000B81   569 0001:00000B8B
   571 0001:00000B95   572 0001:00000BA6   573 0001:00000BAF   574 0001:00000BB4
   573 0001:00000BC1   576 0001:00000BC8   577 0001:00000BCF   578 0001:00000BD8
   579 0001:00000BE0   581 0001:00000BE8   584 0001:00000BFC   586 0001:00000C17
   587 0001:00000C1C   595 0001:00000C20   596 0001:00000C26   597 0001:00000C33
   598 0001:00000C41   600 0001:00000C54   602 0001:00000C5B   603 0001:00000C66
   605 0001:00000C6D   607 0001:00000C77   608 0001:00000C8A   606 0001:00000C92
   611 0001:00000C9C   612 0001:00000CA6   613 0001:00000CB0   615 0001:00000CBA
   616 0001:00000CC2   617 0001:00000CC8   618 0001:00000CD2   619 0001:00000CDB
   616 0001:00000CE3   622 0001:00000CF6   623 0001:00000D09   626 0001:00000D1B
   633 0001:00000D20   634 0001:00000D24   635 0001:00000D2C   636 0001:00000D35
   637 0001:00000D3B   638 0001:00000D3E   639 0001:00000D46   640 0001:00000D4B
   642 0001:00000D62   643 0001:00000D79   644 0001:00000D7F   645 0001:00000D88
   648 0001:00000D94   649 0001:00000D9A   650 0001:00000DA3   652 0001:00000DAD
   659 0001:00000DB4   660 0001:00000DB8   662 0001:00000DC2   664 0001:00000DD4
   661 0001:00000DDA   666 0001:00000DE3   667 0001:00000DED   668 0001:00000DF3
   675 0001:00000DF8   676 0001:00000DFA   677 0001:00000DFF   678 0001:00000E05
   679 0001:00000E0A   680 0001:00000E13   681 0001:00000E1D   682 0001:00000E22
   683 0001:00000E2C   685 0001:00000E31   690 0001:00000E34   691 0001:00000E3A
   692 0001:00000E50   693 0001:00000E55   698 0001:00000E58   699 0001:00000E5D
   700 0001:00000E62   702 0001:00000E6B   703 0001:00000E70   704 0001:00000E7A
   705 0001:00000E7C   707 0001:00000E7F   715 0001:00000E80   716 0001:00000E83
   717 0001:00000E8A   718 0001:00000E9A   719 0001:00000EA4   720 0001:00000EAC
   721 0001:00000EAE   722 0001:00000EBA   723 0001:00000EC4   724 0001:00000EC9
   725 0001:00000ED1   726 0001:00000ED6   727 0001:00000EDE   728 0001:00000EE8
   729 0001:00000EF0   731 0001:00000EF4   738 0001:00000EF8   739 0001:00000EFD
   740 0001:00000EFF   741 0001:00000F01   742 0001:00000F08   743 0001:00000F0D
   744 0001:00000F0F   745 0001:00000F11   747 0001:00000F13   748 0001:00000F17
   749 0001:00000F1A   750 0001:00000F22   751 0001:00000F2A   752 0001:00000F2C
   754 0001:00000F31   761 0001:00000F38   762 0001:00000F43   763 0001:00000F45
   764 0001:00000F50   765 0001:00000F5B   766 0001:00000F77   768 0001:00000F7B
   769 0001:00000F84   771 0001:00000F9A   773 0001:00000FA9   775 0001:00000FB0
   776 0001:00000FBB   777 0001:00000FD3   778 0001:00000FDD   779 0001:00000FE8
   781 0001:00000FEC   787 0001:00000FF4   788 0001:00000FFD   789 0001:00001000
   790 0001:00001006   791 0001:00001011   792 0001:00001019   793 0001:00001033
   794 0001:0000103A   795 0001:00001047   796 0001:00001050   798 0001:0000105D
   799 0001:00001067   800 0001:00001071   801 0001:0000107A   802 0001:00001083
   804 0001:0000108F   805 0001:000010A4   806 0001:000010AD   807 0001:000010B5
   808 0001:000010BF   809 0001:000010C9   810 0001:000010D2   811 0001:000010DB
   813 0001:000010E5   818 0001:000010EC   819 0001:000010F5   820 0001:000010FE
   822 0001:0000110A   823 0001:0000111A   824 0001:00001127   825 0001:0000112E
   828 0001:00001135   835 0001:00001138   836 0001:00001147   837 0001:0000114C
   838 0001:0000115C   839 0001:00001164   840 0001:00001166   843 0001:00001168
   844 0001:0000116E   845 0001:00001173   846 0001:00001175   849 0001:00001178
   850 0001:00001187   851 0001:0000118C   854 0001:0000118F   855 0001:00001198
   856 0001:000011A5   859 0001:000011A9   860 0001:000011B0   862 0001:000011B8
   863 0001:000011BA   869 0001:000011C4   870 0001:000011CA   871 0001:000011D4
   872 0001:000011EB   878 0001:000011F0   879 0001:000011F9   880 0001:00001205
   881 0001:0000121C   887 0001:00001224   888 0001:00001227   889 0001:0000122B
   890 0001:0000123C   891 0001:00001248   893 0001:0000124D   889 0001:0000124E
   894 0001:00001257   900 0001:0000125C   904 0001:00001273   905 0001:0000127A
   908 0001:00001285   909 0001:00001289   913 0001:00001296   915 0001:0000129B
   916 0001:000012A2   917 0001:000012A9   918 0001:000012AE   919 0001:000012B4
   920 0001:000012B8   923 0001:000012BA   924 0001:000012C2   925 0001:000012CB
   929 0001:000012D0   930 0001:000012DB   931 0001:000012E0   934 0001:000012E5
   935 0001:000012EA   936 0001:000012ED   937 0001:000012F3   938 0001:000012F6
   940 0001:000012FB   941 0001:00001304   942 0001:0000130A   943 0001:00001315
   944 0001:0000131F   945 0001:00001325   946 0001:0000132E   951 0001:00001330
   953 0001:00001337   954 0001:00001340   955 0001:00001345   957 0001:00001351
   958 0001:00001353   959 0001:00001359   960 0001:00001360   961 0001:00001368
   964 0001:0000136F   965 0001:00001375   967 0001:00001380   968 0001:0000138A
   969 0001:00001390   971 0001:0000139C   979 0001:000013A4   981 0001:000013AD
   984 0001:000013C7   985 0001:000013CC   989 0001:000013D1   990 0001:000013DF
   992 0001:000013F2   993 0001:000013F5   994 0001:000013F8   995 0001:000013FD
   997 0001:00001402   998 0001:0000140E   999 0001:00001427  1000 0001:00001431
  1001 0001:00001439  1002 0001:0000143F  1003 0001:00001448  1004 0001:00001450
  1006 0001:0000145E  1007 0001:0000146B  1008 0001:00001473  1009 0001:0000147C
  1011 0001:00001484  1012 0001:0000148A  1013 0001:00001498  1014 0001:000014A1
  1015 0001:000014A7  1016 0001:000014B0  1020 0001:000014BA  1021 0001:000014C2
  1022 0001:000014C8  1023 0001:000014D1  1024 0001:000014D7  1026 0001:000014DE
  1027 0001:000014E6  1028 0001:000014EC  1029 0001:000014F6  1030 0001:000014FF
  1031 0001:00001505  1032 0001:0000150E  1035 0001:00001515  1038 0001:0000152C
  1041 0001:0000154A  1052 0001:00001550  1053 0001:00001559  1055 0001:00001560
  1056 0001:00001572  1057 0001:0000157C  1058 0001:00001583  1061 0001:00001588
  1062 0001:00001596  1064 0001:000015A9  1065 0001:000015AC  1066 0001:000015B5
  1070 0001:000015BA  1071 0001:000015BF  1072 0001:000015C9  1077 0001:000015CE
  1078 0001:000015D4  1080 0001:000015E4  1082 0001:000015E9  1083 0001:000015F2
  1084 0001:000015FE  1085 0001:00001608  1088 0001:0000160D  1089 0001:00001615
  1090 0001:0000161D  1091 0001:00001627  1094 0001:0000162C  1095 0001:0000162E
  1096 0001:00001634  1099 0001:0000163C  1102 0001:00001642  1105 0001:0000164A
  1107 0001:00001655  1108 0001:0000165B  1109 0001:00001661  1110 0001:0000166D
  1111 0001:00001672  1112 0001:00001677  1115 0001:00001681  1117 0001:0000168A
  1118 0001:00001694  1119 0001:0000169E  1121 0001:000016A0  1124 0001:000016A8
  1125 0001:000016AE  1126 0001:000016C8  1127 0001:000016D2  1129 0001:000016D4
  1130 0001:000016DA  1131 0001:000016DC  1135 0001:000016E4  1137 0001:000016EE
  1139 0001:00001703  1141 0001:00001721  1146 0001:00001728  1147 0001:00001731
  1148 0001:00001734  1149 0001:00001737  1150 0001:0000173C  1151 0001:00001741
  1152 0001:00001747  1153 0001:00001752  1154 0001:0000175B  1156 0001:0000175F
  1157 0001:00001761  1159 0001:00001766  1160 0001:0000176E  1161 0001:00001772
  1162 0001:0000177E  1163 0001:00001784  1164 0001:0000178A  1165 0001:00001797
  1166 0001:0000179D  1167 0001:000017A3  1170 0001:000017AA  1171 0001:000017AE
  1172 0001:000017B7  1173 0001:000017BF  1174 0001:000017C6  1176 0001:000017CF
  1177 0001:000017D4  1178 0001:000017DD  1179 0001:000017E6  1181 0001:000017F7
  1185 0001:000017FE  1186 0001:00001802  1187 0001:0000180E  1188 0001:00001816
  1189 0001:0000181C  1190 0001:00001822  1191 0001:0000182B  1192 0001:00001836
  1193 0001:0000183C  1195 0001:00001843  1196 0001:0000184D  1197 0001:0000185E
  1198 0001:00001860  1200 0001:00001865  1201 0001:0000186A  1205 0001:00001873
  1206 0001:0000187C  1207 0001:00001884  1208 0001:0000188B  1209 0001:0000188F
  1210 0001:00001895  1212 0001:00001899  1213 0001:000018A2  1214 0001:000018A4
  1215 0001:000018A9  1217 0001:000018B7  1218 0001:000018B9  1219 0001:000018C2
  1221 0001:000018C9  1225 0001:000018CB  1226 0001:000018D8  1227 0001:000018E5
  1228 0001:000018F4  1229 0001:000018FD  1233 0001:00001902  1234 0001:00001904
  1240 0001:00001906  1241 0001:00001910  1242 0001:00001921  1244 0001:00001923
  1251 0001:0000192C  1253 0001:00001938  1254 0001:0000194A  1255 0001:0000194F
  1258 0001:00001954  1259 0001:00001962  1261 0001:00001975  1262 0001:00001982
  1264 0001:00001987  1265 0001:00001991  1266 0001:000019A0  1267 0001:000019A4
  1268 0001:000019A6  1269 0001:000019AC  1270 0001:000019B7  1272 0001:000019BE
  1275 0001:000019D1  1278 0001:000019EF

Line numbers for System(system.pas) segment .text

  2429 0001:000019F8  2430 0001:000019FC  2439 0001:00001A00  2440 0001:00001A0B
  2441 0001:00001A11  2445 0001:00001A1A  2446 0001:00001A22  2456 0001:00001A28
  2457 0001:00001A29  2466 0001:00001A2D  2468 0001:00001A35  2469 0001:00001A39
  2472 0001:00001A42  2473 0001:00001A46  2518 0001:00001A48  2519 0001:00001A4A
  2520 0001:00001A4C  2521 0001:00001A4E  2522 0001:00001A50  2524 0001:00001A52
  2525 0001:00001A53  2526 0001:00001A55  2527 0001:00001A5B  2528 0001:00001A5C
  2529 0001:00001A5E  2530 0001:00001A60  2531 0001:00001A62  2533 0001:00001A63
  2534 0001:00001A65  2536 0001:00001A6A  2537 0001:00001A6C  2538 0001:00001A6E
  2539 0001:00001A74  2540 0001:00001A76  2541 0001:00001A78  2543 0001:00001A79
  2544 0001:00001A7B  2546 0001:00001A80  2547 0001:00001A82  2548 0001:00001A84
  2549 0001:00001A85  2550 0001:00001A87  2551 0001:00001A8D  2552 0001:00001A8E
  2553 0001:00001A90  2554 0001:00001A92  2556 0001:00001A94  2914 0001:00001A98
  2915 0001:00001A99  2916 0001:00001AA7  2918 0001:00001ABA  2919 0001:00001AC2
  2969 0001:00001AC4  2970 0001:00001ACA  2971 0001:00001ACF  3013 0001:00001AD0
  3014 0001:00001AD6  3015 0001:00001AD9  3016 0001:00001AE2  3017 0001:00001AEC
  3018 0001:00001AF0  3019 0001:00001AFD  3020 0001:00001B02  3021 0001:00001B0C
  3022 0001:00001B17  3026 0001:00001B1C  3027 0001:00001B1F  3028 0001:00001B22
  3029 0001:00001B27  3033 0001:00001B28  3034 0001:00001B29  3035 0001:00001B2A
  3036 0001:00001B2B  3037 0001:00001B30  3038 0001:00001B37  3039 0001:00001B38
  3040 0001:00001B39  3041 0001:00001B3A  3042 0001:00001B3C  3044 0001:00001B3D
  3045 0001:00001B3F  3046 0001:00001B44  3049 0001:00001B48  3050 0001:00001B4B
  3051 0001:00001B56  3081 0001:00001B58  3082 0001:00001B59  3084 0001:00001B5A
  3085 0001:00001B5C  3087 0001:00001B60  3088 0001:00001B62  3089 0001:00001B64
  3093 0001:00001B66  3094 0001:00001B68  3095 0001:00001B6A  3096 0001:00001B6C
  3101 0001:00001B6E  3102 0001:00001B70  3103 0001:00001B71  3104 0001:00001B73
  3105 0001:00001B75  3106 0001:00001B77  3109 0001:00001B79  3111 0001:00001B7B
  3112 0001:00001B7D  3113 0001:00001B7E  3114 0001:00001B80  3117 0001:00001B82
  3118 0001:00001B87  3123 0001:00001B89  3124 0001:00001B8B  3126 0001:00001B8D
  3127 0001:00001B8F  3129 0001:00001B91  3131 0001:00001B93  3132 0001:00001B94
  3133 0001:00001B95  3134 0001:00001B98  3301 0001:00001B9C  3302 0001:00001B9D
  3303 0001:00001BA8  3304 0001:00001BB7  3344 0001:00001BBC  3345 0001:00001BBD
  3347 0001:00001BBE  3348 0001:00001BC0  3350 0001:00001BC2  3352 0001:00001BC4
  3353 0001:00001BC6  3354 0001:00001BC8  3356 0001:00001BCA  3357 0001:00001BCD
  3359 0001:00001BCF  3361 0001:00001BD1  3362 0001:00001BD3  3363 0001:00001BD6
  3364 0001:00001BD8  3367 0001:00001BDB  3368 0001:00001BDF  3370 0001:00001BE3
  3371 0001:00001BE6  3372 0001:00001BE8  3373 0001:00001BE9  3375 0001:00001BEB
  3376 0001:00001BED  3377 0001:00001BF0  3378 0001:00001BF3  3379 0001:00001BF6
  3380 0001:00001BF8  3382 0001:00001BF9  3383 0001:00001BFA  3384 0001:00001BFB
  3392 0001:00001BFC  3396 0001:00001C12  3395 0001:00001C1C  3397 0001:00001C29
  3393 0001:00001C3B  3399 0001:00001C3D  3400 0001:00001C3F  3403 0001:00001C47
  3405 0001:00001C4E  3408 0001:00001C5A  3409 0001:00001C64  3410 0001:00001C6A
  3406 0001:00001C6E  3412 0001:00001C7B  3413 0001:00001C82  3417 0001:00001C8E
  3418 0001:00001C98  3419 0001:00001C9E  3401 0001:00001CA2  3423 0001:00001CA9
  3425 0001:00001CB4  3426 0001:00001CBA  3427 0001:00001CC4  3430 0001:00001CC8
  3432 0001:00001CCF  3435 0001:00001CDB  3436 0001:00001CE5  3438 0001:00001CEB
  3439 0001:00001CF6  3440 0001:00001CF8  3436 0001:00001CF9  3433 0001:00001CFF
  3443 0001:00001D0C  3447 0001:00001D1F  3448 0001:00001D29  3450 0001:00001D2F
  3451 0001:00001D3A  3452 0001:00001D3C  3448 0001:00001D3D  3428 0001:00001D43
  3457 0001:00001D4E  3458 0001:00001D58  3492 0001:00001D60  3493 0001:00001D6C
  3494 0001:00001D73  3495 0001:00001D77  3498 0001:00001D97  3501 0001:00001D9F
  3502 0001:00001DAC  3503 0001:00001DB5  3499 0001:00001DB6  3514 0001:00001DB8
  3602 0001:00001DC4  3603 0001:00001DC7  3604 0001:00001DD1  3606 0001:00001DDC
  3607 0001:00001DE6  3762 0001:00001DEC  3763 0001:00001DEF  3764 0001:00001DF2
  3765 0001:00001DF6  3766 0001:00001DF7  3767 0001:00001DFE  3768 0001:00001E02
  3769 0001:00001E06  3770 0001:00001E07  3771 0001:00001E0A  3772 0001:00001E0B
  3773 0001:00001E0C  3774 0001:00001E0D  3785 0001:00001E10  3786 0001:00001E17
  3787 0001:00001E19  3790 0001:00001E1F  3791 0001:00001E24  3792 0001:00001E29
  3798 0001:00001E2C  3799 0001:00001E32  3800 0001:00001E42  3803 0001:00001E49
  3804 0001:00001E56  3805 0001:00001E5A  3806 0001:00001E66  3807 0001:00001E6D
  3809 0001:00001E74  3810 0001:00001E81  3814 0001:00001E84  3815 0001:00001E8D
  3819 0001:00001E90  3820 0001:00001E99  3830 0001:00001E9C  3831 0001:00001E9F
  3832 0001:00001EA4  3844 0001:00001EA9  3846 0001:00001EC3  3847 0001:00001EC8
  3848 0001:00001ECD  3851 0001:00001ED1  3853 0001:00001ED3  3857 0001:00001ED8
  3858 0001:00001EDA  3865 0001:00001EDC  3866 0001:00001EE1  3867 0001:00001EE8
  3874 0001:00001EEC  3876 0001:00001F04  3878 0001:00001F0B  3879 0001:00001F0D
  3881 0001:00001F12  3884 0001:00001F18  3889 0001:00001F1B  3891 0001:00001F25
  3894 0001:00001F28  3895 0001:00001F2B  3896 0001:00001F31  3897 0001:00001F3C
  3899 0001:00001F43  3900 0001:00001F45  4147 0001:00001F48  4149 0001:00001F49
  4151 0001:00001F4B  4152 0001:00001F4D  4153 0001:00001F50  4154 0001:00001F53
  4156 0001:00001F57  4157 0001:00001F5C  4159 0001:00001F5E  4160 0001:00001F5F
  4162 0001:00001F61  4163 0001:00001F62  4165 0001:00001F64  4169 0001:00001F69
  4170 0001:00001F6E  4171 0001:00001F73  4173 0001:00001F78  4175 0001:00001F7F
  4179 0001:00001F81  4180 0001:00001F86  4181 0001:00001F8B  4182 0001:00001F90
  4186 0001:00001F92  4187 0001:00001F97  4188 0001:00001F9C  4192 0001:00001FA1
  4196 0001:00001FA8  4197 0001:00001FAF  4198 0001:00001FB6  4199 0001:00001FBA
  4203 0001:00001FC0  4204 0001:00001FC2  4205 0001:00001FC7  4206 0001:00001FC8
  4207 0001:00001FCA  4208 0001:00001FCB  4209 0001:00001FCC  4210 0001:00001FCF
  4211 0001:00001FD0  4213 0001:00001FD5  4214 0001:00001FD8  4216 0001:00001FDE
  4217 0001:00001FE0  4218 0001:00001FE6  4220 0001:00001FEC  4228 0001:00001FF0
  4229 0001:00001FF2  4230 0001:00001FF4  4232 0001:00001FF9  4233 0001:00001FFA
  4234 0001:00002000  4235 0001:00002005  4236 0001:00002007  4240 0001:00002009
  4241 0001:0000200B  4242 0001:0000200D  4243 0001:0000200E  4244 0001:00002010
  4246 0001:00002015  4247 0001:00002016  4251 0001:0000201C  4252 0001:0000201E
  4253 0001:00002020  4254 0001:00002022  4255 0001:00002023  4256 0001:00002028
  4257 0001:0000202E  4258 0001:0000202F  4259 0001:00002031  4260 0001:00002036
  4261 0001:00002037  4262 0001:00002038  4266 0001:0000203E  4268 0001:00002040
  4269 0001:00002042  4273 0001:00002044  4274 0001:0000204C  4275 0001:0000204E
  4276 0001:0000204F  4282 0001:00002051  4283 0001:00002053  4284 0001:00002055
  4285 0001:00002057  4286 0001:00002058  4287 0001:0000205A  4288 0001:0000205F
  4289 0001:00002060  4293 0001:00002066  4294 0001:00002068  4295 0001:0000206D
  4296 0001:0000206E  4298 0001:00002070  4301 0001:00002072  4302 0001:00002078
  4303 0001:0000207F  4304 0001:00002086  4305 0001:00002089  4306 0001:0000208F
  4307 0001:00002091  4308 0001:00002093  4310 0001:00002095  4311 0001:0000209B
  4312 0001:0000209D  4313 0001:0000209F  4315 0001:000020A1  4317 0001:000020A3
  4318 0001:000020A8  4319 0001:000020AB  4320 0001:000020AD  4323 0001:000020AF
  4324 0001:000020B5  4325 0001:000020B7  4326 0001:000020B9  4327 0001:000020BE
  4328 0001:000020C0  4329 0001:000020C2  4330 0001:000020C5  4331 0001:000020C7
  4333 0001:000020CE  4335 0001:000020D0  4336 0001:000020D1  4339 0001:000020D2
  4340 0001:000020D4  4341 0001:000020D9  4342 0001:000020DF  4343 0001:000020E4
  4346 0001:000020E6  4347 0001:000020EC  4348 0001:000020F1  4349 0001:000020F3
  4356 0001:000020F4  4357 0001:000020FA  4358 0001:00002108  4359 0001:00002111
  4360 0001:00002117  4361 0001:00002122  4362 0001:00002129  4363 0001:00002130
  4364 0001:00002148  4365 0001:00002154  4366 0001:00002156  4369 0001:0000215C
  4370 0001:0000215D  4372 0001:0000216F  4373 0001:00002177  4375 0001:0000217B
  4376 0001:00002189  4378 0001:0000218D  4380 0001:00002192  4381 0001:0000219F
  4385 0001:000021A4  4386 0001:000021AC  4390 0001:000021B0  4391 0001:000021B8
  4463 0001:000021BC  4464 0001:000021C0  4465 0001:000021C2  4467 0001:000021D2
  4468 0001:000021DC  4469 0001:000021E3  4470 0001:000021E7  4471 0001:000021EE
  4472 0001:000021F2  4475 0001:000021FB  4476 0001:00002203  4477 0001:0000220F
  4537 0001:00002214  4538 0001:00002215  4542 0001:00002216  4543 0001:00002218
  4544 0001:0000221A  4548 0001:0000221C  4549 0001:0000221E  4550 0001:00002220
  4551 0001:00002222  4555 0001:00002223  4556 0001:00002225  4557 0001:00002227
  4558 0001:00002229  4561 0001:0000222B  4562 0001:0000222D  4563 0001:0000222F
  4567 0001:00002231  4568 0001:00002232  4572 0001:00002234  4575 0001:00002236
  4576 0001:00002237  4577 0001:00002238  4582 0001:00002239  4583 0001:0000223B
  4584 0001:0000223D  4585 0001:0000223F  4586 0001:00002241  4587 0001:00002243
  4591 0001:00002244  4592 0001:0000224F  4695 0001:00002250  4696 0001:00002251
  4697 0001:00002252  4698 0001:00002253  4699 0001:00002255  4700 0001:00002258
  4703 0001:0000225A  4704 0001:0000225C  4705 0001:0000225E  4706 0001:00002260
  4707 0001:00002262  4708 0001:00002263  4709 0001:00002265  4710 0001:00002268
  4711 0001:0000226B  4712 0001:0000226D  4713 0001:0000226F  4714 0001:00002272
  4715 0001:00002275  4716 0001:00002276  4717 0001:00002278  4719 0001:0000227A
  4720 0001:0000227D  4722 0001:00002280  4723 0001:00002281  4724 0001:00002284
  4726 0001:00002286  4727 0001:00002288  4728 0001:0000228A  4729 0001:0000228C
  4730 0001:0000228D  4731 0001:0000228F  4732 0001:00002292  4733 0001:00002295
  4734 0001:00002297  4735 0001:00002298  4736 0001:0000229A  4737 0001:0000229D
  4738 0001:000022A0  4741 0001:000022A2  4742 0001:000022A4  4745 0001:000022A7
  4746 0001:000022A8  4747 0001:000022AA  4748 0001:000022AC  4749 0001:000022AE
  4750 0001:000022B0  4751 0001:000022B3  4752 0001:000022B6  4753 0001:000022B8
  4754 0001:000022BA  4757 0001:000022BC  4758 0001:000022BD  4759 0001:000022BE
  4770 0001:000022C0  4771 0001:000022C6  4772 0001:000022C8  4773 0001:000022CB
  4774 0001:000022CE  4775 0001:000022D0  4776 0001:000022D3  4777 0001:000022D9
  4778 0001:000022DB  4779 0001:000022DD  4780 0001:000022E0  4783 0001:000022E2
  4784 0001:000022E4  4787 0001:000022E5  4788 0001:000022E6  4789 0001:000022EB
  4790 0001:000022EC  4791 0001:000022EF  4792 0001:000022F1  4794 0001:000022F4
  4796 0001:000022F6  5065 0001:000022F8  5067 0001:000022F9  5069 0001:000022FB
  5070 0001:000022FD  5071 0001:000022FF  5072 0001:00002302  5074 0001:00002305
  5075 0001:00002307  5076 0001:0000230A  5078 0001:0000230C  5080 0001:0000230E
  5081 0001:00002310  5082 0001:00002313  5085 0001:00002315  5086 0001:00002316
  5098 0001:00002318  5109 0001:00002319  5110 0001:0000231B  5111 0001:00002325
  5112 0001:00002326  5114 0001:0000232C  5115 0001:0000232E  5116 0001:00002330
  5117 0001:00002331  5222 0001:00002334  5223 0001:00002337  5225 0001:0000233F
  5226 0001:0000234A  5229 0001:00002351  5230 0001:0000235C  5231 0001:00002360
  5232 0001:0000236C  5242 0001:00002370  5243 0001:00002376  5244 0001:00002378
  5245 0001:00002379  5246 0001:0000237E  5247 0001:00002380  5248 0001:00002381
  5251 0001:00002383  5252 0001:00002386  5253 0001:00002389  5255 0001:0000238B
  5256 0001:00002391  5257 0001:00002394  5258 0001:00002397  5259 0001:00002399
  5260 0001:0000239C  5262 0001:0000239E  5263 0001:0000239F  5264 0001:000023A2
  5265 0001:000023A4  5268 0001:000023A7  5269 0001:000023A8  5270 0001:000023AB
  5271 0001:000023AD  5272 0001:000023AF  5273 0001:000023B0  5274 0001:000023B3
  5275 0001:000023B6  5280 0001:000023B8  5281 0001:000023BE  5284 0001:000023C0
  5285 0001:000023C3  5286 0001:000023C7  5287 0001:000023CA  5290 0001:000023CC
  5291 0001:000023D1  5293 0001:000023D2  5294 0001:000023D4  5296 0001:000023D6
  5297 0001:000023D8  5360 0001:000023DC  5361 0001:000023DD  5362 0001:000023DE
  5363 0001:000023DF  5364 0001:000023E0  5365 0001:000023E2  5367 0001:000023E4
  5368 0001:000023EA  5369 0001:000023EC  5370 0001:000023ED  5371 0001:000023F2
  5372 0001:000023F4  5373 0001:000023F5  5376 0001:000023F7  5378 0001:000023F9
  5379 0001:000023FB  5381 0001:000023FD  5382 0001:00002400  5383 0001:00002403
  5384 0001:00002405  5387 0001:00002408  5388 0001:00002409  5389 0001:0000240B
  5390 0001:0000240D  5392 0001:0000240E  5393 0001:00002410  5395 0001:00002412
  5396 0001:00002414  5398 0001:00002416  5399 0001:00002418  5402 0001:0000241A
  5403 0001:0000241B  5404 0001:0000241C  5405 0001:0000241E  5408 0001:00002420
  5409 0001:00002426  5410 0001:00002428  5413 0001:0000242A  5414 0001:0000242C
  5415 0001:0000242E  5417 0001:00002430  5419 0001:00002431  5420 0001:00002434
  5421 0001:00002437  5424 0001:00002439  5425 0001:0000243C  5426 0001:0000243E
  5427 0001:00002443  5428 0001:00002446  5429 0001:00002449  5430 0001:0000244B
  5431 0001:0000244E  5432 0001:00002450  5435 0001:00002452  5436 0001:00002454
  5437 0001:00002455  5438 0001:00002457  5439 0001:00002458  5440 0001:00002459
  5441 0001:0000245A  5449 0001:0000245C  5450 0001:0000245D  5451 0001:0000245E
  5452 0001:00002463  5453 0001:00002464  5454 0001:00002466  5473 0001:00002468
  5474 0001:00002469  5475 0001:0000246A  5476 0001:0000246C  5478 0001:0000246E
  5479 0001:00002470  5481 0001:00002475  5483 0001:0000247B  5484 0001:0000247D
  5485 0001:0000247F  5486 0001:00002484  5488 0001:00002489  5489 0001:0000248B
  5490 0001:0000248D  5492 0001:00002492  5493 0001:00002496  5496 0001:00002498
  5497 0001:0000249A  5498 0001:0000249C  5499 0001:000024A1  5501 0001:000024A6
  5502 0001:000024A8  5503 0001:000024AA  5504 0001:000024AC  5506 0001:000024B1
  5507 0001:000024B3  5508 0001:000024B6  5510 0001:000024BB  5511 0001:000024BD
  5512 0001:000024C2  5514 0001:000024C3  5515 0001:000024C7  5518 0001:000024C9
  5519 0001:000024CF  5520 0001:000024D0  5521 0001:000024D1  5659 0001:000024D4
  5660 0001:000024D5  5662 0001:000024D7  5663 0001:000024D9  5665 0001:000024DE
  5666 0001:000024E0  5667 0001:000024E2  5668 0001:000024E5  5669 0001:000024E7
  5670 0001:000024E9  5672 0001:000024EB  5673 0001:000024ED  5675 0001:000024F2
  5676 0001:000024F4  5677 0001:000024F6  5678 0001:000024F9  5679 0001:000024FB
  5680 0001:000024FE  5684 0001:00002500  5685 0001:00002501  6258 0001:00002504
  6259 0001:00002505  6260 0001:00002506  6262 0001:00002507  6263 0001:00002509
  6265 0001:0000250A  6266 0001:0000250C  6268 0001:0000250E  6269 0001:00002510
  6270 0001:00002512  6273 0001:00002517  6274 0001:00002519  6275 0001:0000251A
  6276 0001:0000251D  6279 0001:0000251F  6280 0001:00002521  6281 0001:00002524
  6282 0001:00002526  6283 0001:00002529  6286 0001:0000252B  6287 0001:0000252E
  6289 0001:00002530  6290 0001:00002533  6291 0001:00002535  6292 0001:00002538
  6293 0001:0000253A  6294 0001:0000253D  6295 0001:0000253F  6296 0001:00002541
  6297 0001:00002542  6298 0001:00002545  6299 0001:00002547  6300 0001:0000254A
  6301 0001:0000254C  6302 0001:0000254E  6303 0001:00002550  6306 0001:00002552
  6307 0001:00002554  6310 0001:00002556  6311 0001:00002559  6312 0001:0000255C
  6313 0001:0000255E  6314 0001:00002560  6315 0001:00002562  6316 0001:00002565
  6317 0001:00002567  6319 0001:00002569  6320 0001:0000256B  6322 0001:0000256C
  6323 0001:0000256E  6326 0001:00002570  6327 0001:00002572  6328 0001:00002574
  6329 0001:00002576  6330 0001:00002578  6333 0001:0000257A  6334 0001:0000257B
  6337 0001:0000257D  6338 0001:0000257F  6339 0001:00002581  6343 0001:00002583
  6344 0001:00002584  6345 0001:00002586  6348 0001:00002588  6350 0001:0000258A
  6351 0001:0000258C  6352 0001:0000258D  6355 0001:0000258F  6357 0001:00002594
  6358 0001:00002596  6359 0001:00002597  6360 0001:00002599  6363 0001:0000259B
  6364 0001:0000259E  6365 0001:000025A0  6367 0001:000025A3  6368 0001:000025A6
  6369 0001:000025A9  6370 0001:000025AB  6371 0001:000025AE  6372 0001:000025B1
  6373 0001:000025B3  6375 0001:000025B6  6376 0001:000025B8  6377 0001:000025BA
  6378 0001:000025BD  6380 0001:000025BF  6381 0001:000025C1  6383 0001:000025C2
  6384 0001:000025C4  6386 0001:000025C6  6387 0001:000025C8  6388 0001:000025CA
  6391 0001:000025CC  6392 0001:000025CD  6395 0001:000025CF  6396 0001:000025D1
  6397 0001:000025D2  6398 0001:000025D3  6399 0001:000025D4  6464 0001:000025D8
  6465 0001:000025DB  6467 0001:000025EB  6468 0001:000025F6  6471 0001:000025FD
  6472 0001:00002608  6473 0001:0000260C  6474 0001:00002618  6512 0001:0000261C
  6513 0001:0000261D  6515 0001:0000261E  6517 0001:00002620  6518 0001:00002626
  6519 0001:00002628  6520 0001:00002629  6521 0001:0000262A  6522 0001:0000262B
  6523 0001:00002630  6524 0001:00002632  6525 0001:00002633  6526 0001:00002634
  6527 0001:00002635  6530 0001:00002637  6531 0001:0000263A  6535 0001:0000263D
  6536 0001:00002640  6540 0001:00002643  6541 0001:00002645  6545 0001:00002647
  6546 0001:0000264A  6550 0001:0000264C  6551 0001:0000264D  6552 0001:0000264E
  6553 0001:00002650  6555 0001:00002652  6556 0001:00002655  6557 0001:00002657
  6559 0001:00002659  6560 0001:0000265A  6561 0001:0000265B  6564 0001:0000265D
  6565 0001:00002662  6566 0001:00002663  6567 0001:00002664  6569 0001:00002667
  6570 0001:0000266A  6573 0001:0000266C  6574 0001:0000266D  6575 0001:0000266E
  6600 0001:00002670  6605 0001:00002672  6608 0001:00002677  6609 0001:0000267A
  6611 0001:0000267C  6612 0001:0000267F  6613 0001:00002680  6614 0001:00002681
  6615 0001:00002686  6616 0001:0000268B  6617 0001:00002690  6618 0001:00002697
  6619 0001:00002699  6620 0001:0000269A  6621 0001:0000269B  6624 0001:0000269D
  6625 0001:0000269E  6626 0001:0000269F  6629 0001:000026A0  6631 0001:000026E0
  6632 0001:000026E2  6634 0001:000026E8  6826 0001:000026EC  6827 0001:000026F2
  6829 0001:000026F8  6830 0001:000026FD  6831 0001:00002702  6835 0001:00002717
  6836 0001:0000271C  6838 0001:0000272F  6839 0001:00002739  7017 0001:00002740
  7018 0001:00002741  7020 0001:00002742  7021 0001:00002744  7023 0001:00002746
  7024 0001:0000274C  7026 0001:0000274E  7027 0001:0000274F  7028 0001:00002750
  7836 0001:00002754  7837 0001:00002759  7850 0001:0000275C  7857 0001:0000275D
  7859 0001:0000275F  7860 0001:00002761  7861 0001:00002763  7862 0001:00002769
  7863 0001:0000276E  7864 0001:00002774  7865 0001:00002776  7866 0001:00002779
  7867 0001:0000277C  7869 0001:00002783  7871 0001:00002785  7872 0001:00002788
  7874 0001:0000278A  7875 0001:0000278C  7876 0001:0000278F  7877 0001:00002791
  7878 0001:00002794  7879 0001:0000279B  7883 0001:0000279D  7884 0001:000027A0
  7885 0001:000027A2  7886 0001:000027A5  7887 0001:000027AC  7888 0001:000027AE
  7891 0001:000027B0  7892 0001:000027B2  7893 0001:000027B7  7894 0001:000027B9
  7895 0001:000027BB  7896 0001:000027BE  7897 0001:000027C1  7898 0001:000027C8
  7900 0001:000027CA  7901 0001:000027CD  7903 0001:000027CF  7904 0001:000027D1
  7905 0001:000027D4  7906 0001:000027D6  7907 0001:000027D9  7908 0001:000027E0
  7912 0001:000027E2  7913 0001:000027E5  7914 0001:000027E7  7915 0001:000027EA
  7916 0001:000027F1  7918 0001:000027F3  7921 0001:000027F5  7922 0001:000027F7
  7923 0001:000027FD  7926 0001:000027FF  7927 0001:00002801  7930 0001:00002803
  7931 0001:00002804  7933 0001:00002805  7934 0001:0000280F  7935 0001:00002819
  7936 0001:00002823  7937 0001:0000282D  7938 0001:00002837  7939 0001:00002841
  7940 0001:0000284B  7941 0001:00002855  7942 0001:0000285F  7943 0001:00002869
  7944 0001:00002873  7945 0001:0000287D  7946 0001:00002887  7947 0001:00002891
  7948 0001:0000289B  7949 0001:000028A5  7950 0001:000028AF  7951 0001:000028B9
  7952 0001:000028C3  7953 0001:000028CD  7954 0001:000028D7  7955 0001:000028E1
  7956 0001:000028EB  7957 0001:000028F5  7958 0001:000028FF  7959 0001:00002909
  7960 0001:00002913  7961 0001:0000291D  7962 0001:00002927  7963 0001:00002931
  7964 0001:0000293B  7965 0001:00002945  7967 0001:0000294F  7968 0001:00002959
  7969 0001:00002963  7970 0001:0000296D  7971 0001:00002977  7972 0001:00002981
  7973 0001:0000298B  7974 0001:00002995  7975 0001:0000299F  7976 0001:000029A9
  7977 0001:000029B3  7978 0001:000029BD  7979 0001:000029C7  7980 0001:000029D1
  7981 0001:000029DB  7983 0001:000029E5  7984 0001:000029EF  7985 0001:000029F9
  7986 0001:00002A03  7987 0001:00002A0D  7988 0001:00002A17  7989 0001:00002A21
  7990 0001:00002A2B  7991 0001:00002A35  7992 0001:00002A3F  8209 0001:00002A40
  8214 0001:00002A48  8215 0001:00002A49  8216 0001:00002A4B  8218 0001:00002A57
  8219 0001:00002A63  8220 0001:00002A71  8222 0001:00002A75  8237 0001:00002A78
  8238 0001:00002A7E  8240 0001:00002A88  8241 0001:00002AA3  8242 0001:00002AB1
  8243 0001:00002AB8  8245 0001:00002ADF  8247 0001:00002AF0  8248 0001:00002B0B
  8253 0001:00002B3C  8254 0001:00002B3E  8260 0001:00002B3F  8262 0001:00002B45
  8266 0001:00002B48  8267 0001:00002B4A  8268 0001:00002B4F  8272 0001:00002B50
  8273 0001:00002B52  8274 0001:00002B57  8277 0001:00002B58  8278 0001:00002B59
  8279 0001:00002B61  8290 0001:00002B64  8291 0001:00002B65  8292 0001:00002B66
  8293 0001:00002B68  8294 0001:00002B6B  8295 0001:00002B6D  8296 0001:00002B6F
  8297 0001:00002B70  8298 0001:00002B72  8299 0001:00002B73  8300 0001:00002B74
  8350 0001:00002B78  8351 0001:00002B7B  8352 0001:00002B7D  8353 0001:00002B7F
  8355 0001:00002B81  8359 0001:00002B84  8360 0001:00002B87  8361 0001:00002B9C
  8364 0001:00002BA0  8365 0001:00002BA3  8366 0001:00002BAA  8367 0001:00002BB1
  8371 0001:00002BB4  8372 0001:00002BB9  8375 0001:00002BBC  8376 0001:00002BDB
  8379 0001:00002BDC  8380 0001:00002BEA  8384 0001:00002BEC  8385 0001:00002BF0
  8386 0001:00002BF7  8414 0001:00002BF8  8415 0001:00002BF9  8416 0001:00002BFA
  8417 0001:00002BFB  8418 0001:00002BFD  8419 0001:00002BFF  8420 0001:00002C00
  8421 0001:00002C03  8422 0001:00002C05  8423 0001:00002C06  8424 0001:00002C09
  8425 0001:00002C0A  8426 0001:00002C0C  8427 0001:00002C0D  8428 0001:00002C10
  8429 0001:00002C12  8430 0001:00002C14  8431 0001:00002C16  8432 0001:00002C19
  8433 0001:00002C1B  8434 0001:00002C1D  8435 0001:00002C1E  8436 0001:00002C21
  8437 0001:00002C23  8438 0001:00002C25  8439 0001:00002C27  8440 0001:00002C29
  8441 0001:00002C2B  8442 0001:00002C2D  8443 0001:00002C2E  8444 0001:00002C30
  8445 0001:00002C33  8446 0001:00002C36  8447 0001:00002C38  8448 0001:00002C3A
  8449 0001:00002C3D  8450 0001:00002C40  8451 0001:00002C43  8452 0001:00002C44
  8453 0001:00002C46  8454 0001:00002C48  8455 0001:00002C4A  8456 0001:00002C4B
  8457 0001:00002C4C  8458 0001:00002C4D  8479 0001:00002C50  8480 0001:00002C51
  8481 0001:00002C52  8482 0001:00002C54  8484 0001:00002C56  8485 0001:00002C58
  8486 0001:00002C5B  8487 0001:00002C5E  8488 0001:00002C60  8489 0001:00002C62
  8490 0001:00002C67  8492 0001:00002C69  8493 0001:00002C6B  8495 0001:00002C6D
  8496 0001:00002C6E  8497 0001:00002C6F  8522 0001:00002C70  8523 0001:00002C72
  8524 0001:00002C78  8525 0001:00002C7A  8526 0001:00002C80  8529 0001:00002C82
  8530 0001:00002C85  8531 0001:00002C87  8534 0001:00002C89  8537 0001:00002C8B
  8538 0001:00002C91  8539 0001:00002C93  8540 0001:00002C95  8541 0001:00002C97
  8542 0001:00002C9C  8548 0001:00002CA0  8549 0001:00002CC2  8550 0001:00002CC6
  8551 0001:00002CD2  8553 0001:00002CD8  8555 0001:00002CE2  8556 0001:00002CE8
  8559 0001:00002CF6  8561 0001:00002D10  8562 0001:00002D37  8589 0001:00002D40
  8590 0001:00002D41  8591 0001:00002D42  8592 0001:00002D44  8593 0001:00002D47
  8594 0001:00002D49  8595 0001:00002D4B  8596 0001:00002D4D  8597 0001:00002D50
  8598 0001:00002D52  8599 0001:00002D54  8600 0001:00002D56  8601 0001:00002D59
  8602 0001:00002D5C  8603 0001:00002D5E  8604 0001:00002D61  8605 0001:00002D64
  8606 0001:00002D66  8607 0001:00002D69  8608 0001:00002D6C  8609 0001:00002D6E
  8610 0001:00002D71  8611 0001:00002D72  8612 0001:00002D74  8613 0001:00002D77
  8614 0001:00002D79  8615 0001:00002D7B  8616 0001:00002D7D  8617 0001:00002D7F
  8618 0001:00002D81  8619 0001:00002D82  8620 0001:00002D83  8629 0001:00002D84
  8630 0001:00002D8A  8631 0001:00002DA2  8673 0001:00002DA8  8674 0001:00002DA9
  8675 0001:00002DAA  8677 0001:00002DAC  8679 0001:00002DAE  8680 0001:00002DB1
  8681 0001:00002DB3  8682 0001:00002DB5  8683 0001:00002DB8  8684 0001:00002DB9
  8685 0001:00002DBC  8686 0001:00002DBF  8687 0001:00002DC1  8689 0001:00002DC2
  8690 0001:00002DC5  8691 0001:00002DC7  8692 0001:00002DC9  8695 0001:00002DCB
  8696 0001:00002DCC  8697 0001:00002DCE  8698 0001:00002DD0  8701 0001:00002DD4
  8702 0001:00002DD5  8706 0001:00002DD8  8707 0001:00002DD9  8708 0001:00002DDA
  8709 0001:00002DDC  8710 0001:00002DE1  8711 0001:00002DE2  8712 0001:00002DE3
  8713 0001:00002DE5  8715 0001:00002DE7  8716 0001:00002DE8  8717 0001:00002DED
  8778 0001:00002DF0  8780 0001:00002DF2  8782 0001:00002DF4  8783 0001:00002DF6
  8784 0001:00002DF8  8785 0001:00002DFB  8786 0001:00002DFD  8787 0001:00002DFF
  8789 0001:00002E00  8791 0001:00002E02  8804 0001:00002E04  8805 0001:00002E09
  8810 0001:00002E0C  8815 0001:00002E10  8819 0001:00002E14  8823 0001:00002E18
  8824 0001:00002E19  8825 0001:00002E1C  8826 0001:00002E1F  8827 0001:00002E21
  8828 0001:00002E26  8829 0001:00002E28  8830 0001:00002E29  8831 0001:00002E2B
  8832 0001:00002E30  8833 0001:00002E31  8834 0001:00002E33  8835 0001:00002E35
  8836 0001:00002E36  8839 0001:00002E38  8840 0001:00002E39  8841 0001:00002E3B
  8842 0001:00002E3E  9014 0001:00002E40  9015 0001:00002E41  9016 0001:00002E42
  9017 0001:00002E43  9018 0001:00002E45  9019 0001:00002E47  9022 0001:00002E4A
  9023 0001:00002E4C  9024 0001:00002E50  9025 0001:00002E53  9026 0001:00002E55
  9027 0001:00002E58  9028 0001:00002E5F  9029 0001:00002E62  9031 0001:00002E65
  9032 0001:00002E66  9033 0001:00002E67  9034 0001:00002E68  9038 0001:00002E69
  9042 0001:00002E6E  9043 0001:00002E72  9044 0001:00002E75  9045 0001:00002E77
  9046 0001:00002E79  9047 0001:00002E7B  9048 0001:00002E7D  9049 0001:00002E7E
  9050 0001:00002E81  9051 0001:00002E82  9054 0001:00002E87  9056 0001:00002E8C
  9060 0001:00002E90  9061 0001:00002E95  9065 0001:00002E98  9066 0001:00002E9B
  9067 0001:00002EA2  9068 0001:00002EA4  9083 0001:00002EA8  9084 0001:00002EAA
  9085 0001:00002EAC  9087 0001:00002EAD  9088 0001:00002EAE  9089 0001:00002EAF
  9090 0001:00002EB1  9091 0001:00002EB4  9092 0001:00002EB5  9093 0001:00002EB6
  9198 0001:00002EB8  9199 0001:00002EBF  9200 0001:00002EC1  9201 0001:00002EC3
  9202 0001:00002EC5  9203 0001:00002EC7  9204 0001:00002ECC  9207 0001:00002ED2
  9213 0001:00002ED4  9214 0001:00002EDB  9215 0001:00002EDD  9216 0001:00002EDE
  9217 0001:00002EDF  9218 0001:00002EE0  9219 0001:00002EE1  9220 0001:00002EE3
  9221 0001:00002EE5  9222 0001:00002EEA  9223 0001:00002EF0  9224 0001:00002EF3
  9226 0001:00002EF4  9249 0001:00002EF8  9250 0001:00002EF9  9251 0001:00002EFB
  9252 0001:00002EFD  9253 0001:00002F02  9254 0001:00002F08  9255 0001:00002F0B
  9257 0001:00002F0C  9273 0001:00002F10  9274 0001:00002F17  9275 0001:00002F19
  9276 0001:00002F1A  9277 0001:00002F1D  9280 0001:00002F22  9285 0001:00002F24
  9286 0001:00002F2B  9287 0001:00002F2D  9288 0001:00002F2E  9289 0001:00002F2F
  9291 0001:00002F34  9295 0001:00002F38  9296 0001:00002F3A  9297 0001:00002F3C
  9298 0001:00002F3F  9299 0001:00002F42  9300 0001:00002F44  9301 0001:00002F47
  9302 0001:00002F49  9303 0001:00002F4C  9304 0001:00002F4D  9305 0001:00002F4E
  9307 0001:00002F50  9309 0001:00002F53  9311 0001:00002F55  9328 0001:00002F58
  9329 0001:00002F5F  9330 0001:00002F61  9331 0001:00002F62  9332 0001:00002F63
  9333 0001:00002F64  9334 0001:00002F69  9335 0001:00002F6A  9336 0001:00002F6B
  9337 0001:00002F6D  9338 0001:00002F6F  9339 0001:00002F74  9340 0001:00002F7A
  9341 0001:00002F7B  9342 0001:00002F7C  9343 0001:00002F7D  9346 0001:00002F7E
  9354 0001:00002F80  9355 0001:00002F87  9356 0001:00002F89  9357 0001:00002F8A
  9358 0001:00002F8B  9359 0001:00002F8D  9360 0001:00002F8F  9361 0001:00002F94
  9362 0001:00002F9A  9364 0001:00002F9B  9388 0001:00002F9C  9389 0001:00002F9D
  9390 0001:00002F9E  9391 0001:00002FA5  9392 0001:00002FA7  9393 0001:00002FA8
  9394 0001:00002FAA  9395 0001:00002FAC  9396 0001:00002FB1  9398 0001:00002FB7
  9399 0001:00002FB8  9401 0001:00002FB9  9488 0001:00002FBC  9489 0001:00002FC0
  9490 0001:00002FC7  9492 0001:00002FCD  9493 0001:00002FD3  9494 0001:00002FD6
  9495 0001:00002FD9  9496 0001:00002FDB  9497 0001:00002FDC  9498 0001:00002FE1
  9499 0001:00002FE7  9500 0001:00002FE9  9501 0001:00002FEF  9502 0001:00002FF1
  9503 0001:00002FF3  9504 0001:00002FF9  9505 0001:00002FFD  9506 0001:00003001
  9507 0001:00003007  9508 0001:00003009  9510 0001:0000300E  9511 0001:00003015
  9512 0001:00003017  9513 0001:0000301E  9514 0001:00003020  9515 0001:00003024
  9516 0001:00003025  9517 0001:00003026  9518 0001:0000302B  9519 0001:0000302E
  9520 0001:0000302F  9521 0001:00003035  9522 0001:00003037  9523 0001:0000303B
  9524 0001:0000303E  9527 0001:00003040  9528 0001:00003042  9529 0001:00003046
  9533 0001:00003049  9534 0001:00003050  9535 0001:00003052  9536 0001:00003059
  9537 0001:0000305B  9538 0001:0000305C  9539 0001:00003060  9540 0001:00003061
  9541 0001:00003062  9542 0001:00003063  9543 0001:00003068  9544 0001:0000306B
  9545 0001:0000306C  9546 0001:0000306D  9547 0001:0000306E  9551 0001:00003070
  9553 0001:00003074  9554 0001:00003075  9555 0001:00003077  9556 0001:00003078
  9557 0001:00003079  9559 0001:0000307A  9560 0001:0000307D  9561 0001:0000307E
  9562 0001:0000307F  9563 0001:00003080  9565 0001:00003081  9567 0001:00003085
  9568 0001:00003087  9569 0001:00003088  9570 0001:0000308D  9571 0001:0000308E
  9574 0001:00003094  9578 0001:00003098  9579 0001:0000309D  9580 0001:000030A3
  9582 0001:000030A9  9583 0001:000030AC  9584 0001:000030AF  9586 0001:000030B6
  9587 0001:000030B9  9588 0001:000030BE  9591 0001:000030C0  9597 0001:000030C5
  9598 0001:000030CA  9599 0001:000030D0  9600 0001:000030D2  9602 0001:000030D8
  9603 0001:000030DB  9606 0001:000030E0  9608 0001:000030E5  9806 0001:000030E8
  9807 0001:000030EC  9808 0001:000030F3  9810 0001:000030F9  9811 0001:000030FF
  9812 0001:00003101  9813 0001:00003102  9814 0001:00003107  9815 0001:0000310D
  9816 0001:0000310F  9817 0001:00003115  9818 0001:00003117  9819 0001:00003119
  9820 0001:0000311B  9823 0001:00003120  9824 0001:00003123  9828 0001:00003125
  9830 0001:00003129  9831 0001:0000312A  9832 0001:0000312B  9833 0001:0000312C
  9835 0001:0000312D  9836 0001:00003130  9837 0001:00003133  9838 0001:00003136
  9841 0001:00003138  9842 0001:0000313A  9843 0001:0000313C  9844 0001:0000313E
  9845 0001:00003140  9848 0001:00003142  9850 0001:00003144  9851 0001:00003146
  9852 0001:00003148  9854 0001:0000314A  9855 0001:0000314D  9856 0001:00003150
  9858 0001:00003152  9859 0001:00003155  9861 0001:00003158  9862 0001:0000315A
  9863 0001:0000315C  9864 0001:0000315E  9866 0001:00003160  9867 0001:00003161
  9868 0001:00003162  9869 0001:00003167  9872 0001:00003169  9873 0001:0000316C
  9874 0001:0000316E  9875 0001:00003170  9877 0001:00003172  9878 0001:00003175
  9879 0001:00003176  9881 0001:00003178  9882 0001:00003179  9883 0001:0000317A
  9884 0001:0000317B  9885 0001:0000317C  9888 0001:00003181  9889 0001:00003185
  9890 0001:0000318B  9891 0001:0000318E  9892 0001:00003191  9893 0001:00003193
  9894 0001:00003199  9895 0001:0000319D  9897 0001:000031A2  9898 0001:000031A9
  9899 0001:000031AB  9900 0001:000031B2  9901 0001:000031B4  9902 0001:000031B8
  9903 0001:000031B9  9904 0001:000031BA  9905 0001:000031BF  9906 0001:000031C2
  9907 0001:000031C3  9910 0001:000031C9  9911 0001:000031CB  9912 0001:000031CF
  9913 0001:000031D2  9917 0001:000031D4  9918 0001:000031DB  9919 0001:000031DD
  9920 0001:000031E4  9921 0001:000031E6  9922 0001:000031E7  9923 0001:000031EB
  9924 0001:000031EC  9925 0001:000031ED  9926 0001:000031EE  9927 0001:000031F3
  9928 0001:000031F6  9929 0001:000031F7  9930 0001:000031F8  9931 0001:000031F9
  9935 0001:000031FB  9936 0001:000031FD  9937 0001:00003200  9938 0001:00003201
  9939 0001:00003202  9940 0001:00003203  9942 0001:00003204  9943 0001:00003208
  9945 0001:0000320C  9947 0001:0000320D  9948 0001:0000320F  9949 0001:00003210
  9950 0001:00003215  9951 0001:00003216  9954 0001:0000321C  9956 0001:0000321D
  9960 0001:00003221  9961 0001:00003226  9962 0001:0000322C  9964 0001:00003232
  9965 0001:00003235  9966 0001:0000323C  9967 0001:00003240  9968 0001:00003245
  9971 0001:00003248  9977 0001:0000324D  9978 0001:00003252  9979 0001:00003258
  9980 0001:0000325A  9982 0001:00003260  9983 0001:00003263  9985 0001:00003268
  9986 0001:0000326D 10050 0001:00003270 10051 0001:00003274 10052 0001:00003278
 10053 0001:0000327F 10054 0001:00003281 10055 0001:00003284 10057 0001:0000328B
 10058 0001:0000328C 10059 0001:0000328D 10060 0001:0000328E 10062 0001:0000328F
 10063 0001:00003292 10064 0001:00003295 10065 0001:0000329A 10067 0001:0000329C
 10068 0001:0000329D 10069 0001:0000329E 10070 0001:0000329F 10073 0001:000032A0
 10075 0001:000032A5 10262 0001:000032A8 10263 0001:000032AA 10264 0001:000032AC
 10265 0001:000032B1 10267 0001:000032B6 10269 0001:000032B7 10270 0001:000032B8
 10271 0001:000032B9 10272 0001:000032BA 10273 0001:000032BB 10274 0001:000032BC
 10275 0001:000032BD 10277 0001:000032BE 10278 0001:000032BF 10279 0001:000032C1
 10280 0001:000032C3 10281 0001:000032C8 10282 0001:000032C9 10284 0001:000032CF
 10346 0001:000032D0 10347 0001:000032D4 10351 0001:000032DB 10352 0001:000032E0
 10353 0001:000032E6 10354 0001:000032E8 10358 0001:000032EE 10359 0001:000032F1
 10360 0001:000032F5 10361 0001:000032FB 10362 0001:000032FD 10363 0001:00003300
 10364 0001:00003305 10368 0001:0000330A 10369 0001:0000330C 10370 0001:0000330F
 10371 0001:00003312 10372 0001:00003313 10373 0001:00003315 10375 0001:00003317
 10376 0001:00003318 10377 0001:00003319 10378 0001:0000331A 10380 0001:0000331B
 10382 0001:00003320 10466 0001:00003324 10467 0001:00003329 10468 0001:0000332F
 10469 0001:00003331 10473 0001:00003337 10474 0001:0000333A 10476 0001:0000333F
 10477 0001:00003340 10478 0001:00003344 10479 0001:00003346 10480 0001:00003347
 10481 0001:0000334A 10482 0001:0000334B 10483 0001:0000334C 10484 0001:00003351
 10486 0001:00003353 10492 0001:00003354 10493 0001:00003356 10494 0001:0000335A
 10495 0001:0000335E 10496 0001:00003361 10497 0001:00003364 10498 0001:00003366
 10500 0001:00003369 10526 0001:0000336C 10527 0001:00003372 10528 0001:000033CD
 10529 0001:000033D1 10530 0001:000033D5 10533 0001:000033D9 10534 0001:000033DD
 10535 0001:000033E1 10537 0001:000033E5 10538 0001:000033E9 10539 0001:000033ED
 10540 0001:000033F1 10541 0001:000033F5 10542 0001:000033F9 10544 0001:000033FB
 10545 0001:00003408 10549 0001:0000340C 10551 0001:00003410 10552 0001:00003417
 10554 0001:0000341D 10555 0001:00003424 10556 0001:00003426 10557 0001:0000342A
 10558 0001:0000342B 10559 0001:00003430 10560 0001:00003433 10565 0001:00003435
 10566 0001:00003439 10567 0001:0000343A 10568 0001:0000343F 10570 0001:00003443
 10571 0001:00003445 10572 0001:00003446 10573 0001:0000344B 10574 0001:0000344C
 10577 0001:00003452 10578 0001:00003456 10579 0001:0000345C 10580 0001:0000345F
 10581 0001:00003462 10583 0001:00003464 10584 0001:0000346A 10585 0001:0000346C
 10586 0001:00003472 10587 0001:00003474 10588 0001:00003476 10589 0001:00003478
 10590 0001:0000347E 10594 0001:00003481 10595 0001:00003486 10596 0001:0000348C
 10597 0001:0000348E 10598 0001:00003490 10601 0001:00003492 10602 0001:00003496
 10603 0001:0000349B 10604 0001:0000349E 10605 0001:000034A1 10608 0001:000034A6
 10609 0001:000034A8 10613 0001:000034AC 10614 0001:000034AE 10615 0001:000034B1
 10616 0001:000034B4 10618 0001:000034B7 10623 0001:000034B9 10625 0001:000034C0
 10629 0001:000034C3 10631 0001:000034C8 10636 0001:000034CC 10640 0001:000034CE
 10642 0001:000034D3 10643 0001:000034D5 10644 0001:000034D7 10645 0001:000034DA
 10646 0001:000034DC 10647 0001:000034DE 10648 0001:000034E0 10649 0001:000034E3
 10652 0001:000034E4 10654 0001:000034E6 10655 0001:000034E9 10656 0001:000034EB
 10657 0001:000034ED 10659 0001:000034EF 10660 0001:000034F1 10662 0001:000034F3
 10684 0001:000034F4 10685 0001:00003502 10687 0001:00003509 10688 0001:0000350C
 10692 0001:00003512 10693 0001:00003520 10695 0001:00003524 10696 0001:00003525
 10697 0001:00003528 10698 0001:00003532 10704 0001:00003538 10693 0001:0000353B
 10709 0001:0000354E 10710 0001:00003553 10712 0001:0000355D 10824 0001:00003564
 10825 0001:00003572 10827 0001:00003579 10828 0001:0000357B 10829 0001:0000357D
 10833 0001:00003583 10834 0001:00003591 10836 0001:00003595 10837 0001:0000359E
 10838 0001:0000359F 10839 0001:000035A2 10845 0001:000035A8 10834 0001:000035AB
 10850 0001:000035BE 10851 0001:000035C3 10853 0001:000035CD 10925 0001:000035D4
 10926 0001:000035D5 10927 0001:000035D6 10931 0001:000035D7 10932 0001:000035DC
 10933 0001:000035DF 10934 0001:000035E4 10938 0001:000035E6 10939 0001:000035EC
 10940 0001:000035F2 10941 0001:000035F8 10942 0001:000035FE 10943 0001:00003603
 10944 0001:00003609 10945 0001:0000360C 10946 0001:00003612 10947 0001:00003614
 10948 0001:00003618 10949 0001:0000361A 10951 0001:0000361C 10953 0001:00003622
 10954 0001:00003627 10955 0001:0000362C 10956 0001:00003631 10958 0001:00003636
 10960 0001:0000363B 10961 0001:0000363E 10962 0001:0000363F 10963 0001:00003644
 10967 0001:00003645 10968 0001:00003646 10969 0001:00003648 10970 0001:0000364E
 10971 0001:00003650 10972 0001:00003652 10973 0001:00003654 10978 0001:00003657
 10979 0001:00003658 10980 0001:0000365C 10981 0001:0000365E 10982 0001:00003660
 10983 0001:00003663 10984 0001:00003666 10987 0001:00003668 10988 0001:00003669
 10989 0001:0000366C 10990 0001:0000366E 10991 0001:00003670 10997 0001:00003673
 10998 0001:0000367A 10999 0001:0000367C 11000 0001:00003683 11004 0001:00003689
 11005 0001:0000368C 11006 0001:0000368D 11007 0001:00003693 11008 0001:00003698
 11009 0001:0000369B 11109 0001:0000369C 11110 0001:0000369D 11112 0001:0000369F
 11113 0001:000036A0 11114 0001:000036A1 11115 0001:000036A4 11117 0001:000036A8
 11118 0001:000036AB 11119 0001:000036AD 11120 0001:000036B0 11121 0001:000036B2
 11122 0001:000036B7 11123 0001:000036BA 11124 0001:000036BB 11126 0001:000036BD
 11127 0001:000036BE 11129 0001:000036BF 11131 0001:000036C0 11149 0001:000036C4
 11150 0001:000036C5 11152 0001:000036C7 11153 0001:000036C8 11154 0001:000036C9
 11155 0001:000036CC 11167 0001:000036D0 11168 0001:000036D3 11169 0001:000036D5
 11170 0001:000036D8 11171 0001:000036DB 11172 0001:000036DE 11173 0001:000036E1
 11174 0001:000036E2 11178 0001:000036E4 11179 0001:000036E5 11181 0001:000036E6
 11183 0001:000036E7 11226 0001:000036E8 11227 0001:000036F0 11228 0001:000036F2
 11230 0001:000036F8 11231 0001:0000370C 11232 0001:00003718 11233 0001:00003719
 11234 0001:0000371D 11235 0001:0000371F 11237 0001:00003724 11238 0001:00003736
 11239 0001:00003739 11240 0001:0000373A 11241 0001:0000373E 11257 0001:00003744
 11258 0001:00003746 11259 0001:0000374C 11260 0001:0000374E 11261 0001:00003750
 11268 0001:00003751 11271 0001:00003756 11272 0001:00003759 11273 0001:0000375C
 11274 0001:0000375F 11276 0001:00003762 11277 0001:00003764 11278 0001:00003769
 11279 0001:0000376B 11280 0001:0000376C 11282 0001:0000376D 11284 0001:0000376E
 11289 0001:00003771 11295 0001:00003774 11296 0001:00003775 11300 0001:0000377E
 11301 0001:00003792 11303 0001:0000379D 11304 0001:000037B8 11306 0001:000037D5
 11307 0001:000037DE 11322 0001:000037F1 11330 0001:00003800 11344 0001:0000380F
 11345 0001:00003815 11347 0001:0000381A 11348 0001:0000381F 11349 0001:00003823
 11345 0001:00003826 11354 0001:0000382B 11356 0001:00003834 11357 0001:00003839
 11358 0001:0000383E 11369 0001:00003845 11370 0001:00003854 11374 0001:00003859
 11376 0001:0000385E 11378 0001:0000386D 11381 0001:00003874 11385 0001:0000387B
 11386 0001:0000388A 11391 0001:00003890 11395 0001:00003895 11396 0001:0000389B
 11399 0001:0000389E 11400 0001:000038A4 11402 0001:000038A9 11409 0001:000038AE
 11410 0001:000038B7 11411 0001:000038BD 11414 0001:000038C8 11364 0001:000038D5
 11416 0001:000038DA 11420 0001:000038E0 11421 0001:000038E5 11422 0001:000038EA
 11454 0001:000038EC 11456 0001:000038F2 11457 0001:000038F7 11479 0001:000038F8
 11490 0001:000038F9 11492 0001:00003900 11493 0001:00003902 11494 0001:00003904
 11495 0001:00003909 11497 0001:0000390B 11502 0001:0000390F 11505 0001:00003915
 11506 0001:00003916 11652 0001:00003918 11653 0001:0000391A 11654 0001:0000391C
 11655 0001:0000391E 11656 0001:00003924 11657 0001:00003927 11658 0001:00003928
 11659 0001:0000392A 11660 0001:0000392E 11661 0001:00003930 11662 0001:00003931
 11663 0001:00003934 11664 0001:00003939 11666 0001:0000393A 11687 0001:0000393C
 11688 0001:0000393D 11689 0001:0000393E 11690 0001:00003940 11693 0001:00003942
 11694 0001:00003944 11695 0001:00003946 11696 0001:00003948 11697 0001:0000394E
 11698 0001:00003951 11699 0001:00003952 11700 0001:00003954 11701 0001:00003958
 11702 0001:0000395A 11703 0001:0000395D 11705 0001:00003962 11706 0001:00003965
 11707 0001:00003966 11709 0001:00003968 11710 0001:00003969 11711 0001:0000396A
 11759 0001:0000396C 11760 0001:0000396E 11762 0001:00003970 11763 0001:00003973
 11764 0001:00003974 11766 0001:00003976 11767 0001:00003977 11768 0001:00003978
 11769 0001:0000397B 11770 0001:00003980 11771 0001:00003982 11772 0001:00003983
 11773 0001:00003984 11774 0001:00003987 11775 0001:0000398C 11776 0001:0000398D
 11777 0001:0000398E 11780 0001:00003990 11782 0001:00003994 11783 0001:00003996
 11784 0001:00003998 11785 0001:0000399A 11786 0001:0000399D 11787 0001:0000399E
 11788 0001:000039A0 11789 0001:000039A4 11790 0001:000039A6 11791 0001:000039A9
 11793 0001:000039AE 11812 0001:000039B0 11813 0001:000039B2 11817 0001:000039B4
 11818 0001:000039B7 11819 0001:000039B8 11820 0001:000039BA 11825 0001:000039BE
 11826 0001:000039C0 11827 0001:000039C2 11828 0001:000039C4 11829 0001:000039C7
 11830 0001:000039C8 11831 0001:000039CA 11832 0001:000039CE 11833 0001:000039D0
 11834 0001:000039D3 11836 0001:000039D8 11860 0001:000039DC 11861 0001:000039DE
 11862 0001:000039E0 11863 0001:000039E1 11864 0001:000039E4 11865 0001:000039E7
 11866 0001:000039E8 11867 0001:000039ED 11868 0001:000039EE 11869 0001:000039F5
 11870 0001:000039F8 11871 0001:000039F9 11872 0001:000039FC 11873 0001:00003A03
 11875 0001:00003A04 11876 0001:00003A06 11885 0001:00003A08 11886 0001:00003A09
 11887 0001:00003A0A 11889 0001:00003A0B 11890 0001:00003A0D 11891 0001:00003A0F
 11895 0001:00003A11 11897 0001:00003A13 11898 0001:00003A18 11899 0001:00003A1A
 11901 0001:00003A1C 11902 0001:00003A1E 11904 0001:00003A20 11905 0001:00003A22
 11906 0001:00003A24 11911 0001:00003A29 11912 0001:00003A2B 11913 0001:00003A30
 11915 0001:00003A32 11916 0001:00003A33 11917 0001:00003A34 11918 0001:00003A35
 12025 0001:00003A38 12043 0001:00003A3B 12046 0001:00003A53 12053 0001:00003A58
 12073 0001:00003A5B 12076 0001:00003A6F 12082 0001:00003A74 12083 0001:00003A89
 12085 0001:00003A8D 12086 0001:00003A94 12088 0001:00003A96 12090 0001:00003AA1
 12091 0001:00003AB6 12093 0001:00003ABA 12094 0001:00003AC7 12098 0001:00003AC9
 12099 0001:00003ACD 12100 0001:00003AD6 12101 0001:00003AE6 12102 0001:00003AEC
 12103 0001:00003AF5 12108 0001:00003B00 12109 0001:00003B01 12110 0001:00003B03
 12111 0001:00003B08 12112 0001:00003B0D 12113 0001:00003B0E 12128 0001:00003B10
 12129 0001:00003B12 12130 0001:00003B14 12131 0001:00003B16 12132 0001:00003B17
 12133 0001:00003B19 12134 0001:00003B1B 12135 0001:00003B1E 12136 0001:00003B20
 12137 0001:00003B23 12138 0001:00003B25 12139 0001:00003B28 12140 0001:00003B2A
 12141 0001:00003B2D 12142 0001:00003B2F 12143 0001:00003B30 12144 0001:00003B31
 12145 0001:00003B32 12146 0001:00003B34 12147 0001:00003B35 12148 0001:00003B37
 12149 0001:00003B3C 12154 0001:00003B40 12155 0001:00003B42 12156 0001:00003B44
 12157 0001:00003B46 12158 0001:00003B47 12159 0001:00003B4A 12160 0001:00003B4C
 12161 0001:00003B50 12162 0001:00003B52 12163 0001:00003B56 12164 0001:00003B58
 12165 0001:00003B5C 12166 0001:00003B5E 12167 0001:00003B61 12168 0001:00003B63
 12169 0001:00003B66 12170 0001:00003B69 12171 0001:00003B6C 12172 0001:00003B6E
 12173 0001:00003B6F 12174 0001:00003B71 12175 0001:00003B73 12176 0001:00003B78
 12181 0001:00003B7C 12182 0001:00003B7E 12183 0001:00003B80 12184 0001:00003B81
 12185 0001:00003B86 12190 0001:00003B88 12191 0001:00003B89 12192 0001:00003B8A
 12193 0001:00003B8B 12194 0001:00003B8D 12195 0001:00003B8F 12196 0001:00003B91
 12197 0001:00003B93 12198 0001:00003B95 12199 0001:00003B96 12200 0001:00003B98
 12201 0001:00003B99 12202 0001:00003B9A 12203 0001:00003B9F 12229 0001:00003BA0
 12230 0001:00003BA2 12231 0001:00003BA4 12232 0001:00003BA6 12233 0001:00003BA9
 12234 0001:00003BAB 12235 0001:00003BB0 12281 0001:00003BB4 12282 0001:00003BB6
 12283 0001:00003BB8 12285 0001:00003BBB 12294 0001:00003BBC 12295 0001:00003BBE
 12297 0001:00003BC0 12298 0001:00003BC2 12299 0001:00003BC4 12301 0001:00003BCA
 12302 0001:00003BCB 12303 0001:00003BCC 12304 0001:00003BCD 12305 0001:00003BCF
 12306 0001:00003BD1 12308 0001:00003BD4 12309 0001:00003BD7 12310 0001:00003BD9
 12311 0001:00003BDB 12313 0001:00003BDD 12314 0001:00003BE2 12315 0001:00003BE4
 12318 0001:00003BE7 12319 0001:00003BE9 12320 0001:00003BEB 12321 0001:00003BF0
 12322 0001:00003BF1 12323 0001:00003BF2 12324 0001:00003BF3 12327 0001:00003BF4
 12328 0001:00003BF9 12329 0001:00003BFB 12330 0001:00003BFD 12333 0001:00003BFF
 12342 0001:00003C00 12343 0001:00003C02 12345 0001:00003C04 12346 0001:00003C06
 12348 0001:00003C0C 12349 0001:00003C0E 12351 0001:00003C10 12352 0001:00003C12
 12354 0001:00003C14 12355 0001:00003C15 12356 0001:00003C16 12358 0001:00003C1B
 12359 0001:00003C1C 12360 0001:00003C1D 12364 0001:00003C22 12365 0001:00003C23
 12366 0001:00003C24 12368 0001:00003C25 12369 0001:00003C27 12370 0001:00003C29
 12372 0001:00003C2A 12373 0001:00003C2D 12374 0001:00003C30 12376 0001:00003C35
 12377 0001:00003C37 12378 0001:00003C39 12379 0001:00003C3B 12380 0001:00003C3E
 12382 0001:00003C43 12383 0001:00003C45 12384 0001:00003C47 12385 0001:00003C4A
 12386 0001:00003C4D 12388 0001:00003C52 12389 0001:00003C53 12390 0001:00003C55
 12391 0001:00003C57 12392 0001:00003C59 12394 0001:00003C5C 12396 0001:00003C61
 12397 0001:00003C62 12398 0001:00003C63 12400 0001:00003C64 12403 0001:00003C65
 12404 0001:00003C67 12407 0001:00003C6C 12408 0001:00003C6E 12411 0001:00003C73
 12420 0001:00003C74 12421 0001:00003C75 12422 0001:00003C76 12423 0001:00003C77
 12424 0001:00003C78 12425 0001:00003C79 12427 0001:00003C7B 12428 0001:00003C7D
 12429 0001:00003C81 12430 0001:00003C83 12431 0001:00003C85 12432 0001:00003C87
 12433 0001:00003C89 12434 0001:00003C8B 12435 0001:00003C8E 12436 0001:00003C8F
 12438 0001:00003C91 12440 0001:00003C93 12441 0001:00003C97 12442 0001:00003C99
 12443 0001:00003C9B 12444 0001:00003C9E 12445 0001:00003CA0 12446 0001:00003CA2
 12448 0001:00003CA4 12449 0001:00003CA5 12452 0001:00003CA7 12453 0001:00003CA9
 12454 0001:00003CAB 12455 0001:00003CAD 12456 0001:00003CB0 12457 0001:00003CB3
 12458 0001:00003CB8 12459 0001:00003CBB 12460 0001:00003CBD 12461 0001:00003CBF
 12462 0001:00003CC0 12465 0001:00003CC2 12466 0001:00003CC7 12467 0001:00003CC8
 12470 0001:00003CCA 12471 0001:00003CCE 12472 0001:00003CD0 12473 0001:00003CD2
 12474 0001:00003CD4 12475 0001:00003CD7 12476 0001:00003CD9 12478 0001:00003CDE
 12479 0001:00003CDF 12481 0001:00003CE1 12482 0001:00003CE2 12483 0001:00003CE3
 12484 0001:00003CE5 12486 0001:00003CE7 12487 0001:00003CE9 12488 0001:00003CEB
 12490 0001:00003CEE 12493 0001:00003CF3 12494 0001:00003CF4 12495 0001:00003CF5
 12496 0001:00003CF6 12497 0001:00003CF7 12498 0001:00003CF8 12499 0001:00003CFB
 12500 0001:00003CFD 12508 0001:00003D00 12509 0001:00003D01 12510 0001:00003D02
 12512 0001:00003D03 12513 0001:00003D05 12515 0001:00003D07 12516 0001:00003D09
 12518 0001:00003D0F 12519 0001:00003D11 12521 0001:00003D13 12522 0001:00003D15
 12524 0001:00003D17 12525 0001:00003D1A 12527 0001:00003D1D 12528 0001:00003D1F
 12529 0001:00003D21 12532 0001:00003D23 12533 0001:00003D24 12534 0001:00003D27
 12536 0001:00003D29 12537 0001:00003D2B 12538 0001:00003D2D 12539 0001:00003D2F
 12540 0001:00003D31 12541 0001:00003D32 12542 0001:00003D34 12543 0001:00003D37
 12544 0001:00003D3A 12545 0001:00003D3C 12546 0001:00003D3E 12547 0001:00003D41
 12548 0001:00003D44 12549 0001:00003D45 12550 0001:00003D47 12552 0001:00003D49
 12553 0001:00003D4C 12555 0001:00003D4F 12556 0001:00003D50 12557 0001:00003D53
 12559 0001:00003D55 12560 0001:00003D57 12561 0001:00003D59 12562 0001:00003D5B
 12563 0001:00003D5D 12564 0001:00003D5E 12565 0001:00003D60 12566 0001:00003D62
 12567 0001:00003D64 12568 0001:00003D65 12569 0001:00003D67 12570 0001:00003D6D
 12571 0001:00003D73 12572 0001:00003D75 12575 0001:00003D77 12576 0001:00003D79
 12579 0001:00003D7B 12580 0001:00003D7E 12581 0001:00003D80 12584 0001:00003D82
 12585 0001:00003D85 12586 0001:00003D87 12589 0001:00003D89 12590 0001:00003D8A
 12591 0001:00003D8C 12592 0001:00003D8E 12593 0001:00003D90 12594 0001:00003D92
 12595 0001:00003D95 12596 0001:00003D98 12597 0001:00003D9A 12598 0001:00003D9C
 12601 0001:00003D9E 12602 0001:00003D9F 12603 0001:00003DA0 12605 0001:00003DA1
 12621 0001:00003DA4 12622 0001:00003DA6 12623 0001:00003DA8 12624 0001:00003DAB
 12625 0001:00003DAC 12626 0001:00003DAE 12628 0001:00003DB2 12651 0001:00003DB4
 12652 0001:00003DB6 12653 0001:00003DB8 12659 0001:00003DB9 12661 0001:00003DBA
 12663 0001:00003DBF 12670 0001:00003DC0 12671 0001:00003DC2 12672 0001:00003DC4
 12673 0001:00003DC6 12674 0001:00003DC9 12675 0001:00003DCA 12677 0001:00003DCC
 12678 0001:00003DCD 12679 0001:00003DCF 12680 0001:00003DD2 12681 0001:00003DD7
 12682 0001:00003DD9 12683 0001:00003DDB 12684 0001:00003DDD 12685 0001:00003DDE
 12686 0001:00003DE1 12687 0001:00003DE6 12688 0001:00003DE7 12689 0001:00003DEA
 12690 0001:00003DEB 12691 0001:00003DED 12692 0001:00003DF1 12693 0001:00003DF3
 12694 0001:00003DF6 12696 0001:00003DFB 12697 0001:00003DFD 12699 0001:00003DFE
 12700 0001:00003E00 12705 0001:00003E04 12706 0001:00003E09 12710 0001:00003E0C
 12711 0001:00003E11 12740 0001:00003E14 12742 0001:00003E15 12743 0001:00003E17
 12745 0001:00003E19 12746 0001:00003E1C 12747 0001:00003E1E 12751 0001:00003E20
 12752 0001:00003E21 12753 0001:00003E23 12754 0001:00003E25 12760 0001:00003E27
 12761 0001:00003E29 12762 0001:00003E2B 12763 0001:00003E2D 12764 0001:00003E2F
 12768 0001:00003E31 12769 0001:00003E33 12770 0001:00003E37 12771 0001:00003E3C
 12774 0001:00003E3E 12775 0001:00003E40 12777 0001:00003E42 12778 0001:00003E44
 12782 0001:00003E46 12783 0001:00003E4A 12785 0001:00003E4F 12786 0001:00003E50
 12787 0001:00003E53 12796 0001:00003E54 12797 0001:00003E55 12798 0001:00003E56
 12800 0001:00003E57 12801 0001:00003E59 12802 0001:00003E5B 12804 0001:00003E5D
 12806 0001:00003E62 12807 0001:00003E64 12808 0001:00003E66 12810 0001:00003E68
 12814 0001:00003E6B 12815 0001:00003E6C 12816 0001:00003E6E 12817 0001:00003E70
 12821 0001:00003E72 12822 0001:00003E74 12823 0001:00003E76 12824 0001:00003E78
 12825 0001:00003E7A 12826 0001:00003E7C 12831 0001:00003E7E 12832 0001:00003E80
 12833 0001:00003E82 12834 0001:00003E85 12838 0001:00003E8A 12839 0001:00003E8C
 12840 0001:00003E8E 12841 0001:00003E91 12842 0001:00003E93 12845 0001:00003E98
 12846 0001:00003E99 12847 0001:00003E9A 12848 0001:00003E9B 12934 0001:00003E9C
 12935 0001:00003E9E 12937 0001:00003EA0 12938 0001:00003EA2 12940 0001:00003EA4
 12941 0001:00003EA5 12942 0001:00003EA6 12944 0001:00003EA7 12945 0001:00003EA9
 12947 0001:00003EAB 12949 0001:00003EAE 12951 0001:00003EAF 12953 0001:00003EB2
 12954 0001:00003EB3 12955 0001:00003EB5 12956 0001:00003EB7 12958 0001:00003EB8
 12960 0001:00003EBA 12962 0001:00003EBC 12963 0001:00003EBE 12964 0001:00003EC0
 12965 0001:00003EC2 12966 0001:00003EC3 12968 0001:00003EC4 12969 0001:00003EC6
 12970 0001:00003EC8 12971 0001:00003EC9 12972 0001:00003ECA 12973 0001:00003ECC
 12974 0001:00003ECE 12977 0001:00003ED0 12978 0001:00003ED1 12979 0001:00003ED3
 12982 0001:00003ED5 12983 0001:00003ED7 12986 0001:00003ED8 12987 0001:00003ED9
 12988 0001:00003EDB 12990 0001:00003EDD 12991 0001:00003EDE 12992 0001:00003EDF
 12994 0001:00003EE0 13002 0001:00003EE4 13003 0001:00003EE5 13004 0001:00003EE6
 13005 0001:00003EE7 13006 0001:00003EE9 13007 0001:00003EEB 13009 0001:00003EED
 13010 0001:00003EEF 13012 0001:00003EF1 13013 0001:00003EF3 13014 0001:00003EF5
 13016 0001:00003EF7 13017 0001:00003EFB 13019 0001:00003EFD 13020 0001:00003F00
 13021 0001:00003F03 13022 0001:00003F04 13023 0001:00003F06 13024 0001:00003F0B
 13025 0001:00003F0C 13026 0001:00003F0F 13027 0001:00003F11 13028 0001:00003F14
 13029 0001:00003F18 13032 0001:00003F1A 13033 0001:00003F1C 13034 0001:00003F21
 13036 0001:00003F23 13037 0001:00003F25 13038 0001:00003F27 13040 0001:00003F29
 13041 0001:00003F2B 13042 0001:00003F2E 13043 0001:00003F30 13044 0001:00003F32
 13047 0001:00003F34 13050 0001:00003F39 13051 0001:00003F3B 13052 0001:00003F40
 13055 0001:00003F42 13056 0001:00003F43 13057 0001:00003F44 13058 0001:00003F45
 13100 0001:00003F48 13101 0001:00003F4F 13102 0001:00003F60 13120 0001:00003F64
 13122 0001:00003F65 13124 0001:00003F67 13125 0001:00003F69 13126 0001:00003F6B
 13127 0001:00003F6D 13128 0001:00003F6F 13129 0001:00003F72 13131 0001:00003F74
 13132 0001:00003F75 13133 0001:00003F7A 13135 0001:00003F7B 13136 0001:00003F7D
 13137 0001:00003F7E 13138 0001:00003F83 13212 0001:00003F84 13213 0001:00003F86
 13214 0001:00003F8B 13225 0001:00003F8C 13226 0001:00003F8E 13227 0001:00003F90
 13228 0001:00003F91 13229 0001:00003F93 13230 0001:00003F98 13231 0001:00003F9A
 13233 0001:00003FA0 13257 0001:00003FA4 13258 0001:00003FA6 13259 0001:00003FA8
 13260 0001:00003FAA 13261 0001:00003FAB 13264 0001:00003FB0 13278 0001:00003FB4
 13279 0001:00003FB6 13280 0001:00003FB8 13281 0001:00003FBA 13282 0001:00003FC0
 13283 0001:00003FC1 13284 0001:00003FC2 13285 0001:00003FC7 13287 0001:00003FC8
 13299 0001:00003FCC 13300 0001:00003FCD 13301 0001:00003FCE 13302 0001:00003FD0
 13303 0001:00003FD2 13304 0001:00003FD4 13305 0001:00003FD6 13306 0001:00003FD8
 13307 0001:00003FDE 13308 0001:00003FDF 13309 0001:00003FE4 13310 0001:00003FE7
 13311 0001:00003FE8 13312 0001:00003FEA 13313 0001:00003FEB 13314 0001:00003FEC
 13328 0001:00003FF0 13329 0001:00003FF2 13330 0001:00003FF8 13331 0001:00003FFB
 13332 0001:00003FFD 13333 0001:00004003 13334 0001:00004004 13335 0001:00004005
 13336 0001:00004006 13337 0001:0000400B 13338 0001:0000400D 13339 0001:00004013
 13358 0001:00004014 13359 0001:00004029 13361 0001:0000402D 13362 0001:00004034
 13364 0001:00004036 13366 0001:00004041 13367 0001:00004056 13369 0001:0000405A
 13370 0001:00004067 13374 0001:00004069 13375 0001:0000406B 13376 0001:00004074
 13377 0001:00004084 13378 0001:0000408A 13379 0001:00004093 13403 0001:000040A0
 13404 0001:000040A2 13406 0001:000040A8 13408 0001:000040A9 13409 0001:000040AA
 13410 0001:000040AB 13411 0001:000040B0 13412 0001:000040B2 13414 0001:000040B8
 13415 0001:000040B9 13416 0001:000040BB 13418 0001:000040BD 13419 0001:000040C2
 13477 0001:000040C4 13478 0001:000040C6 13479 0001:000040C8 13480 0001:000040CA
 13481 0001:000040CB 13482 0001:000040CE 13483 0001:000040D0 13484 0001:000040D4
 13485 0001:000040D6 13486 0001:000040DA 13487 0001:000040DC 13488 0001:000040E0
 13489 0001:000040E2 13490 0001:000040E5 13491 0001:000040E7 13492 0001:000040EA
 13493 0001:000040ED 13494 0001:000040F0 13495 0001:000040F2 13496 0001:000040F3
 13497 0001:000040F5 13498 0001:000040F7 13499 0001:000040FC 13549 0001:00004100
 13550 0001:00004102 13551 0001:00004104 13552 0001:00004106 13553 0001:00004109
 13554 0001:0000410E 13591 0001:00004110 13592 0001:00004112 13593 0001:00004114
 13597 0001:00004115 13598 0001:00004116 13599 0001:00004118 13601 0001:0000411D
 13616 0001:00004120 13617 0001:00004122 13618 0001:00004124 13619 0001:00004127
 13621 0001:00004129 13715 0001:0000412C 13716 0001:0000412D 13717 0001:0000412E
 13719 0001:0000412F 13720 0001:00004131 13722 0001:00004133 13723 0001:00004135
 13725 0001:00004137 13726 0001:00004139 13728 0001:0000413B 13729 0001:0000413D
 13731 0001:0000413F 13732 0001:00004142 13734 0001:00004145 13735 0001:00004147
 13736 0001:00004149 13739 0001:0000414B 13740 0001:0000414C 13741 0001:0000414F
 13743 0001:00004151 13744 0001:00004153 13745 0001:00004155 13746 0001:00004157
 13747 0001:00004159 13748 0001:0000415A 13749 0001:0000415C 13750 0001:0000415F
 13751 0001:00004162 13752 0001:00004164 13753 0001:00004166 13754 0001:00004169
 13755 0001:0000416C 13756 0001:0000416D 13757 0001:0000416F 13759 0001:00004171
 13760 0001:00004174 13762 0001:00004177 13763 0001:00004178 13764 0001:0000417B
 13766 0001:0000417D 13767 0001:00004180 13768 0001:00004183 13769 0001:00004186
 13772 0001:00004188 13773 0001:0000418A 13776 0001:0000418C 13777 0001:0000418F
 13778 0001:00004191 13781 0001:00004193 13782 0001:00004196 13783 0001:00004198
 13786 0001:0000419A 13787 0001:0000419B 13788 0001:0000419E 13789 0001:000041A0
 13790 0001:000041A3 13791 0001:000041A6 13794 0001:000041A9 13795 0001:000041AA
 13796 0001:000041AB 13797 0001:000041AC 13803 0001:000041B0 13804 0001:000041BC
 13805 0001:000041C3 13807 0001:000041CC 13808 0001:000041CD 13810 0001:000041D3
 13812 0001:000041DB 13813 0001:000041DD 13815 0001:000041E3 13816 0001:000041F2
 13945 0001:000041FC 13946 0001:00004203 13947 0001:00004208 13949 0001:0000420C
 13950 0001:00004216 13951 0001:0000421D 13953 0001:00004221 13954 0001:00004227
 13957 0001:00004235 13958 0001:0000423F 14045 0001:00004244 14047 0001:00004246
 14048 0001:00004247 14050 0001:0000424A 14051 0001:0000424B 14053 0001:0000424C
 14054 0001:0000424E 14055 0001:00004252 14059 0001:00004256 14060 0001:00004258
 14061 0001:0000425B 14062 0001:0000425D 14063 0001:0000425F 14064 0001:00004264
 14065 0001:00004269 14066 0001:0000426C 14067 0001:0000426D 14069 0001:0000426F
 14070 0001:00004270 14071 0001:00004271 14072 0001:00004272 14139 0001:00004274
 14140 0001:00004276 14142 0001:0000427C 14143 0001:0000427D 14144 0001:0000427E
 14145 0001:0000427F 14146 0001:00004281 14147 0001:00004283 14149 0001:00004285
 14150 0001:00004287 14151 0001:00004289 14152 0001:0000428C 14154 0001:0000428E
 14155 0001:00004290 14156 0001:00004292 14157 0001:00004294 14158 0001:00004296
 14159 0001:00004298 14160 0001:0000429A 14161 0001:0000429C 14162 0001:0000429E
 14163 0001:000042A0 14164 0001:000042A2 14165 0001:000042A4 14166 0001:000042A6
 14167 0001:000042A8 14168 0001:000042AA 14169 0001:000042AC 14170 0001:000042AD
 14171 0001:000042AE 14172 0001:000042AF 14178 0001:000042B4 14179 0001:000042B6
 14180 0001:000042B9 14181 0001:000042BA 14182 0001:000042BC 14185 0001:000042BE
 14186 0001:000042C0 14187 0001:000042C3 14188 0001:000042C6 14189 0001:000042C9
 14190 0001:000042CC 14191 0001:000042CD 14192 0001:000042CF 14195 0001:000042D1
 14196 0001:000042D2 14198 0001:000042D4 14199 0001:000042D8 14200 0001:000042DA
 14201 0001:000042DE 14202 0001:000042E2 14203 0001:000042E4 14204 0001:000042E9
 14205 0001:000042EA 14206 0001:000042EC 14207 0001:000042ED 14210 0001:000042EF
 14211 0001:000042F0 14213 0001:000042F2 14214 0001:000042F4 14215 0001:000042F8
 14216 0001:000042FA 14217 0001:000042FF 14218 0001:00004300 14219 0001:00004302
 14223 0001:00004303 14224 0001:00004304 14225 0001:00004305 14227 0001:00004306
 14257 0001:00004308 14259 0001:0000430A 14260 0001:0000430B 14262 0001:0000430E
 14263 0001:0000430F 14265 0001:00004310 14266 0001:00004312 14267 0001:00004316
 14271 0001:0000431A 14272 0001:0000431C 14273 0001:0000431F 14274 0001:00004321
 14275 0001:00004323 14276 0001:00004328 14277 0001:0000432D 14278 0001:00004330
 14279 0001:00004331 14281 0001:00004333 14283 0001:00004335 14284 0001:00004336
 14285 0001:00004337 14286 0001:00004338 14291 0001:0000433C 14292 0001:00004345
 14294 0001:0000434C 14295 0001:00004353 14362 0001:00004354 14363 0001:00004357
 14365 0001:0000435D 14366 0001:0000435E 14367 0001:0000435F 14368 0001:00004360
 14369 0001:00004361 14370 0001:00004363 14371 0001:00004365 14373 0001:00004367
 14374 0001:00004369 14375 0001:0000436B 14377 0001:0000436E 14378 0001:00004370
 14380 0001:00004372 14381 0001:00004374 14383 0001:00004376 14384 0001:00004378
 14386 0001:0000437A 14387 0001:0000437C 14389 0001:0000437E 14390 0001:00004380
 14392 0001:00004382 14393 0001:00004384 14395 0001:0000438A 14396 0001:0000438C
 14398 0001:00004392 14401 0001:00004397 14402 0001:0000439A 14403 0001:0000439C
 14404 0001:0000439E 14405 0001:000043A3 14407 0001:000043A8 14408 0001:000043AA
 14409 0001:000043AF 14412 0001:000043B4 14413 0001:000043B7 14414 0001:000043B9
 14415 0001:000043BB 14416 0001:000043C0 14418 0001:000043C2 14419 0001:000043C4
 14420 0001:000043C9 14422 0001:000043CB 14423 0001:000043CD 14424 0001:000043D0
 14425 0001:000043D5 14426 0001:000043D6 14427 0001:000043D8 14429 0001:000043DA
 14430 0001:000043DB 14432 0001:000043DD 14433 0001:000043E1 14434 0001:000043E3
 14435 0001:000043E7 14436 0001:000043EB 14437 0001:000043ED 14438 0001:000043F2
 14439 0001:000043F3 14440 0001:000043F5 14441 0001:000043F6 14444 0001:000043F8
 14445 0001:000043F9 14449 0001:000043FB 14450 0001:000043FD 14451 0001:00004401
 14452 0001:00004403 14453 0001:00004408 14454 0001:00004409 14455 0001:0000440B
 14456 0001:0000440C 14459 0001:0000440E 14460 0001:00004410 14461 0001:00004413
 14462 0001:00004418 14463 0001:00004419 14464 0001:0000441B 14467 0001:0000441D
 14468 0001:0000441F 14469 0001:00004421 14470 0001:00004424 14471 0001:00004429
 14472 0001:0000442A 14473 0001:0000442C 14476 0001:0000442E 14477 0001:0000442F
 14478 0001:00004430 14479 0001:00004431 14480 0001:00004432 14481 0001:00004434
 14484 0001:00004439 14485 0001:0000443A 14486 0001:0000443B 14487 0001:0000443C
 14489 0001:0000443D 14499 0001:00004440 14500 0001:00004445 14501 0001:0000444A
 14678 0001:0000444C 14679 0001:00004455 14681 0001:0000445C 14682 0001:00004463
 14690 0001:00004464 14691 0001:00004465 14692 0001:00004466 14693 0001:00004467
 14695 0001:00004468 14696 0001:0000446A 14698 0001:0000446C 14699 0001:0000446E
 14701 0001:00004471 14702 0001:00004475 14703 0001:00004478 14704 0001:0000447A
 14705 0001:0000447D 14707 0001:0000447E 14708 0001:00004481 14709 0001:00004483
 14710 0001:00004485 14711 0001:00004487 14712 0001:00004489 14713 0001:0000448B
 14715 0001:00004490 14717 0001:00004493 14718 0001:00004495 14719 0001:00004497
 14721 0001:00004499 14722 0001:0000449C 14723 0001:0000449E 14724 0001:000044A1
 14725 0001:000044A3 14726 0001:000044A6 14727 0001:000044A8 14728 0001:000044AB
 14729 0001:000044AD 14730 0001:000044B0 14731 0001:000044B2 14732 0001:000044B5
 14733 0001:000044BB 14734 0001:000044BE 14735 0001:000044C4 14736 0001:000044C6
 14737 0001:000044C7 14738 0001:000044C8 14739 0001:000044C9 14740 0001:000044CA
 14743 0001:000044CF 14744 0001:000044D2 14745 0001:000044D4 14746 0001:000044D9
 14747 0001:000044DE 14750 0001:000044E0 14751 0001:000044E3 14752 0001:000044E5
 14753 0001:000044EA 14754 0001:000044EF 14757 0001:000044F1 14758 0001:000044F4
 14759 0001:000044F6 14760 0001:000044FB 14761 0001:00004500 14764 0001:00004502
 14765 0001:00004504 14766 0001:00004507 14767 0001:0000450B 14768 0001:0000450F
 14769 0001:00004513 14770 0001:00004515 14771 0001:00004518 14772 0001:0000451A
 14773 0001:0000451F 14774 0001:00004520 14777 0001:00004522 14778 0001:00004524
 14779 0001:00004527 14780 0001:0000452B 14781 0001:0000452C 14782 0001:0000452E
 14783 0001:00004531 14784 0001:00004533 14785 0001:00004538 14786 0001:00004539
 14789 0001:0000453B 14790 0001:0000453E 14791 0001:00004540 14792 0001:00004545
 14793 0001:0000454A 14796 0001:0000454C 14797 0001:0000454E 14798 0001:00004551
 14799 0001:00004553 14800 0001:00004558 14803 0001:0000455D 14804 0001:00004560
 14805 0001:00004563 14806 0001:00004564 14808 0001:0000456A 14809 0001:0000456B
 14810 0001:0000456D 14811 0001:0000456F 14812 0001:00004572 14813 0001:00004574
 14816 0001:00004579 14817 0001:0000457A 14818 0001:0000457B 14819 0001:0000457C
 14820 0001:0000457D 14847 0001:00004580 14848 0001:00004581 14849 0001:00004582
 14850 0001:00004583 14852 0001:00004584 14853 0001:00004586 14854 0001:00004588
 14855 0001:0000458A 14857 0001:0000458E 14859 0001:00004590 14860 0001:00004593
 14861 0001:00004595 14862 0001:00004598 14863 0001:0000459A 14864 0001:0000459D
 14865 0001:0000459F 14866 0001:000045A2 14867 0001:000045A4 14868 0001:000045A7
 14869 0001:000045A9 14870 0001:000045AC 14871 0001:000045B2 14872 0001:000045B5
 14873 0001:000045BB 14874 0001:000045BD 14875 0001:000045BE 14876 0001:000045BF
 14877 0001:000045C0 14878 0001:000045C1 14881 0001:000045C6 14882 0001:000045C8
 14883 0001:000045CA 14884 0001:000045CF 14885 0001:000045D2 14886 0001:000045D5
 14887 0001:000045D6 14888 0001:000045D8 14891 0001:000045DD 14892 0001:000045DF
 14893 0001:000045E1 14894 0001:000045E6 14895 0001:000045E9 14896 0001:000045EC
 14897 0001:000045ED 14898 0001:000045EF 14901 0001:000045F1 14902 0001:000045F3
 14903 0001:000045F5 14904 0001:000045FA 14905 0001:000045FD 14906 0001:00004600
 14907 0001:00004601 14908 0001:00004603 14911 0001:00004605 14912 0001:00004607
 14913 0001:0000460A 14915 0001:0000460E 14916 0001:00004610 14917 0001:00004612
 14918 0001:00004615 14919 0001:00004618 14920 0001:0000461D 14921 0001:0000461F
 14922 0001:00004621 14923 0001:00004622 14924 0001:00004624 14927 0001:00004626
 14928 0001:00004628 14929 0001:0000462A 14930 0001:0000462C 14931 0001:00004631
 14932 0001:00004633 14933 0001:00004636 14934 0001:0000463A 14935 0001:0000463E
 14936 0001:0000463F 14937 0001:00004641 14940 0001:00004643 14941 0001:00004645
 14942 0001:00004647 14943 0001:0000464C 14944 0001:0000464F 14945 0001:00004652
 14946 0001:00004653 14947 0001:00004655 14950 0001:00004657 14951 0001:00004659
 14952 0001:0000465B 14953 0001:0000465D 14954 0001:00004662 14955 0001:00004665
 14956 0001:00004668 14957 0001:00004669 14960 0001:0000466B 14961 0001:0000466C
 14962 0001:0000466D 14963 0001:0000466E 14964 0001:0000466F 14965 0001:00004672
 15098 0001:00004674 15099 0001:00004676 15100 0001:0000467B 15119 0001:0000467C
 15120 0001:0000467D 15125 0001:0000467E 15126 0001:00004682 15127 0001:00004685
 15129 0001:00004687 15130 0001:0000468B 15131 0001:0000468F 15133 0001:00004691
 15134 0001:00004694 15135 0001:00004698 15137 0001:0000469A 15138 0001:0000469B
 15140 0001:0000469C 15141 0001:0000469F 15983 0001:000046A0 15984 0001:000046A2
 15985 0001:000046A4 15987 0001:000046A7 15994 0001:000046A8 15995 0001:000046AD
 15996 0001:000046AE 15999 0001:000046B0 16000 0001:000046B3 16001 0001:000046B6
 16002 0001:000046BB 16006 0001:000046C0 16007 0001:000046C5 16011 0001:000046C8
 16012 0001:000046CD 16021 0001:000046D0 16022 0001:000046E2 16025 0001:000046EA
 16026 0001:000046EF 16028 0001:000046F3 16029 0001:000046F7 16030 0001:000046FE
 16031 0001:00004709 16034 0001:0000470E 16035 0001:00004710 16037 0001:00004716
 16038 0001:0000471A 16039 0001:0000471F 16043 0001:00004723 16044 0001:0000472D
 16045 0001:00004733 16046 0001:0000473A 16048 0001:00004741 16049 0001:00004746
 16050 0001:0000474D 16051 0001:00004757 16052 0001:0000475E 16055 0001:00004762
 16057 0001:00004770 16058 0001:00004776 16059 0001:00004780 16060 0001:00004799
 16061 0001:000047A4 16065 0001:000047AC 16066 0001:000047B1 16067 0001:000047BC
 16068 0001:000047BF 16069 0001:000047C4 16070 0001:000047C7 16072 0001:000047CD
 16073 0001:000047E0 16076 0001:000047F9 16080 0001:0000480F 16081 0001:00004818
 16082 0001:0000481C 16083 0001:00004821 16086 0001:00004825 16089 0001:0000483B
 16091 0001:00004841 16092 0001:00004845 16093 0001:00004848 16094 0001:00004850
 16093 0001:00004866 16096 0001:00004869 16097 0001:00004871 16106 0001:0000487C
 16107 0001:0000487D 16108 0001:00004881 16109 0001:00004886 16189 0001:00004888
 16190 0001:0000488A 16191 0001:0000488C 16194 0001:0000488E 16197 0001:00004894
 16198 0001:00004898 16201 0001:0000489A 16202 0001:0000489B 16205 0001:0000489D
 16206 0001:0000489F 16207 0001:000048A2 16210 0001:000048A6 16211 0001:000048A8
 16212 0001:000048AA 16213 0001:000048AD 16214 0001:000048AF 16215 0001:000048B1
 16216 0001:000048B3 16219 0001:000048B8 16220 0001:000048BB 16221 0001:000048C0
 16223 0001:000048C1 16232 0001:000048C4 16233 0001:000048C5 16237 0001:000048C7
 16238 0001:000048C9 16239 0001:000048CB 16242 0001:000048CF 16243 0001:000048D1
 16244 0001:000048D3 16245 0001:000048D7 16246 0001:000048D9 16247 0001:000048DA
 16248 0001:000048DB 16249 0001:000048DD 16250 0001:000048E0 16251 0001:000048E5
 16252 0001:000048E6 16255 0001:000048E7 16257 0001:000048E9 16258 0001:000048EA
 16485 0001:000048EC 16486 0001:000048EF 16487 0001:000048FC 16488 0001:00004906
 16490 0001:0000490C 16491 0001:0000490E 16662 0001:00004914 16663 0001:0000491E
 16665 0001:00004924 16666 0001:00004937 16667 0001:00004945 16668 0001:00004949
 16670 0001:0000494F 16671 0001:00004952 16676 0001:0000495C 16677 0001:00004964
 16678 0001:0000496B 16680 0001:00004970 16684 0001:00004985 16685 0001:0000498E
 16687 0001:00004990 16678 0001:00004996 16689 0001:0000499B 16690 0001:0000499F
 16765 0001:000049A4 16766 0001:000049AD 16768 0001:000049B1 16767 0001:000049BB
 16769 0001:000049CA 16779 0001:000049D0 16780 0001:000049E2 16781 0001:000049E8
 16782 0001:000049F4 16784 0001:000049F8 16785 0001:00004A06 16788 0001:00004A23
 16789 0001:00004A37 16793 0001:00004A3C 16795 0001:00004A44 16796 0001:00004A51
 16797 0001:00004A5F 16798 0001:00004A6B 16799 0001:00004A77 16801 0001:00004A85
 16803 0001:00004A8E 16804 0001:00004A94 16807 0001:00004AAD 16808 0001:00004AB9
 16809 0001:00004ACF 16811 0001:00004AE3 16812 0001:00004AF8 16813 0001:00004AFD
 16815 0001:00004B03 16816 0001:00004B1C 16817 0001:00004B24 16818 0001:00004B43
 16819 0001:00004B52 16805 0001:00004B58 16821 0001:00004B64 16822 0001:00004B7B
 16823 0001:00004BA8 16824 0001:00004BB5 16825 0001:00004BC8 16826 0001:00004BCC
 16829 0001:00004C2A 16830 0001:00004C38 16831 0001:00004C3F 16832 0001:00004C4F
 16833 0001:00004C6F 16834 0001:00004C8D 16835 0001:00004C91 16837 0001:00004CA2
 16839 0001:00004CB3 16840 0001:00004CC8 16841 0001:00004CDB 16842 0001:00004CDD
 16844 0001:00004CFA 16845 0001:00004D13 16846 0001:00004D29 16848 0001:00004D38
 16850 0001:00004D3B 16852 0001:00004D41 16853 0001:00004D5B 16855 0001:00004D6D
 16858 0001:00004D77 16859 0001:00004D97 16860 0001:00004DA9 16863 0001:00004DAD
 16864 0001:00004DB1 16865 0001:00004DD1 16870 0001:00004DE5 16909 0001:00004E2C
 16910 0001:00004E31 16914 0001:00004E34 16915 0001:00004E39 16920 0001:00004E3C
 16921 0001:00004E3F 16922 0001:00004E49 16923 0001:00004E51 16924 0001:00004E54
 16925 0001:00004E59 16930 0001:00004E5C 16931 0001:00004E68 16932 0001:00004E70
 16934 0001:00004E80 16935 0001:00004E8C 16938 0001:00004E9B 16939 0001:00004EA0
 16941 0001:00004EA5 16943 0001:00004EB4 16944 0001:00004EB7 16945 0001:00004EC1
 16946 0001:00004ECE 16948 0001:00004ED0 16939 0001:00004ED6 16951 0001:00004EDB
 16956 0001:00004EE4 16957 0001:00004EF0 16958 0001:00004EF8 16960 0001:00004EFE
 16961 0001:00004F0C 16964 0001:00004F24 16965 0001:00004F29 16958 0001:00004F31
 16970 0001:00004F37 16974 0001:00004F40 16975 0001:00004F48 16976 0001:00004F4D
 16981 0001:00004F50 16982 0001:00004F59 16983 0001:00004F67 16985 0001:00004F7F
 16986 0001:00004F8A 16989 0001:00004F96 16990 0001:00004F9E 16992 0001:00004FA4
 16994 0001:00004FAE 16995 0001:00004FB8 16997 0001:00004FBA 16990 0001:00004FC2
 17001 0001:00004FD0 17018 0001:00004FD4 17019 0001:00004FD6 17020 0001:00004FD8
 17021 0001:00004FDA 17022 0001:00004FE0 17023 0001:00004FE1 17024 0001:00004FE2
 17025 0001:00004FE4 17026 0001:00004FE7 17028 0001:00004FE8 17061 0001:00004FEC
 17062 0001:00004FEE 17063 0001:00004FF0 17064 0001:00004FF1 17065 0001:00004FF2
 17066 0001:00004FF4 17067 0001:00004FF5 17068 0001:00004FF8 17069 0001:00004FF9
 17070 0001:00004FFB 17071 0001:00004FFD 17072 0001:00004FFF 17073 0001:00005001
 17075 0001:00005002 17076 0001:00005004 17077 0001:00005005 17078 0001:00005008
 17082 0001:00005009 17083 0001:0000500B 17084 0001:0000500D 17085 0001:0000500F
 17086 0001:00005011 17087 0001:00005013 17088 0001:00005014 17090 0001:00005017
 17140 0001:00005018 17141 0001:00005022 17146 0001:00005024 17147 0001:0000502D
 17151 0001:00005030 17152 0001:00005036 17153 0001:0000503D 17159 0001:00005040
 17160 0001:00005045 17161 0001:0000504C 17164 0001:00005050 17165 0001:00005057
 17166 0001:00005068 17168 0001:0000506C 17169 0001:00005071 17172 0001:00005078
 17173 0001:0000507E 17174 0001:00005087 17177 0001:0000508C 17178 0001:00005094
 17179 0001:0000509F 17180 0001:000050A3 17181 0001:000050AE 17320 0001:000050B4
 17321 0001:000050C2 17322 0001:000050C4 17323 0001:000050CE 17324 0001:000050D0
 17325 0001:000050D2 17329 0001:000050DC 17330 0001:000050E3 17331 0001:000050E4
 17333 0001:000050E9 17334 0001:000050EC 17336 0001:000050EF 17338 0001:000050F7
 17340 0001:000050FF 17341 0001:0000510A 17342 0001:00005119 17343 0001:00005123
 17347 0001:00005128 17349 0001:00005130 17350 0001:0000513B 17351 0001:00005145
 17327 0001:00005148 17354 0001:00005152 17355 0001:0000515B 17359 0001:00005161
 17361 0001:00005166 17362 0001:0000516D 17363 0001:0000516E 17365 0001:00005173
 17366 0001:0000517B 17367 0001:0000517C 17369 0001:0000517D 17359 0001:0000517E
 17372 0001:00005183 17373 0001:00005188 17391 0001:00005190 17392 0001:000051A1
 17394 0001:000051A7 17395 0001:000051AC 17397 0001:000051B1 17398 0001:000051B8
 17399 0001:000051BA 17400 0001:000051BC 17404 0001:000051CB 17405 0001:000051D3
 17406 0001:000051D4 17408 0001:000051D9 17409 0001:000051E2 17410 0001:000051E5
 17412 0001:000051EA 17413 0001:000051F0 17414 0001:000051F1 17415 0001:000051FF
 17416 0001:00005208 17418 0001:00005218 17419 0001:0000521E 17420 0001:0000521F
 17422 0001:0000522D 17425 0001:00005245 17426 0001:0000524C 17402 0001:0000524D
 17428 0001:0000525B 17429 0001:00005264 17433 0001:0000526F 17435 0001:00005274
 17436 0001:0000527A 17437 0001:0000527B 17439 0001:00005280 17440 0001:00005285
 17441 0001:00005288 17443 0001:0000528D 17444 0001:00005293 17445 0001:00005294
 17446 0001:0000529C 17448 0001:000052A1 17449 0001:000052A7 17450 0001:000052A8
 17452 0001:000052B0 17433 0001:000052B1 17455 0001:000052B6 17456 0001:000052BD
 17462 0001:000052C8 17463 0001:000052E1 17464 0001:000052E8 17465 0001:000052F3
 17467 0001:00005305 17468 0001:0000532E 17469 0001:00005332 17471 0001:0000533F
 17472 0001:00005347 17473 0001:0000536E 17479 0001:00005374 17480 0001:0000538D
 17481 0001:00005394 17482 0001:00005398 17484 0001:000053A9 17485 0001:000053D2
 17486 0001:000053D6 17488 0001:000053E3 17489 0001:000053EB 17490 0001:00005412
 17493 0001:00005418 17494 0001:00005431 17495 0001:00005462 17768 0001:00005468
 17769 0001:00005475 17770 0001:00005479 17771 0001:00005482 17775 0001:000054AC
 17776 0001:000054B6 17890 0001:000054C0 17891 0001:000054DA 17892 0001:000054EB
 17893 0001:00005508 17894 0001:0000550E 17895 0001:0000552F 17957 0001:00005534
 17958 0001:00005557 17959 0001:00005561 17964 0001:0000556B 17966 0001:00005585
 17906 0001:00005588 17911 0001:00005595 17913 0001:0000559C 17914 0001:000055A6
 17923 0001:000055B0 17926 0001:000055B7 17929 0001:000055C1 17931 0001:000055CF
 17933 0001:000055D4 17934 0001:000055DD 17935 0001:000055E6 17938 0001:000055EF
 17939 0001:000055F9 17942 0001:00005603 17944 0001:00005614 17945 0001:00005624
 17948 0001:00005630 17952 0001:00005641 17954 0001:00005650 17956 0001:0000565A

Line numbers for SysInit(SysInit.pas) segment .text

   102 0001:0000565C   105 0001:00005664   108 0001:0000566C   111 0001:00005674
   114 0001:0000567C   117 0001:00005684   128 0001:0000568C   129 0001:00005694
   285 0001:00005698   286 0001:0000569D   293 0001:000056A0   294 0001:000056A1
   295 0001:000056A8   299 0001:000056AC   300 0001:000056BF   301 0001:000056C6
   302 0001:000056CA   304 0001:000056D6   305 0001:000056E2   310 0001:000056E4
   312 0001:000056ED   313 0001:000056F7   314 0001:000056FC   315 0001:0000570C
   321 0001:00005710   323 0001:00005719   324 0001:00005722   325 0001:0000572D
   326 0001:00005731   328 0001:00005737   332 0001:00005738   334 0001:00005741
   335 0001:00005746   336 0001:0000574F   337 0001:0000575A   359 0001:0000575C
   360 0001:00005762   361 0001:00005767   362 0001:00005769   363 0001:0000576B
   364 0001:00005772   365 0001:00005775   368 0001:00005776   369 0001:0000577B
   370 0001:00005780   371 0001:00005781   372 0001:00005786   373 0001:00005788
   374 0001:0000578A   377 0001:0000578B   378 0001:00005790   381 0001:00005791
   382 0001:00005792   383 0001:00005797   384 0001:00005799   385 0001:0000579B
   423 0001:0000579C   424 0001:000057A6   556 0001:000057A8   557 0001:000057AD
   558 0001:000057B1   560 0001:000057B3   561 0001:000057B4   562 0001:000057B5
   563 0001:000057BC   564 0001:000057BF   565 0001:000057C5   566 0001:000057C8
   567 0001:000057CF   568 0001:000057D6   569 0001:000057DB   570 0001:000057DC
   573 0001:000057DD   574 0001:000057E3   575 0001:000057E8   576 0001:000057ED
   840 0001:00005820   840 0001:00005827

Line numbers for Types(Types.pas) segment .text

   545 0001:00005858   545 0001:0000585F

Line numbers for Windows(Windows.pas) segment .text

 28478 0001:00005860 28485 0001:00005868 28503 0001:00005870 28512 0001:00005878
 28524 0001:00005880 28540 0001:00005888 28601 0001:00005890 28607 0001:00005898
 28614 0001:000058A0 28621 0001:000058A8 28627 0001:000058B0 28631 0001:000058B8
 28634 0001:000058C0 28696 0001:000058C8 28699 0001:000058D0 28702 0001:000058D8
 28714 0001:000058E0 28717 0001:000058E8 28751 0001:000058F0 28752 0001:000058F8
 28761 0001:00005900 28766 0001:00005908 28785 0001:00005910 28786 0001:00005918
 28791 0001:00005920 28798 0001:00005928 28810 0001:00005930 28817 0001:00005938
 28847 0001:00005940 28850 0001:00005948 28851 0001:00005950 28858 0001:00005958
 28877 0001:00005960 28884 0001:00005968 28887 0001:00005970 28892 0001:00005978
 28893 0001:00005980 28894 0001:00005988 28902 0001:00005990 28905 0001:00005998
 28929 0001:000059A0 28932 0001:000059A8 28957 0001:000059B0 28958 0001:000059B8
 28965 0001:000059C0 28968 0001:000059C8 28976 0001:000059D0 28979 0001:000059D8
 28983 0001:000059E0 28988 0001:000059E8 28996 0001:000059F0 28999 0001:000059F8
 29008 0001:00005A00 29016 0001:00005A08 29020 0001:00005A10 29021 0001:00005A18
 29023 0001:00005A20 29027 0001:00005A28 29042 0001:00005A30 29048 0001:00005A38
 29062 0001:00005A40 29065 0001:00005A48 29091 0001:00005A50 29160 0001:00005A58
 29162 0001:00005A60 29169 0001:00005A68 29207 0001:00005A70 29212 0001:00005A78
 29218 0001:00005A80 29222 0001:00005A88 29257 0001:00005A90 29285 0001:00005A98
 29287 0001:00005AA0 29289 0001:00005AA8 29293 0001:00005AB0 29300 0001:00005AB8
 29302 0001:00005AC0 29307 0001:00005AC8 29327 0001:00005AD0 29332 0001:00005AD8
 29335 0001:00005AE0 29438 0001:00005AE8 29441 0001:00005AF0 29450 0001:00005AF8
 29922 0001:00005B00 29925 0001:00005B08 29936 0001:00005B10 29944 0001:00005B18
 30207 0001:00005B20 30315 0001:00005B28 30332 0001:00005B30 30585 0001:00005B38
 30586 0001:00005B41 30587 0001:00005B4F 30698 0001:00005B54 30699 0001:00005B55
 30700 0001:00005B56 30701 0001:00005B5B 30702 0001:00005B5C 30703 0001:00005B61
 30708 0001:00005B64 30709 0001:00005B65 30710 0001:00005B66 30711 0001:00005B67
 30712 0001:00005B6C 30713 0001:00005B6D 30714 0001:00005B6E 30715 0001:00005B73
 30716 0001:00005B78 30717 0001:00005B79 30718 0001:00005B7E 30722 0001:00005B80
 30723 0001:00005B81 30724 0001:00005B86 30725 0001:00005B87 30726 0001:00005B88
 30727 0001:00005B8D 30728 0001:00005B92 31082 0001:00005BC4 31082 0001:00005BCB

Line numbers for Messages(Messages.pas) segment .text

  1848 0001:00005BFC  1848 0001:00005C03

Line numbers for SysConst(SysConst.pas) segment .text

   183 0001:00005F44   183 0001:00005F4B

Line numbers for SysUtils(sysutils.pas) segment .text

  3168 0001:00006AE8  3169 0001:00006AEB  3170 0001:00006AEC  3171 0001:00006AEE
  3172 0001:00006AF0  3173 0001:00006AF3  3174 0001:00006AF6  3175 0001:00006AF9
  3176 0001:00006AFC  3177 0001:00006AFF  3178 0001:00006B00  3190 0001:00006B04
  3191 0001:00006B0B  3192 0001:00006B1F  3195 0001:00006B24  3196 0001:00006B33
  3197 0001:00006B4F  3381 0001:00006B54  3382 0001:00006B5D  3383 0001:00006B68
  3384 0001:00006B78  3459 0001:00006B7C  3460 0001:00006B88  3461 0001:00006B93
  3462 0001:00006B9E  3463 0001:00006BA4  3464 0001:00006BAC  3466 0001:00006BB2
  3467 0001:00006BBA  3468 0001:00006BCA  3469 0001:00006BD2  3470 0001:00006BD5
  3471 0001:00006BD8  3464 0001:00006BDB  3473 0001:00006BE1  3480 0001:00006BE8
  3481 0001:00006BF4  3482 0001:00006BFF  3483 0001:00006C0A  3484 0001:00006C10
  3485 0001:00006C18  3487 0001:00006C1E  3488 0001:00006C26  3489 0001:00006C36
  3490 0001:00006C3E  3491 0001:00006C41  3492 0001:00006C44  3485 0001:00006C47
  3494 0001:00006C4D  3545 0001:00006C54  3546 0001:00006C55  3547 0001:00006C56
  3548 0001:00006C57  3549 0001:00006C59  3550 0001:00006C5B  3551 0001:00006C5D
  3552 0001:00006C5F  3553 0001:00006C62  3554 0001:00006C64  3555 0001:00006C66
  3556 0001:00006C69  3557 0001:00006C6B  3558 0001:00006C6D  3559 0001:00006C6F
  3560 0001:00006C71  3561 0001:00006C73  3562 0001:00006C75  3563 0001:00006C77
  3564 0001:00006C7A  3565 0001:00006C7D  3566 0001:00006C7F  3567 0001:00006C82
  3568 0001:00006C84  3569 0001:00006C87  3570 0001:00006C8A  3571 0001:00006C8D
  3572 0001:00006C8F  3573 0001:00006C92  3574 0001:00006C94  3575 0001:00006C97
  3576 0001:00006C99  3577 0001:00006C9B  3578 0001:00006C9E  3579 0001:00006CA1
  3580 0001:00006CA3  3581 0001:00006CA4  3582 0001:00006CA5  3583 0001:00006CA6
  3587 0001:00006CA8  3588 0001:00006CAA  3589 0001:00006CAC  3590 0001:00006CAE
  3591 0001:00006CB0  3592 0001:00006CB2  3593 0001:00006CB4  3594 0001:00006CB7
  3595 0001:00006CBA  3596 0001:00006CBC  3597 0001:00006CC1  3598 0001:00006CC3
  3599 0001:00006CC5  3600 0001:00006CC7  3601 0001:00006CC8  3602 0001:00006CCA
  3608 0001:00006CCC  3609 0001:00006CD8  3610 0001:00006CE3  3611 0001:00006CF8
  3612 0001:00006D0D  3624 0001:00006D14  3625 0001:00006D20  3626 0001:00006D2B
  3627 0001:00006D40  3628 0001:00006D55  3637 0001:00006D5C  3639 0001:00006D68
  3649 0001:00006DA1  3657 0001:00006DA8  3659 0001:00006DB4  3665 0001:00006DED
  3668 0001:00006DF4  3669 0001:00006E00  3670 0001:00006E14  3959 0001:00006E18
  3960 0001:00006E24  3961 0001:00006E2F  3962 0001:00006E38  3963 0001:00006E50
  3965 0001:00006E62  3966 0001:00006E72  3968 0001:00006E88  3989 0001:00006E8C
  3990 0001:00006E98  3991 0001:00006EA3  3992 0001:00006EAC  3993 0001:00006EC4
  3994 0001:00006ED8  4231 0001:00006EDC  4232 0001:00006EDE  4233 0001:00006EE0
  4234 0001:00006EE2  4235 0001:00006EE4  4236 0001:00006EE6  4237 0001:00006EEB
  4238 0001:00006EED  4239 0001:00006EEE  4240 0001:00006EEF  4241 0001:00006EF1
  4242 0001:00006EF2  4245 0001:00006EF7  4246 0001:00006EF8  4247 0001:00006EF9
  4248 0001:00006EFB  4249 0001:00006EFD  4250 0001:00006EFE  4251 0001:00006F01
  4252 0001:00006F04  4253 0001:00006F06  4254 0001:00006F09  4255 0001:00006F0B
  4256 0001:00006F0D  4257 0001:00006F0F  4258 0001:00006F10  4259 0001:00006F11
  4260 0001:00006F13  4261 0001:00006F15  4262 0001:00006F17  4263 0001:00006F19
  4264 0001:00006F1B  4265 0001:00006F1D  4266 0001:00006F1F  4267 0001:00006F22
  4268 0001:00006F23  4269 0001:00006F25  4271 0001:00006F27  4331 0001:00006F28
  4332 0001:00006F29  4333 0001:00006F2B  4334 0001:00006F2E  4335 0001:00006F30
  4336 0001:00006F31  4337 0001:00006F33  4338 0001:00006F38  4339 0001:00006F3A
  4340 0001:00006F3B  4341 0001:00006F40  4342 0001:00006F43  4343 0001:00006F44
  4459 0001:00006F48  4460 0001:00006F4A  4461 0001:00006F4C  4462 0001:00006F51
  4463 0001:00006F58  4464 0001:00006F5A  4465 0001:00006F5D  4466 0001:00006F5F
  4467 0001:00006F61  4468 0001:00006F64  4469 0001:00006F69  4470 0001:00006F6D
  4471 0001:00006F72  4472 0001:00006F76  4473 0001:00006F77  4474 0001:00006F78
  4475 0001:00006F7B  4478 0001:00006F7C  4479 0001:00006F7D  4480 0001:00006F80
  4481 0001:00006F84  4482 0001:00006F87  4483 0001:00006F8D  4485 0001:00006F90
  4486 0001:00006F94  4487 0001:00006F96  4488 0001:00006F9D  4489 0001:00006F9F
  4490 0001:00006FA2  4491 0001:00006FA4  4492 0001:00006FAC  4493 0001:00006FB1
  4494 0001:00006FB6  4495 0001:00006FBA  4496 0001:00006FBD  4497 0001:00006FBF
  4498 0001:00006FC1  4499 0001:00006FC4  4501 0001:00006FC6  4503 0001:00006FC8
  4504 0001:00006FCB  4506 0001:00006FCD  4507 0001:00006FCE  4508 0001:00006FD0
  4509 0001:00006FD3  4510 0001:00006FD5  4511 0001:00006FD8  4512 0001:00006FDA
  4513 0001:00006FDC  4514 0001:00006FDE  4516 0001:00006FE0  4517 0001:00006FE2
  4518 0001:00006FE4  4519 0001:00006FE6  4520 0001:00006FE9  4521 0001:00006FEA
  4523 0001:00006FEC  4524 0001:00006FF0  4526 0001:00006FF3  4527 0001:00006FF5
  4528 0001:00006FF7  4529 0001:00006FF9  4531 0001:00006FFB  4532 0001:00006FFC
  4533 0001:00006FFE  4534 0001:00007000  4535 0001:00007002  4536 0001:00007004
  4537 0001:00007006  4538 0001:00007008  4539 0001:0000700A  4540 0001:0000700D
  4541 0001:0000700E  4542 0001:00007010  4544 0001:00007012  4548 0001:00007014
  4549 0001:00007017  4550 0001:00007018  4551 0001:0000701A  4552 0001:0000701D
  4553 0001:0000701F  4554 0001:00007020  4555 0001:00007022  4556 0001:00007025
  4558 0001:0000702A  4559 0001:0000702C  4560 0001:0000702D  4561 0001:00007032
  4562 0001:00007035  4563 0001:00007036  4568 0001:0000703C  4569 0001:0000703F
  4570 0001:00007041  4571 0001:00007043  4572 0001:00007044  4573 0001:00007046
  4574 0001:00007049  4575 0001:0000704A  4576 0001:0000704F  4577 0001:00007054
  4578 0001:00007056  4579 0001:00007057  4580 0001:0000705C  4581 0001:0000705F
  4582 0001:00007060  4586 0001:00007064  4587 0001:00007067  4588 0001:0000706A
  4589 0001:0000706C  4590 0001:0000706E  4591 0001:0000706F  4592 0001:00007071
  4593 0001:00007074  4594 0001:00007079  4595 0001:0000707A  4596 0001:0000707C
  4597 0001:0000707F  4599 0001:00007084  4600 0001:00007086  4601 0001:00007087
  4602 0001:0000708C  4603 0001:0000708F  4604 0001:00007090  4609 0001:00007094
  4610 0001:0000709D  4611 0001:000070AB  4612 0001:000070CD  4617 0001:000070D4
  4618 0001:000070E0  4619 0001:000070EE  4620 0001:000070FD  4625 0001:00007104
  4626 0001:00007110  4627 0001:00007120  4628 0001:0000712B  4655 0001:00007130
  4656 0001:00007133  4658 0001:00007141  4659 0001:0000715B  4661 0001:0000716A
  4663 0001:00007178  4664 0001:00007192  4666 0001:000071A1  4684 0001:000071C4
  4685 0001:000071D0  4686 0001:000071D4  4687 0001:000071E6  4689 0001:000071FE
  4690 0001:00007202  4691 0001:00007204  4686 0001:00007207  4692 0001:0000720F
  4695 0001:00007214  4696 0001:00007220  4697 0001:0000722E  4698 0001:00007234
  4701 0001:00007248  4702 0001:0000724D  4703 0001:00007268  4704 0001:0000726E
  4707 0001:00007276  4708 0001:00007291  4709 0001:00007297  4712 0001:000072A0
  4717 0001:000072C0  4718 0001:000072CF  4720 0001:000072D5  4721 0001:000072DA
  4722 0001:000072E0  4724 0001:000072F2  4727 0001:00007304  4728 0001:00007318
  4801 0001:0000731C  4802 0001:00007328  4803 0001:0000732F  4805 0001:00007347
  4808 0001:00007387  4855 0001:0000738C  4856 0001:00007395  4858 0001:000073BB
  4868 0001:000073C0  4869 0001:000073CC  4870 0001:000073DA  4879 0001:000073E0
  4881 0001:000073EF  4882 0001:0000740A  4887 0001:00007414  4890 0001:00007418
  4892 0001:00007427  4893 0001:00007442  4898 0001:0000744C  4912 0001:00007450
  4913 0001:0000745C  4914 0001:00007468  4916 0001:00007486  4928 0001:0000748C
  4930 0001:00007493  4935 0001:0000749C  4943 0001:000074A0  4944 0001:000074AC
  4945 0001:000074C4  4947 0001:000074CA  4948 0001:000074D3  4950 0001:000074DC
  4951 0001:000074EC  4955 0001:00007501  4956 0001:0000750B  4971 0001:00007510
  4972 0001:00007519  4973 0001:00007529  4995 0001:00007530  4996 0001:00007539
  4997 0001:0000754A  4998 0001:00007562  5004 0001:00007568  5005 0001:00007592
  5006 0001:00007596  5008 0001:0000759C  5009 0001:000075B1  5010 0001:000075BB
  5012 0001:000075C3  5014 0001:000075D9  5020 0001:0000760A  5021 0001:00007663
  5348 0001:00007668  5349 0001:00007674  5350 0001:0000767F  5351 0001:0000768A
  5353 0001:00007690  5355 0001:000076B3  5356 0001:000076C2  5368 0001:000076C5
  5351 0001:000076C8  5370 0001:000076D1  5375 0001:000076D8  5376 0001:000076FB
  5377 0001:0000770B  5378 0001:00007725  5379 0001:00007765  5384 0001:00007778
  5385 0001:00007784  5386 0001:00007794  5387 0001:000077A8  5392 0001:000077B8
  5393 0001:000077C4  5394 0001:000077D4  5395 0001:000077FC  5396 0001:000077FF
  5397 0001:00007813  5430 0001:00007824  5431 0001:00007830  5432 0001:00007840
  5433 0001:00007855  5438 0001:00007868  5439 0001:00007874  5440 0001:00007884
  5441 0001:00007897  5442 0001:000078AD  5443 0001:000078B5  5450 0001:000078C8
  5451 0001:000078D7  5453 0001:00007905  5851 0001:0000790C  5852 0001:00007912
  5853 0001:00007918  5855 0001:00007920  5856 0001:00007925  5858 0001:00007941
  5859 0001:0000794F  5860 0001:00007969  5861 0001:00007986  5980 0001:0000798C
  5982 0001:00007995  5987 0001:000079B1  6003 0001:000079B8  6004 0001:000079BA
  6005 0001:000079BC  6006 0001:000079C1  6007 0001:000079C3  6008 0001:000079C5
  6009 0001:000079CA  6010 0001:000079CC  6011 0001:000079CE  6025 0001:000079D0
  6026 0001:000079DF  6027 0001:000079E5  6028 0001:000079F6  6078 0001:000079FC
  6079 0001:000079FD  6080 0001:000079FE  6081 0001:000079FF  6082 0001:00007A01
  6083 0001:00007A03  6084 0001:00007A05  6085 0001:00007A07  6086 0001:00007A09
  6087 0001:00007A0B  6088 0001:00007A0D  6089 0001:00007A0F  6090 0001:00007A10
  6091 0001:00007A12  6092 0001:00007A14  6093 0001:00007A16  6094 0001:00007A18
  6095 0001:00007A1A  6096 0001:00007A1D  6097 0001:00007A1F  6098 0001:00007A21
  6099 0001:00007A24  6100 0001:00007A26  6101 0001:00007A27  6102 0001:00007A29
  6103 0001:00007A2A  6104 0001:00007A2B  6105 0001:00007A2C  6224 0001:00007A30
  6225 0001:00007A31  6226 0001:00007A32  6227 0001:00007A33  6228 0001:00007A35
  6229 0001:00007A37  6230 0001:00007A39  6231 0001:00007A3B  6232 0001:00007A3D
  6233 0001:00007A3F  6234 0001:00007A41  6235 0001:00007A43  6236 0001:00007A45
  6237 0001:00007A47  6238 0001:00007A49  6239 0001:00007A4B  6240 0001:00007A4D
  6241 0001:00007A50  6242 0001:00007A52  6243 0001:00007A54  6244 0001:00007A56
  6245 0001:00007A58  6246 0001:00007A5A  6247 0001:00007A5D  6248 0001:00007A60
  6249 0001:00007A62  6250 0001:00007A65  6251 0001:00007A67  6252 0001:00007A6A
  6253 0001:00007A6C  6254 0001:00007A6E  6255 0001:00007A6F  6256 0001:00007A70
  6257 0001:00007A71  6260 0001:00007A74  6261 0001:00007A80  6264 0001:00007A88
  6266 0001:00007A90  6267 0001:00007A95  6269 0001:00007A97  6262 0001:00007A9A
  6271 0001:00007AA7  6300 0001:00007AAC  6301 0001:00007AAD  6302 0001:00007AAE
  6303 0001:00007AAF  6304 0001:00007AB1  6305 0001:00007AB3  6306 0001:00007AB5
  6307 0001:00007AB7  6308 0001:00007AB9  6309 0001:00007ABB  6310 0001:00007ABD
  6311 0001:00007AC2  6312 0001:00007AC4  6313 0001:00007AC6  6314 0001:00007AC7
  6315 0001:00007AC9  6316 0001:00007ACB  6317 0001:00007ACD  6318 0001:00007AD2
  6319 0001:00007AD4  6320 0001:00007AD6  6321 0001:00007AD8  6322 0001:00007ADA
  6323 0001:00007ADC  6324 0001:00007ADF  6325 0001:00007AE1  6326 0001:00007AE2
  6327 0001:00007AE4  6328 0001:00007AE6  6329 0001:00007AE8  6330 0001:00007AE9
  6331 0001:00007AEB  6332 0001:00007AED  6333 0001:00007AEE  6334 0001:00007AF0
  6335 0001:00007AF2  6336 0001:00007AF5  6337 0001:00007AF7  6338 0001:00007AF9
  6339 0001:00007AFA  6340 0001:00007AFB  6341 0001:00007AFC  6387 0001:00007B00
  6388 0001:00007B09  6389 0001:00007B0D  6390 0001:00007B18  6391 0001:00007B20
  6392 0001:00007B27  6406 0001:00007B2C  6407 0001:00007B35  6409 0001:00007B42
  6410 0001:00007B4E  6412 0001:00007B67  6431 0001:00007B6C  6432 0001:00007B7B
  6433 0001:00007B88  6434 0001:00007B9B  6435 0001:00007BA9  6436 0001:00007BB1
  6437 0001:00007BCF  6440 0001:00007BD4  6441 0001:00007BE1  6442 0001:00007BEB
  6444 0001:00007BFD  6445 0001:00007C04  6448 0001:00007C0C  6449 0001:00007C13
  6450 0001:00007C1B  6473 0001:00007C20  6474 0001:00007C2C  6475 0001:00007C2D
  6476 0001:00007C2E  6477 0001:00007C2F  6478 0001:00007C31  6484 0001:00007C33
  6486 0001:00007C35  6487 0001:00007C38  6488 0001:00007C3B  6489 0001:00007C3E
  6490 0001:00007C40  6491 0001:00007C43  6492 0001:00007C46  6495 0001:00007C49
  6496 0001:00007C4B  6499 0001:00007C4D  6500 0001:00007C4F  6501 0001:00007C51
  6502 0001:00007C52  6503 0001:00007C54  6506 0001:00007C56  6507 0001:00007C57
  6508 0001:00007C58  6511 0001:00007C5A  6512 0001:00007C5C  6513 0001:00007C5F
  6516 0001:00007C64  6517 0001:00007C66  6518 0001:00007C68  6519 0001:00007C69
  6520 0001:00007C6B  6521 0001:00007C6D  6522 0001:00007C70  6523 0001:00007C73
  6524 0001:00007C76  6525 0001:00007C78  6526 0001:00007C7A  6527 0001:00007C7C
  6528 0001:00007C7E  6529 0001:00007C7F  6530 0001:00007C84  6531 0001:00007C86
  6532 0001:00007C88  6533 0001:00007C8B  6534 0001:00007C8D  6535 0001:00007C8F
  6536 0001:00007C90  6538 0001:00007C92  6539 0001:00007C95  6540 0001:00007C9A
  6541 0001:00007C9C  6542 0001:00007C9E  6543 0001:00007CA0  6544 0001:00007CA2
  6545 0001:00007CA3  6546 0001:00007CA8  6547 0001:00007CAB  6548 0001:00007CAE
  6549 0001:00007CAF  6551 0001:00007CB0  6553 0001:00007CB5  6554 0001:00007CB6
  6555 0001:00007CB9  6556 0001:00007CBB  6557 0001:00007CBD  6559 0001:00007CBF
  6560 0001:00007CC3  6561 0001:00007CC5  6562 0001:00007CC7  6563 0001:00007CC9
  6564 0001:00007CCB  6566 0001:00007CCD  6568 0001:00007CCF  6569 0001:00007CD1
  6570 0001:00007CD3  6571 0001:00007CD5  6572 0001:00007CD7  6573 0001:00007CD9
  6574 0001:00007CDB  6575 0001:00007CDD  6576 0001:00007CDF  6577 0001:00007CE1
  6578 0001:00007CE3  6579 0001:00007CE5  6580 0001:00007CE7  6581 0001:00007CE9
  6582 0001:00007CED  6583 0001:00007CEF  6584 0001:00007CF0  6587 0001:00007CF3
  6589 0001:00007CF8  6590 0001:00007CF9  6591 0001:00007CFA  6592 0001:00007CFD
  6595 0001:00007D02  6596 0001:00007D04  6597 0001:00007D06  6598 0001:00007D08
  6599 0001:00007D0A  6600 0001:00007D0C  6601 0001:00007D0E  6602 0001:00007D10
  6603 0001:00007D16  6604 0001:00007D18  6605 0001:00007D1B  6606 0001:00007D1D
  6607 0001:00007D1F  6608 0001:00007D21  6609 0001:00007D22  6610 0001:00007D24
  6611 0001:00007D25  6612 0001:00007D2A  6613 0001:00007D2D  6614 0001:00007D30
  6615 0001:00007D32  6616 0001:00007D35  6617 0001:00007D38  6618 0001:00007D3D
  6619 0001:00007D40  6620 0001:00007D42  6621 0001:00007D44  6622 0001:00007D46
  6623 0001:00007D48  6624 0001:00007D49  6627 0001:00007D4A  6628 0001:00007D4C
  6629 0001:00007D4E  6630 0001:00007D53  6631 0001:00007D56  6632 0001:00007D59
  6633 0001:00007D5B  6634 0001:00007D5E  6635 0001:00007D61  6636 0001:00007D64
  6637 0001:00007D66  6645 0001:00007D6A  6649 0001:00007D71  6650 0001:00007D75
  6651 0001:00007D79  6652 0001:00007D7D  6653 0001:00007D81  6654 0001:00007D85
  6655 0001:00007D89  6656 0001:00007D8D  6657 0001:00007D91  6658 0001:00007D95
  6659 0001:00007D99  6660 0001:00007D9D  6661 0001:00007DA1  6662 0001:00007DA5
  6663 0001:00007DA9  6664 0001:00007DAD  6665 0001:00007DB1  6673 0001:00007DB5
  6676 0001:00007DB7  6677 0001:00007DBC  6678 0001:00007DBF  6679 0001:00007DC2
  6697 0001:00007DC4  6698 0001:00007DC7  6707 0001:00007DCC  6708 0001:00007DCF
  6709 0001:00007DD2  6710 0001:00007DD5  6711 0001:00007DD7  6712 0001:00007DD9
  6713 0001:00007DDB  6714 0001:00007DDE  6715 0001:00007DE4  6716 0001:00007DE9
  6717 0001:00007DEC  6718 0001:00007DF2  6719 0001:00007DF7  6720 0001:00007DFA
  6721 0001:00007E00  6827 0001:00007E02  6828 0001:00007E05  6829 0001:00007E08
  6830 0001:00007E0A  6831 0001:00007E0D  6832 0001:00007E0F  6833 0001:00007E11
  6834 0001:00007E14  6835 0001:00007E1A  6836 0001:00007E1F  6837 0001:00007E22
  6838 0001:00007E28  6839 0001:00007E2D  6840 0001:00007E30  6841 0001:00007E36
  6891 0001:00007E3B  6892 0001:00007E3E  6893 0001:00007E44  6894 0001:00007E49
  6897 0001:00007E4A  6898 0001:00007E4D  6899 0001:00007E53  6900 0001:00007E57
  6901 0001:00007E59  6902 0001:00007E5B  6905 0001:00007E5E  6907 0001:00007E63
  6908 0001:00007E66  6911 0001:00007E68  6912 0001:00007E6A  6915 0001:00007E6B
  6916 0001:00007E6E  6917 0001:00007E74  6918 0001:00007E76  6919 0001:00007E77
  6920 0001:00007E7A  6923 0001:00007E7C  6924 0001:00007E81  6927 0001:00007E83
  6930 0001:00007E88  6934 0001:00007E8B  6935 0001:00007E8E  6936 0001:00007E94
  6937 0001:00007E96  6938 0001:00007E99  6939 0001:00007E9A  6940 0001:00007E9D
  6941 0001:00007E9F  6942 0001:00007EA0  6943 0001:00007EA3  6944 0001:00007EA5
  6947 0001:00007EA7  6948 0001:00007EAA  6949 0001:00007EB0  6952 0001:00007EB2
  6953 0001:00007EB4  6954 0001:00007EB6  6957 0001:00007EB9  6958 0001:00007EBC
  6959 0001:00007EBE  6960 0001:00007EBF  6961 0001:00007EC2  6964 0001:00007EC3
  6965 0001:00007EC6  6966 0001:00007ECC  6967 0001:00007ECE  6968 0001:00007ECF
  6969 0001:00007ED1  6970 0001:00007ED3  6971 0001:00007ED6  6972 0001:00007ED8
  6973 0001:00007EDA  6974 0001:00007EDC  6975 0001:00007EDD  6976 0001:00007EDF
  6977 0001:00007EE1  6978 0001:00007EE2  6981 0001:00007EE3  6982 0001:00007EE6
  6983 0001:00007EEC  6984 0001:00007EF1  6985 0001:00007EF6  6986 0001:00007EF9
  6989 0001:00007EFE  6990 0001:00007F00  6993 0001:00007F02  6996 0001:00007F04
  6997 0001:00007F06  6998 0001:00007F08  6999 0001:00007F0B  7000 0001:00007F0D
  7001 0001:00007F0F  7002 0001:00007F12  7003 0001:00007F14  7004 0001:00007F16
  7005 0001:00007F19  7006 0001:00007F1B  7007 0001:00007F1D  7008 0001:00007F20
  7009 0001:00007F22  7010 0001:00007F25  7011 0001:00007F2B  7012 0001:00007F2D
  7013 0001:00007F32  7014 0001:00007F35  7015 0001:00007F37  7016 0001:00007F39
  7017 0001:00007F3E  7018 0001:00007F41  7019 0001:00007F43  7020 0001:00007F4A
  7021 0001:00007F4C  7022 0001:00007F4F  7023 0001:00007F54  7024 0001:00007F57
  7025 0001:00007F59  7026 0001:00007F5E  7027 0001:00007F5F  7028 0001:00007F60
  7029 0001:00007F61  7030 0001:00007F64  7031 0001:00007F66  7032 0001:00007F69
  7033 0001:00007F6C  7034 0001:00007F71  7035 0001:00007F73  7036 0001:00007F76
  7039 0001:00007F77  7040 0001:00007F78  7041 0001:00007F79  7042 0001:00007F7C
  7043 0001:00007F7F  7044 0001:00007F84  7045 0001:00007F85  7046 0001:00007F86
  7049 0001:00007F87  7050 0001:00007F8C  7051 0001:00007F8D  7052 0001:00007F8E
  7053 0001:00007F8F  7531 0001:00007F98  7532 0001:00007FA7  7534 0001:00007FB3
  7535 0001:00007FD9  7538 0001:00007FE1  7539 0001:00007FE9  7555 0001:00007FF0
  7556 0001:00007FFF  7557 0001:00008011  7570 0001:00008018  7571 0001:0000802E
  7572 0001:00008035  7573 0001:00008044  7576 0001:0000806D  7577 0001:00008078
  7579 0001:0000807E  7583 0001:00008089  7584 0001:0000808F  7585 0001:00008097
  7586 0001:000080A2  7581 0001:000080C7  7589 0001:000080D0  7592 0001:000080DD
  7593 0001:000080EE  8628 0001:000080F4  8637 0001:000080F5  8639 0001:000080F7
  8640 0001:000080F8  8641 0001:000080FA  8642 0001:000080FC  8643 0001:000080FE
  8644 0001:00008100  8645 0001:00008102  8646 0001:00008104  8647 0001:00008106
  8648 0001:00008108  8649 0001:0000810A  8650 0001:0000810C  8651 0001:0000810E
  8652 0001:00008110  8653 0001:00008111  8654 0001:00008112  8655 0001:00008113
  8656 0001:00008115  8657 0001:00008117  8658 0001:0000811D  8659 0001:00008120
  8660 0001:00008122  8661 0001:00008123  8662 0001:00008124  8663 0001:00008126
  8664 0001:00008128  8665 0001:0000812A  8666 0001:0000812C  8667 0001:0000812D
  8668 0001:0000812F  8669 0001:00008130  8670 0001:00008132  8671 0001:00008134
  8672 0001:00008135  8673 0001:00008136  8686 0001:00008138  8687 0001:0000813E
  8688 0001:0000813F  8689 0001:00008140  8690 0001:00008141  8712 0001:00008144
  8713 0001:00008149  8714 0001:0000814C  8715 0001:00008151  8716 0001:00008154
  8717 0001:00008159  8718 0001:0000815C  8719 0001:00008161  8720 0001:00008164
  8721 0001:00008169  8722 0001:0000816C  8724 0001:00008173  8725 0001:00008178
  8726 0001:0000817B  8727 0001:0000817D  8728 0001:00008180  8729 0001:00008183
  8730 0001:00008185  8731 0001:0000818A  8732 0001:0000818D  8733 0001:0000818F
  8734 0001:00008194  8735 0001:00008197  8736 0001:00008198  8737 0001:0000819D
  8738 0001:000081A1  8739 0001:000081A3  8740 0001:000081A6  8741 0001:000081A7
  8742 0001:000081AA  8743 0001:000081AF  8744 0001:000081B2  8745 0001:000081B6
  8746 0001:000081BB  8747 0001:000081BE  8748 0001:000081C0  8749 0001:000081C2
  8750 0001:000081C7  8751 0001:000081CE  8752 0001:000081D1  8753 0001:000081D6
  8754 0001:000081D8  8755 0001:000081DA  8756 0001:000081DD  8757 0001:000081E1
  8758 0001:000081E4  8759 0001:000081E6  8760 0001:000081E9  8761 0001:000081EB
  8762 0001:000081EF  8763 0001:000081F2  8764 0001:000081F4  8765 0001:000081F6
  8766 0001:000081FD  8767 0001:00008200  8768 0001:00008202  8769 0001:00008205
  8770 0001:00008207  8771 0001:00008209  8772 0001:0000820C  8773 0001:0000820D
  8774 0001:0000820E  8775 0001:0000820F  8778 0001:00008214  8779 0001:00008218
  8780 0001:0000821C  8781 0001:00008220  8782 0001:00008224  8784 0001:00008228
  8790 0001:0000822E  8791 0001:0000822F  8792 0001:00008231  8793 0001:00008233
  8794 0001:00008235  8795 0001:00008236  8801 0001:00008237  8802 0001:0000823B
  8803 0001:0000823D  8804 0001:0000823F  8805 0001:00008240  8811 0001:00008241
  8812 0001:00008246  8813 0001:0000824A  8814 0001:0000824C  8815 0001:0000824F
  8816 0001:00008251  8817 0001:00008254  8818 0001:00008256  8819 0001:00008258
  8820 0001:0000825A  8821 0001:0000825C  8822 0001:0000825D  8823 0001:00008260
  8824 0001:00008262  8825 0001:00008265  8826 0001:00008266  8827 0001:00008268
  8828 0001:0000826A  8829 0001:0000826C  8830 0001:0000826E  8831 0001:00008273
  8832 0001:00008274  8833 0001:00008275  8834 0001:00008277  8835 0001:00008279
  8836 0001:0000827A  8837 0001:0000827C  8838 0001:0000827D  8839 0001:0000827F
  8840 0001:00008281  8841 0001:00008283  8842 0001:00008286  8843 0001:00008288
  8844 0001:00008289  8845 0001:0000828B  8846 0001:0000828D  8847 0001:0000828E
  8848 0001:00008290  8849 0001:00008292  8850 0001:00008294  8851 0001:00008296
  8852 0001:00008298  8853 0001:0000829A  8854 0001:0000829C  8860 0001:0000829D
  8861 0001:000082A2  8862 0001:000082A7  8863 0001:000082AA  8864 0001:000082AC
  8865 0001:000082AF  8866 0001:000082B0  8867 0001:000082B5  8868 0001:000082B6
  8869 0001:000082B8  8873 0001:000082BA  8874 0001:000082BD  8875 0001:000082C0
  8876 0001:000082C2  8884 0001:000082C4  8885 0001:000082C6  8886 0001:000082C9
  8887 0001:000082CD  8888 0001:000082CE  8889 0001:000082D3  8896 0001:000082D4
  8902 0001:000082D9  8903 0001:000082DC  8904 0001:000082DF  8905 0001:000082E1
  8906 0001:000082E6  8907 0001:000082EA  8908 0001:000082EC  8909 0001:000082EE
  8910 0001:000082F0  8911 0001:000082F1  8912 0001:000082F3  8913 0001:000082F5
  8914 0001:000082F9  8915 0001:000082FB  8916 0001:000082FD  8917 0001:000082FE
  8918 0001:00008300  8919 0001:00008302  8920 0001:00008304  8921 0001:00008305
  8922 0001:0000830A  8923 0001:0000830B  8924 0001:0000830C  8925 0001:0000830E
  8926 0001:0000830F  8927 0001:00008311  8928 0001:00008314  8929 0001:00008316
  8930 0001:00008318  8931 0001:00008319  8932 0001:0000831B  8933 0001:0000831D
  8934 0001:0000831F  8935 0001:00008321  8936 0001:00008324  8937 0001:00008326
  8938 0001:00008328  8939 0001:00008329  8940 0001:0000832B  8941 0001:0000832D
  8942 0001:0000832E  8943 0001:0000832F  8944 0001:00008331  8945 0001:00008332
  8946 0001:00008334  8947 0001:00008339  8948 0001:0000833A  8949 0001:0000833B
  8950 0001:0000833D  8956 0001:0000833E  8957 0001:00008340  8958 0001:00008343
  8959 0001:00008348  8960 0001:0000834C  8961 0001:0000834E  8962 0001:00008351
  8963 0001:00008356  8964 0001:00008358  8965 0001:0000835A  8966 0001:0000835C
  8967 0001:0000835E  8968 0001:00008365  8969 0001:00008368  8970 0001:0000836D
  8971 0001:0000836F  8972 0001:00008371  8973 0001:00008373  8974 0001:00008374
  8975 0001:00008375  8976 0001:00008377  8977 0001:00008379  8978 0001:0000837B
  8979 0001:0000837D  8980 0001:0000837E  8981 0001:00008380  8982 0001:00008385
  8983 0001:00008387  8984 0001:0000838C  8985 0001:0000838D  8986 0001:0000838E
  8987 0001:0000838F  8988 0001:00008391  8994 0001:00008392  8995 0001:00008393
  8996 0001:00008396  8997 0001:00008398  8998 0001:0000839A  8999 0001:0000839D
  9000 0001:0000839F  9001 0001:000083A0  9006 0001:000083A1  9007 0001:000083A6
  9008 0001:000083AB  9009 0001:000083B0  9010 0001:000083B5  9011 0001:000083BA
  9012 0001:000083BF  9013 0001:000083C4  9014 0001:000083C9  9015 0001:000083CE
  9016 0001:000083D3  9017 0001:000083D8  9018 0001:000083DD  9019 0001:000083E2
  9020 0001:000083E7  9021 0001:000083EC  9022 0001:000083F1  9023 0001:000083F6
  9024 0001:000083FB  9025 0001:00008400  9028 0001:00008405 10106 0001:0000840C
 10107 0001:00008412 10108 0001:00008413 10109 0001:00008414 10110 0001:00008415
 10111 0001:00008417 10118 0001:00008419 10120 0001:00008420 10121 0001:00008423
 10122 0001:00008425 10123 0001:0000842A 10124 0001:0000842F 10125 0001:00008434
 10131 0001:00008439 10132 0001:0000843D 10133 0001:0000843F 10134 0001:00008444
 10135 0001:00008446 10136 0001:0000844B 10138 0001:0000844D 10139 0001:00008453
 10142 0001:00008455 10143 0001:00008458 10144 0001:0000845A 10145 0001:00008461
 10146 0001:00008463 10147 0001:00008464 10148 0001:00008466 10149 0001:0000846A
 10150 0001:0000846F 10151 0001:00008471 10152 0001:00008476 10153 0001:0000847C
 10154 0001:0000847F 10155 0001:00008480 10156 0001:00008483 10157 0001:00008488
 10158 0001:0000848B 10159 0001:0000848D 10160 0001:0000848E 10161 0001:00008491
 10162 0001:00008496 10163 0001:00008497 10164 0001:00008499 10165 0001:0000849C
 10166 0001:000084A2 10167 0001:000084A4 10168 0001:000084A8 10169 0001:000084A9
 10170 0001:000084AF 10171 0001:000084B1 10172 0001:000084B7 10173 0001:000084BA
 10174 0001:000084BD 10175 0001:000084C0 10176 0001:000084C5 10177 0001:000084C6
 10178 0001:000084CA 10179 0001:000084CC 10180 0001:000084CF 10181 0001:000084D2
 10182 0001:000084D6 10183 0001:000084D8 10184 0001:000084D9 10185 0001:000084DB
 10186 0001:000084DD 10187 0001:000084DE 10188 0001:000084E1 10189 0001:000084E4
 10190 0001:000084E6 10191 0001:000084E8 10192 0001:000084ED 10193 0001:000084F0
 10194 0001:000084F2 10195 0001:000084F5 10196 0001:000084F8 10197 0001:000084FA
 10198 0001:000084FF 10199 0001:00008501 10200 0001:00008506 10201 0001:00008507
 10202 0001:00008509 10203 0001:0000850D 10204 0001:00008512 10205 0001:00008514
 10206 0001:00008516 10207 0001:0000851C 10208 0001:0000851F 10209 0001:00008521
 10210 0001:00008526 10211 0001:0000852B 10212 0001:0000852C 10213 0001:0000852E
 10214 0001:00008533 10215 0001:00008535 10217 0001:00008539 10218 0001:0000853C
 10219 0001:00008540 10220 0001:00008543 10221 0001:00008546 10222 0001:00008547
 10223 0001:00008549 10226 0001:0000854B 10227 0001:0000854F 10228 0001:00008553
 10229 0001:00008557 10235 0001:0000855B 10236 0001:0000855D 10237 0001:00008560
 10238 0001:00008562 10239 0001:00008564 10240 0001:0000856A 10241 0001:0000856C
 10242 0001:0000856E 10243 0001:00008570 10244 0001:00008572 10245 0001:00008575
 10246 0001:00008577 10247 0001:0000857A 10248 0001:0000857C 10249 0001:0000857E
 10250 0001:00008580 10251 0001:00008583 10252 0001:00008585 10253 0001:0000858A
 10254 0001:0000858B 10255 0001:00008590 10256 0001:00008596 10257 0001:00008598
 10258 0001:00008599 10259 0001:0000859E 10260 0001:000085A4 10261 0001:000085A7
 10262 0001:000085AA 10263 0001:000085AD 10264 0001:000085AF 10265 0001:000085B4
 10266 0001:000085B6 10267 0001:000085B8 10268 0001:000085BB 10269 0001:000085C2
 10270 0001:000085C5 10271 0001:000085C8 10272 0001:000085C9 10273 0001:000085CB
 10274 0001:000085CD 10275 0001:000085D2 10276 0001:000085D6 10277 0001:000085D8
 10278 0001:000085DB 10279 0001:000085DD 10280 0001:000085DF 10281 0001:000085E1
 10282 0001:000085E3 10283 0001:000085E4 10284 0001:000085E6 10285 0001:000085E8
 10286 0001:000085EA 10287 0001:000085EC 10288 0001:000085ED 10289 0001:000085F2
 10290 0001:000085F6 10291 0001:000085F8 10292 0001:000085FB 10293 0001:000085FD
 10294 0001:000085FE 10295 0001:00008600 10296 0001:00008602 10297 0001:00008604
 10298 0001:00008605 10299 0001:00008606 10300 0001:00008608 10301 0001:0000860A
 10302 0001:0000860E 10303 0001:00008610 10304 0001:00008613 10305 0001:00008614
 10306 0001:00008617 10307 0001:00008619 10308 0001:0000861C 10309 0001:0000861F
 10310 0001:00008621 10311 0001:00008623 10312 0001:00008625 10313 0001:00008628
 10314 0001:0000862B 10315 0001:0000862E 10318 0001:0000862F 10319 0001:00008630
 10320 0001:00008631 10321 0001:00008632 10339 0001:00008638 10340 0001:0000863E
 10341 0001:0000863F 10342 0001:00008640 10343 0001:00008641 10344 0001:00008643
 10354 0001:00008645 10355 0001:0000864C 10356 0001:00008651 10357 0001:00008654
 10359 0001:00008656 10360 0001:0000865A 10364 0001:0000865D 10366 0001:00008663
 10367 0001:00008665 10368 0001:0000866A 10369 0001:0000866C 10370 0001:0000866F
 10371 0001:00008671 10372 0001:00008674 10373 0001:00008676 10374 0001:00008677
 10375 0001:00008679 10376 0001:0000867E 10377 0001:00008680 10378 0001:00008682
 10379 0001:00008685 10380 0001:00008687 10381 0001:00008688 10382 0001:0000868D
 10383 0001:0000868F 10384 0001:00008691 10385 0001:00008693 10386 0001:00008695
 10387 0001:00008697 10388 0001:00008699 10389 0001:0000869B 10390 0001:0000869C
 10391 0001:0000869D 10392 0001:000086A2 10393 0001:000086A3 10394 0001:000086A5
 10395 0001:000086AA 10396 0001:000086AD 10397 0001:000086AF 10398 0001:000086B1
 10399 0001:000086B4 10400 0001:000086B6 10401 0001:000086B9 10402 0001:000086BA
 10403 0001:000086BD 10404 0001:000086C2 10405 0001:000086C3 10406 0001:000086C6
 10407 0001:000086C8 10408 0001:000086CA 10409 0001:000086CD 10410 0001:000086CF
 10411 0001:000086D1 10412 0001:000086D3 10413 0001:000086D5 10414 0001:000086D8
 10415 0001:000086DC 10416 0001:000086DE 10417 0001:000086E0 10418 0001:000086E2
 10419 0001:000086E4 10420 0001:000086E6 10421 0001:000086E9 10422 0001:000086EC
 10423 0001:000086ED 10427 0001:000086EF 10428 0001:000086F0 10429 0001:000086F2
 10430 0001:000086F4 10431 0001:000086F6 10432 0001:000086F8 10433 0001:000086F9
 10440 0001:000086FA 10441 0001:000086FC 10442 0001:000086FE 10443 0001:000086FF
 10444 0001:00008701 10445 0001:00008703 10451 0001:00008705 10453 0001:0000870B
 10454 0001:0000870E 10455 0001:00008711 10456 0001:00008712 10457 0001:00008714
 10458 0001:00008715 10465 0001:00008716 10466 0001:00008718 10467 0001:0000871A
 10468 0001:0000871C 10469 0001:0000871F 10470 0001:00008721 10471 0001:00008724
 10472 0001:00008726 10473 0001:00008727 10474 0001:00008729 10475 0001:0000872B
 10476 0001:0000872D 10477 0001:0000872F 10478 0001:00008730 10479 0001:00008733
 10480 0001:00008735 10481 0001:0000873B 10482 0001:0000873D 10483 0001:00008740
 10484 0001:00008742 10485 0001:00008744 10488 0001:00008745 10489 0001:00008746
 10490 0001:00008747 10491 0001:00008748 10664 0001:0000874C 10665 0001:00008755
 10667 0001:00008775 10681 0001:0000877C 10682 0001:00008785 10684 0001:000087A5
 10712 0001:000087AC 10713 0001:000087BB 10715 0001:000087E1 10783 0001:000087E8
 10784 0001:000087F1 10785 0001:00008807 10786 0001:00008823 10809 0001:00008828
 10810 0001:00008834 10811 0001:0000884C 10822 0001:00008850 10823 0001:0000885C
 10824 0001:00008871 10825 0001:00008877 10826 0001:00008883 10841 0001:00008888
 10842 0001:00008894 10843 0001:000088A9 10844 0001:000088AF 10845 0001:000088BB
 10884 0001:000088C0 10885 0001:000088CC 10886 0001:000088E4 10901 0001:000088E8
 10902 0001:000088EB 10909 0001:000088EC 10911 0001:000088EE 10912 0001:000088F0
 10913 0001:000088F3 10914 0001:000088F9 10915 0001:000088FC 10916 0001:000088FF
 10917 0001:00008900 10918 0001:00008901 10919 0001:00008902 10920 0001:00008904
 10921 0001:00008906 10922 0001:00008908 10923 0001:0000890A 10924 0001:0000890D
 10925 0001:00008913 10926 0001:00008915 10927 0001:00008917 10928 0001:0000891D
 10929 0001:00008922 10930 0001:00008924 10931 0001:00008927 10932 0001:00008928
 11016 0001:0000892C 11017 0001:0000893E 11018 0001:00008942 11020 0001:0000895F
 11024 0001:00008999 11026 0001:000089A0 11029 0001:000089AC 11030 0001:000089BE
 11031 0001:000089DC 11032 0001:000089E9 11037 0001:000089F0 11038 0001:000089FF
 11039 0001:00008A20 11040 0001:00008A34 11041 0001:00008A48 11046 0001:00008A50
 11047 0001:00008A58 11048 0001:00008A91 11054 0001:00008A94 11055 0001:00008AA7
 11056 0001:00008AAB 11057 0001:00008AC4 11060 0001:00008B0E 11061 0001:00008B38
 11062 0001:00008B40 11063 0001:00008B88 11065 0001:00008B8F 11068 0001:00008B98
 11069 0001:00008BAA 11070 0001:00008BC3 11071 0001:00008BD0 11083 0001:00008BD4
 11084 0001:00008BE3 11085 0001:00008BF7 11087 0001:00008BFD 11088 0001:00008C05
 11089 0001:00008C0D 11090 0001:00008C15 11091 0001:00008C1D 11094 0001:00008C26
 11095 0001:00008C38 11096 0001:00008C3B 11097 0001:00008C41 11099 0001:00008C4A
 11100 0001:00008C51 11097 0001:00008C57 11102 0001:00008C60 11103 0001:00008C73
 11105 0001:00008C7A 11106 0001:00008C7E 11108 0001:00008C84 11109 0001:00008C8D
 11110 0001:00008CA1 11111 0001:00008CAC 11112 0001:00008CC0 11114 0001:00008CC7
 11115 0001:00008CCB 11117 0001:00008CD1 11118 0001:00008CD9 11119 0001:00008CE5
 11120 0001:00008CF7 11123 0001:00008CFD 11124 0001:00008D0D 11125 0001:00008D17
 11126 0001:00008D1F 11121 0001:00008D23 11128 0001:00008D25 11129 0001:00008D2F
 11130 0001:00008D39 11132 0001:00008D47 11143 0001:00008D50 11144 0001:00008D5F
 11145 0001:00008D77 11172 0001:00008D80 11173 0001:00008D86 11174 0001:00008DA8
 11180 0001:00008DB0 11181 0001:00008DB6 11182 0001:00008DBF 11183 0001:00008DD7
 11228 0001:00008DDC 11229 0001:00008DE2 11230 0001:00008DEB 11233 0001:00008E20
 11299 0001:00008E24 11300 0001:00008E2A 11301 0001:00008E33 11302 0001:00008E3F
 11326 0001:00008E44 11327 0001:00008E50 11328 0001:00008E61 11329 0001:00008E6F
 11330 0001:00008E93 11331 0001:00008E9F 11334 0001:00008EA4 11335 0001:00008EAB
 11336 0001:00008EC2 11343 0001:00008EC8 11344 0001:00008ED4 11346 0001:00008F11
 11360 0001:00008F18 11361 0001:00008F1C 11362 0001:00008F27 11363 0001:00008F3D
 11364 0001:00008F4D 11367 0001:00008F50 11368 0001:00008F53 11370 0001:00008F5C
 11371 0001:00008F7F 11373 0001:00008F86 11376 0001:00008F88 11377 0001:00008F8B
 11379 0001:00008F94 11380 0001:00008FBE 11382 0001:00008FC5 11391 0001:00008FC8
 11392 0001:00008FF0 11395 0001:00008FF8 11396 0001:00009003 11397 0001:0000900E
 11400 0001:00009019 11401 0001:00009026 11404 0001:00009054 11405 0001:00009067
 11407 0001:00009071 11409 0001:00009084 11411 0001:000090AA 11414 0001:000090CE
 11415 0001:000090E9 11420 0001:0000913C 11427 0001:0000914C 11428 0001:0000916E
 11431 0001:00009176 11432 0001:00009181 11433 0001:0000918C 11436 0001:00009197
 11437 0001:0000919D 11439 0001:000091AC 11441 0001:000091B9 11444 0001:000091E3
 11445 0001:000091F6 11446 0001:00009206 11448 0001:00009243 11496 0001:00009264
 11497 0001:00009283 11499 0001:0000929D 11500 0001:000092A6 11501 0001:000092AA
 11502 0001:000092AE 11503 0001:000092B2 11506 0001:000092BB 11507 0001:000092C3
 11509 0001:000092D4 11510 0001:000092EB 11511 0001:000092F6 11512 0001:000092FA
 11514 0001:000092FF 11515 0001:0000930A 11516 0001:00009310 11517 0001:0000931D
 11519 0001:00009326 11520 0001:00009336 11522 0001:0000933C 11525 0001:000093D3
 11526 0001:000093DA 11527 0001:000093E1 11528 0001:000093E7 11529 0001:0000940A
 11533 0001:00009422 11534 0001:00009429 11535 0001:00009430 11539 0001:0000944F
 11540 0001:00009456 11541 0001:0000945D 11545 0001:0000947C 11546 0001:00009483
 11547 0001:0000948A 11548 0001:00009497 11549 0001:000094AD 11551 0001:000094C7
 11556 0001:000094E1 11557 0001:000094E8 11560 0001:000094FB 11561 0001:00009502
 11563 0001:00009518 11564 0001:0000953F 11565 0001:00009566 11567 0001:0000957A
 11572 0001:0000958E 11573 0001:00009595 11574 0001:0000959C 11575 0001:000095A0
 11578 0001:000095AB 11580 0001:000095BE 11581 0001:000095C9 11583 0001:000095CE
 11585 0001:000095FC 11587 0001:00009602 11590 0001:00009644 11591 0001:00009648
 11595 0001:0000964A 11597 0001:00009652 11576 0001:00009655 11599 0001:00009661
 11600 0001:00009669 11601 0001:0000966F 11602 0001:0000968A 11603 0001:00009697
 11607 0001:000096AD 11608 0001:000096B4 11609 0001:000096BB 11610 0001:000096C8
 11614 0001:000096DE 11615 0001:000096E5 11616 0001:000096EC 11617 0001:000096F9
 11621 0001:0000970F 11622 0001:00009716 11623 0001:0000971C 11624 0001:00009730
 11628 0001:00009744 11629 0001:0000974B 11630 0001:00009752 11631 0001:0000975F
 11635 0001:00009775 11636 0001:0000977C 11637 0001:00009783 11639 0001:00009799
 11640 0001:000097A4 11641 0001:000097B6 11642 0001:000097BA 11644 0001:000097C3
 11646 0001:000097D9 11647 0001:000097E4 11648 0001:000097F6 11649 0001:000097FA
 11651 0001:00009803 11653 0001:00009819 11654 0001:00009820 11655 0001:00009831
 11656 0001:00009840 11657 0001:00009844 11659 0001:0000984D 11661 0001:00009863
 11662 0001:0000986A 11663 0001:0000988C 11665 0001:00009895 11667 0001:000098AB
 11668 0001:000098B2 11669 0001:000098D4 11671 0001:000098DD 11675 0001:000098F4
 11676 0001:000098FB 11677 0001:0000990A 11678 0001:00009911 11680 0001:0000992A
 11681 0001:0000993E 11685 0001:00009952 11686 0001:0000995F 11688 0001:00009978
 11689 0001:00009985 11692 0001:0000999B 11695 0001:000099A3 11696 0001:000099B6
 11698 0001:000099C3 11693 0001:000099C6 11700 0001:000099D8 11701 0001:000099EB
 11704 0001:000099F8 11504 0001:00009A0A 11707 0001:00009A16 11709 0001:00009A41
 11711 0001:00009A6C 11712 0001:00009A81 11713 0001:00009A89 11714 0001:00009A91
 11715 0001:00009AB5 11716 0001:00009ACC 12133 0001:00009AD8 12134 0001:00009ADF
 12135 0001:00009AF3 12145 0001:00009AF8 12146 0001:00009AFF 12147 0001:00009B13
 12157 0001:00009B18 12158 0001:00009B1F 12159 0001:00009B2F 12168 0001:00009B34
 12169 0001:00009B40 12170 0001:00009B51 12186 0001:00009B58 12187 0001:00009B64
 12188 0001:00009B6E 12189 0001:00009B8B 12190 0001:00009B93 12197 0001:00009B98
 12198 0001:00009BA7 12199 0001:00009BAB 12200 0001:00009BB1 12201 0001:00009BBC
 12202 0001:00009BC4 12205 0001:00009BCC 12206 0001:00009BEB 12203 0001:00009BEE
 12208 0001:00009C13 12210 0001:00009C1D 12211 0001:00009C2C 12212 0001:00009C34
 12213 0001:00009C3E 12215 0001:00009C45 12219 0001:00009C4C 12220 0001:00009C6F
 12221 0001:00009C73 12223 0001:00009C79 12224 0001:00009C84 12226 0001:00009CAE
 12227 0001:00009CBB 12230 0001:00009CDF 12233 0001:00009CE4 12234 0001:00009CF3
 12235 0001:00009CF7 12236 0001:00009D02 12238 0001:00009D22 12239 0001:00009D27
 12241 0001:00009D2E 12246 0001:00009D34 12247 0001:00009D3D 12248 0001:00009D41
 12251 0001:00009D4A 12252 0001:00009D68 12253 0001:00009D6E 12254 0001:00009D74
 12255 0001:00009D7A 12257 0001:00009D80 12249 0001:00009D83 12262 0001:00009D90
 12263 0001:00009D97 12266 0001:00009D9C 12269 0001:00009DAA 12270 0001:00009DC4
 12272 0001:00009DD8 12267 0001:00009DDD 12274 0001:00009DFE 12279 0001:00009E04
 12280 0001:00009E0D 12281 0001:00009E12 12283 0001:00009E19 12284 0001:00009E26
 12286 0001:00009E48 12287 0001:00009E55 12289 0001:00009E57 12281 0001:00009E5A
 12290 0001:00009E63 12303 0001:00009E68 12305 0001:00009E71 12307 0001:00009E7A
 12308 0001:00009E80 12309 0001:00009EA5 12310 0001:00009EAE 12313 0001:00009EB6
 12315 0001:00009EBC 12316 0001:00009ECB 12318 0001:00009ED0 12319 0001:00009EFC
 12320 0001:00009F02 12321 0001:00009F08 12322 0001:00009F0E 12323 0001:00009F12
 12324 0001:00009F16 12325 0001:00009F23 12326 0001:00009F28 12328 0001:00009F3B
 12329 0001:00009F46 12330 0001:00009F68 12333 0001:00009F75 12334 0001:00009F89
 12335 0001:00009F91 12337 0001:00009FDE 12339 0001:00009FF7 12340 0001:0000A011
 12341 0001:0000A020 12342 0001:0000A040 12343 0001:0000A060 12345 0001:0000A07E
 12346 0001:0000A084 12348 0001:0000A095 12350 0001:0000A09B 12351 0001:0000A0AF
 12352 0001:0000A0C2 12353 0001:0000A0D5 12357 0001:0000A0DC 12358 0001:0000A0E5
 12360 0001:0000A0EB 12363 0001:0000A0FD 12366 0001:0000A10D 12367 0001:0000A11E
 12368 0001:0000A129 12370 0001:0000A14E 12371 0001:0000A15B 12374 0001:0000A16D
 12375 0001:0000A190 12376 0001:0000A19B 12380 0001:0000A20A 12381 0001:0000A247
 12482 0001:0000A264 12483 0001:0000A273 12484 0001:0000A277 12485 0001:0000A27E
 12486 0001:0000A2A7 12487 0001:0000A2AE 12488 0001:0000A2D7 12489 0001:0000A2DE
 12490 0001:0000A2EF 12491 0001:0000A309 12492 0001:0000A30F 12493 0001:0000A315
 12494 0001:0000A31B 12496 0001:0000A330 12497 0001:0000A34A 12499 0001:0000A35F
 12500 0001:0000A379 12501 0001:0000A38E 12504 0001:0000A3A8 12505 0001:0000A3AE
 12506 0001:0000A3D7 12508 0001:0000A3DE 12509 0001:0000A407 12510 0001:0000A40E
 12512 0001:0000A414 12513 0001:0000A422 12514 0001:0000A42F 12516 0001:0000A437
 12517 0001:0000A442 12518 0001:0000A462 12565 0001:0000A480 12566 0001:0000A489
 12567 0001:0000A498 12568 0001:0000A4B4 12593 0001:0000A4B8 12594 0001:0000A4C4
 12595 0001:0000A4CB 12596 0001:0000A4F6 12608 0001:0000A4FC 12609 0001:0000A505
 12610 0001:0000A514 12611 0001:0000A530 12636 0001:0000A534 12637 0001:0000A540
 12638 0001:0000A547 12639 0001:0000A572 12651 0001:0000A578 12652 0001:0000A581
 12653 0001:0000A590 12654 0001:0000A5AC 12680 0001:0000A5B0 12681 0001:0000A5BC
 12682 0001:0000A5C0 12683 0001:0000A5C7 12684 0001:0000A5CF 12688 0001:0000A600
 12690 0001:0000A610 12691 0001:0000A61E 12693 0001:0000A62C 12694 0001:0000A63B
 12725 0001:0000A644 12726 0001:0000A653 12729 0001:0000A678 12730 0001:0000A693
 12731 0001:0000A6A4 12747 0001:0000A6A8 12748 0001:0000A6BA 12749 0001:0000A6D6
 12750 0001:0000A6FB 12762 0001:0000A704 12763 0001:0000A713 12764 0001:0000A72A
 12765 0001:0000A732 12766 0001:0000A73B 12803 0001:0000A740 12804 0001:0000A74F
 12805 0001:0000A763 12806 0001:0000A77C 12808 0001:0000A784 12809 0001:0000A79E
 12810 0001:0000A7A6 12812 0001:0000A7AD 12814 0001:0000A7DC 12816 0001:0000A80B
 12810 0001:0000A80E 12817 0001:0000A814 12819 0001:0000A81B 12820 0001:0000A82C
 12822 0001:0000A85A 12824 0001:0000A888 12817 0001:0000A88B 12825 0001:0000A8B3
 12912 0001:0000A8B8 12913 0001:0000A8BE 12914 0001:0000A8C3 12916 0001:0000A8CC
 12918 0001:0000A8D2 12915 0001:0000A8D5 12919 0001:0000A8E2 12920 0001:0000A8F4
 12921 0001:0000A8FE 12926 0001:0000A904 12927 0001:0000A91D 12928 0001:0000A922
 12930 0001:0000A92B 12932 0001:0000A931 12929 0001:0000A934 12933 0001:0000A941
 12934 0001:0000A960 12935 0001:0000A987 12941 0001:0000A990 12942 0001:0000A9A9
 12944 0001:0000A9D1 12947 0001:0000A9DC 12948 0001:0000A9F2 12949 0001:0000A9F9
 12948 0001:0000AA0A 12950 0001:0000AA10 12953 0001:0000AA43 12961 0001:0000AA54
 12962 0001:0000AA7C 12963 0001:0000AA83 12964 0001:0000AA8B 12966 0001:0000AAB3
 12968 0001:0000AAC2 12969 0001:0000AADD 12973 0001:0000AAE5 12974 0001:0000AAF7
 12975 0001:0000AB17 12971 0001:0000AB1A 12979 0001:0000AB2C 12980 0001:0000AB37
 12985 0001:0000AB3C 12987 0001:0000AB54 12988 0001:0000AB62 12989 0001:0000AB82
 12992 0001:0000AB8D 12994 0001:0000ABAA 12995 0001:0000ABBA 12997 0001:0000ABC2
 12999 0001:0000ABDF 13000 0001:0000ABEF 13002 0001:0000ABF5 13004 0001:0000AC12
 13005 0001:0000AC22 13007 0001:0000AC27 13008 0001:0000AC39 13010 0001:0000AC4B
 13011 0001:0000AC6B 12983 0001:0000AC6E 13014 0001:0000ACA1 13122 0001:0000ACF8
 13123 0001:0000ACFB 13124 0001:0000ACFD 13125 0001:0000ACFF 13127 0001:0000AD04
 13138 0001:0000AD08 13139 0001:0000AD1A 13140 0001:0000AD2C 13143 0001:0000AD54
 13144 0001:0000AD6B 13147 0001:0000AD7A 13148 0001:0000AD86 13149 0001:0000ADA6
 13150 0001:0000ADAE 13151 0001:0000ADB6 13153 0001:0000ADC8 13154 0001:0000ADD6
 13155 0001:0000ADE1 13157 0001:0000ADFC 13159 0001:0000AE21 13161 0001:0000AEA1
 13162 0001:0000AEAF 13200 0001:0000AEC0 13201 0001:0000AECF 13202 0001:0000AEE5
 13204 0001:0000AEEF 13205 0001:0000AEFE 13206 0001:0000AF11 13207 0001:0000AF37
 13212 0001:0000AF53 13213 0001:0000AF72 13215 0001:0000AF89 13251 0001:0000AF9C
 13252 0001:0000AFB7 13253 0001:0000AFE0 13257 0001:0000AFE4 13258 0001:0000B013
 13259 0001:0000B06B 13267 0001:0000B074 13268 0001:0000B08F 13269 0001:0000B0B8
 13279 0001:0000B0BC 13280 0001:0000B0EE 13281 0001:0000B156 13284 0001:0000B160
 13285 0001:0000B17B 13286 0001:0000B189 13287 0001:0000B1AD 13291 0001:0000B1B4
 13292 0001:0000B1E3 13293 0001:0000B203 13294 0001:0000B244 13328 0001:0000B24C
 13329 0001:0000B253 13330 0001:0000B25C 13331 0001:0000B264 13353 0001:0000B288
 13354 0001:0000B28E 13355 0001:0000B293 13356 0001:0000B29D 13357 0001:0000B2B5
 13358 0001:0000B2BB 13359 0001:0000B2D6 13360 0001:0000B2FB 13361 0001:0000B307
 13405 0001:0000B32C 13406 0001:0000B338 13408 0001:0000B34A 13410 0001:0000B354
 13413 0001:0000B35E 13414 0001:0000B36D 13417 0001:0000B384 13419 0001:0000B38C
 13420 0001:0000B397 13436 0001:0000B39C 13437 0001:0000B3C2 13438 0001:0000B3E2
 13440 0001:0000B44D 13448 0001:0000B454 13449 0001:0000B456 13450 0001:0000B459
 13451 0001:0000B45C 13452 0001:0000B461 13461 0001:0000B464 13462 0001:0000B473
 13466 0001:0000B484 13470 0001:0000B495 13477 0001:0000B49C 13478 0001:0000B49F
 13479 0001:0000B4B6 13579 0001:0000B4B8 13580 0001:0000B4C1 13582 0001:0000B51F
 13584 0001:0000B525 13586 0001:0000B52B 13590 0001:0000B531 13592 0001:0000B537
 13594 0001:0000B53D 13597 0001:0000B543 13599 0001:0000B549 13601 0001:0000B54F
 13603 0001:0000B555 13605 0001:0000B55B 13607 0001:0000B561 13609 0001:0000B568
 13614 0001:0000B56C 13615 0001:0000B575 13616 0001:0000B580 13617 0001:0000B592
 13629 0001:0000B598 13630 0001:0000B5CC 13632 0001:0000B5D5 13633 0001:0000B5DE
 13635 0001:0000B5ED 13636 0001:0000B5FA 13637 0001:0000B603 13638 0001:0000B615
 13640 0001:0000B63F 13644 0001:0000B6DC 13647 0001:0000B778 13649 0001:0000B77C
 13650 0001:0000B798 13651 0001:0000B7A8 13653 0001:0000B7BB 13654 0001:0000B7DF
 13656 0001:0000B7EB 13658 0001:0000B81C 13659 0001:0000B857 13692 0001:0000B85C
 13693 0001:0000B868 13694 0001:0000B873 13695 0001:0000B87D 13974 0001:0000B884
 13975 0001:0000B887 13976 0001:0000B89E 13977 0001:0000B8B5 13978 0001:0000B8C0
 13979 0001:0000B8CB 13982 0001:0000B8D8 13983 0001:0000B8E3 13986 0001:0000B8EE
 13997 0001:0000B8FB 14004 0001:0000B908 14007 0001:0000B90C 14008 0001:0000B90F
 14010 0001:0000B918 14011 0001:0000B921 14012 0001:0000B92B 14014 0001:0000B932
 14016 0001:0000B93B 14017 0001:0000B944 14018 0001:0000B94E 14020 0001:0000B955
 14021 0001:0000B95E 14022 0001:0000B967 14024 0001:0000B970 14025 0001:0000B979
 14027 0001:0000B982 14032 0001:0000B98B 14038 0001:0000B990 14039 0001:0000B999
 14040 0001:0000B9A3 14043 0001:0000B9B3 14044 0001:0000B9BE 14045 0001:0000B9C9
 14046 0001:0000B9D4 14047 0001:0000B9DD 14049 0001:0000B9EF 14050 0001:0000B9FA
 14052 0001:0000BA0C 14123 0001:0000BA10 14124 0001:0000BA1C 14125 0001:0000BA20
 14126 0001:0000BA36 14128 0001:0000BA3C 14132 0001:0000BA55 14133 0001:0000BA5E
 14134 0001:0000BA7E 14135 0001:0000BA9A 14137 0001:0000BAB8 14164 0001:0000BABC
 14165 0001:0000BAC8 14166 0001:0000BACC 14167 0001:0000BAD5 14168 0001:0000BAEC
 14171 0001:0000BAF0 14172 0001:0000BAFC 14173 0001:0000BB00 14174 0001:0000BB09
 14175 0001:0000BB1A 14178 0001:0000BB20 14179 0001:0000BB2C 14180 0001:0000BB44
 14181 0001:0000BB55 14186 0001:0000BB5C 14187 0001:0000BB68 14188 0001:0000BB6D
 14189 0001:0000BB80 14190 0001:0000BB86 14191 0001:0000BB8F 14192 0001:0000BB96
 14193 0001:0000BB9B 14195 0001:0000BBA3 14196 0001:0000BBBB 14198 0001:0000BBCB
 14199 0001:0000BBCE 14193 0001:0000BBD1 14201 0001:0000BBDC 14206 0001:0000BBE0
 14207 0001:0000BBEF 14208 0001:0000BBFA 14209 0001:0000BC01 14212 0001:0000BC0A
 14213 0001:0000BC0D 14214 0001:0000BC25 14216 0001:0000BC35 14210 0001:0000BC38
 14218 0001:0000BC48 14219 0001:0000BC70 14220 0001:0000BC7F 14221 0001:0000BC87
 14222 0001:0000BC8F 14227 0001:0000BC98 14228 0001:0000BCA4 14229 0001:0000BCA9
 14230 0001:0000BCBC 14232 0001:0000BCCB 14233 0001:0000BCDE 14234 0001:0000BCF4
 14236 0001:0000BCFB 14239 0001:0000BD00 14240 0001:0000BD09 14245 0001:0000BD10
 14246 0001:0000BD1C 14247 0001:0000BD21 14248 0001:0000BD27 14249 0001:0000BD3F
 14251 0001:0000BD48 14252 0001:0000BD5A 14253 0001:0000BD67 14256 0001:0000BD74
 14257 0001:0000BD7D 14262 0001:0000BD84 14268 0001:0000BD8D 14269 0001:0000BD96
 14271 0001:0000BDA7 14273 0001:0000BDB1 14276 0001:0000BDB8 14281 0001:0000BDC1
 14283 0001:0000BDD0 14286 0001:0000BDD4 14287 0001:0000BDE0 14289 0001:0000BDE7
 14290 0001:0000BE08 14291 0001:0000BE1F 14294 0001:0000BE24 14295 0001:0000BE30
 14297 0001:0000BE37 14298 0001:0000BE58 14299 0001:0000BE72 14302 0001:0000BE78
 14303 0001:0000BE84 14305 0001:0000BEBF 14308 0001:0000BEC4 14309 0001:0000BED3
 14310 0001:0000BED7 14311 0001:0000BEF9 14312 0001:0000BF19 14320 0001:0000BF20
 14321 0001:0000BF2C 14322 0001:0000BF37 14323 0001:0000BF51 14324 0001:0000BF61
 14332 0001:0000BF74 14333 0001:0000BF80 14334 0001:0000BF8B 14335 0001:0000BFA5
 14336 0001:0000BFBA 14341 0001:0000BFC0 14342 0001:0000BFCC 14343 0001:0000BFD1
 14344 0001:0000BFEB 14345 0001:0000BFF1 14346 0001:0000C005 14433 0001:0000C00C
 14434 0001:0000C018 14435 0001:0000C01D 14436 0001:0000C049 14437 0001:0000C054
 14438 0001:0000C05F 14441 0001:0000C06F 14443 0001:0000C080 14445 0001:0000C0A7
 14451 0001:0000C0B0 14452 0001:0000C0B3 14439 0001:0000C0C1 14454 0001:0000C0D7
 14455 0001:0000C0DF 14458 0001:0000C0E4 14459 0001:0000C0F0 14460 0001:0000C0FE
 14461 0001:0000C104 14463 0001:0000C10A 14465 0001:0000C110 14466 0001:0000C116
 14467 0001:0000C119 14463 0001:0000C127 14470 0001:0000C130 14473 0001:0000C134
 14474 0001:0000C140 14475 0001:0000C14E 14478 0001:0000C154 14480 0001:0000C16A
 14486 0001:0000C16D 14487 0001:0000C170 14475 0001:0000C17E 14489 0001:0000C187
 14495 0001:0000C18C 14496 0001:0000C1A8 14497 0001:0000C1BC 14498 0001:0000C200
 14516 0001:0000C204 14517 0001:0000C20A 14520 0001:0000C221 14523 0001:0000C228
 14524 0001:0000C247 14523 0001:0000C259 14525 0001:0000C25E 14521 0001:0000C262
 14528 0001:0000C27E 14562 0001:0000C284 14563 0001:0000C288 14564 0001:0000C2A2
 14566 0001:0000C2A8 14568 0001:0000C2B3 14569 0001:0000C2BD 14570 0001:0000C2C7
 14572 0001:0000C2D1 14573 0001:0000C2D9 14575 0001:0000C2E7 14576 0001:0000C2EF
 14578 0001:0000C2F6 14579 0001:0000C306 14582 0001:0000C312 14583 0001:0000C323
 14585 0001:0000C330 14587 0001:0000C33B 14588 0001:0000C342 14593 0001:0000C34E
 14594 0001:0000C355 14595 0001:0000C36E 14597 0001:0000C377 14598 0001:0000C37E
 14602 0001:0000C383 14603 0001:0000C38A 14602 0001:0000C39A 14604 0001:0000C3A3
 14605 0001:0000C3AC 14606 0001:0000C3C9 14608 0001:0000C3D0 14609 0001:0000C3E4
 14611 0001:0000C3ED 14606 0001:0000C3F0 14616 0001:0000C3FB 14617 0001:0000C40C
 14618 0001:0000C41D 14619 0001:0000C426 14621 0001:0000C42D 14646 0001:0000C454
 14647 0001:0000C472 14648 0001:0000C477 14649 0001:0000C47C 14650 0001:0000C48A
 14651 0001:0000C492 14652 0001:0000C4B2 14653 0001:0000C4D7 14654 0001:0000C4FC
 14655 0001:0000C510 14656 0001:0000C524 14657 0001:0000C549 14658 0001:0000C55D
 14659 0001:0000C58B 14660 0001:0000C5B9 14661 0001:0000C5CD 14662 0001:0000C5F0
 14663 0001:0000C613 14664 0001:0000C61B 14665 0001:0000C623 14666 0001:0000C647
 14667 0001:0000C656 14668 0001:0000C663 14669 0001:0000C687 14670 0001:0000C6AB
 14672 0001:0000C6BA 14673 0001:0000C6C7 14674 0001:0000C6E4 14675 0001:0000C701
 14676 0001:0000C744 14889 0001:0000C7E8 14890 0001:0000C814 14892 0001:0000C81A
 14893 0001:0000C825 14896 0001:0000C832 14897 0001:0000C83D 14899 0001:0000C848
 14900 0001:0000C853 14903 0001:0000C860 14904 0001:0000C86E 14906 0001:0000C874
 14907 0001:0000C882 14909 0001:0000C887 14910 0001:0000C8B4 14911 0001:0000C8D2
 14913 0001:0000C8D8 14914 0001:0000C8E6 14916 0001:0000C8E8 14901 0001:0000C906
 14918 0001:0000C93A 15443 0001:0000C944 15631 0001:0000C94C 15632 0001:0000C965
 15633 0001:0000C96D 15634 0001:0000C973 15637 0001:0000C9AF 15638 0001:0000C9C4
 15639 0001:0000C9CD 15640 0001:0000C9F2 15653 0001:0000C9F8 15654 0001:0000CA01
 15655 0001:0000CA0C 15656 0001:0000CA15 15695 0001:0000CA1C 15698 0001:0000CA22
 15699 0001:0000CA2A 15700 0001:0000CA34 15696 0001:0000CA41 15702 0001:0000CA4A
 15811 0001:0000CA50 15812 0001:0000CA54 15813 0001:0000CA61 15814 0001:0000CA67
 15815 0001:0000CA7A 15816 0001:0000CA83 15817 0001:0000CA8D 15824 0001:0000CAB4
 15825 0001:0000CAB9 15826 0001:0000CABA 15827 0001:0000CABE 15828 0001:0000CABF
 15832 0001:0000CAC0 15833 0001:0000CAC5 15834 0001:0000CAC6 15835 0001:0000CACA
 15836 0001:0000CACB 15840 0001:0000CACC 15841 0001:0000CACE 15842 0001:0000CAD0
 15847 0001:0000CAD4 15848 0001:0000CAD5 15849 0001:0000CAD9 15896 0001:0000CADC
 15897 0001:0000CAED 15899 0001:0000CAF2 15900 0001:0000CAFF 15901 0001:0000CB0B
 15903 0001:0000CB11 15904 0001:0000CB17 15905 0001:0000CB1F 15901 0001:0000CB27
 15907 0001:0000CB2D 15897 0001:0000CB30 15908 0001:0000CB36 15909 0001:0000CB52
 15914 0001:0000CB58 15915 0001:0000CB61 15916 0001:0000CB6A 15917 0001:0000CB78
 15924 0001:0000CB7C 15925 0001:0000CB88 15926 0001:0000CB93 15928 0001:0000CB9B
 15930 0001:0000CBAC 15929 0001:0000CBB4 15932 0001:0000CBC5 15934 0001:0000CBCB
 15936 0001:0000CBD6 15938 0001:0000CBDC 15939 0001:0000CBE9 15940 0001:0000CBF2
 15945 0001:0000CBFC 15946 0001:0000CC04 15949 0001:0000CC1D 15950 0001:0000CC25
 15958 0001:0000CC2C 15959 0001:0000CC38 15960 0001:0000CC42 15961 0001:0000CC4C
 15966 0001:0000CC50 15967 0001:0000CC59 15968 0001:0000CC70 15970 0001:0000CC76
 15971 0001:0000CC89 15973 0001:0000CC92 15974 0001:0000CC9D 15977 0001:0000CC9F
 15968 0001:0000CCA7 15979 0001:0000CCB0 15991 0001:0000CCB4 15992 0001:0000CCCC
 15993 0001:0000CCD6 15994 0001:0000CCE0 15995 0001:0000CCF3 15996 0001:0000CD06
 15997 0001:0000CD10 15998 0001:0000CD3D 16001 0001:0000CD44 16002 0001:0000CD55
 16003 0001:0000CD5D 16004 0001:0000CD6B 16005 0001:0000CD77 16006 0001:0000CD83
 16007 0001:0000CD9C 16010 0001:0000CDA0 16011 0001:0000CDA7 16012 0001:0000CDB3
 16015 0001:0000CDB8 16016 0001:0000CDBF 16017 0001:0000CDCB 16020 0001:0000CDD0
 16021 0001:0000CDD7 16022 0001:0000CDE3 16025 0001:0000CDE8 16026 0001:0000CDEF
 16027 0001:0000CE02 16030 0001:0000CE08 16031 0001:0000CE0F 16032 0001:0000CE22
 16052 0001:0000CE28 16067 0001:0000CE31 16068 0001:0000CE35 16069 0001:0000CE3D
 16073 0001:0000CE4C 16075 0001:0000CE54 16077 0001:0000CE5D 16080 0001:0000CE6B
 16082 0001:0000CE76 16083 0001:0000CE7C 16098 0001:0000CE89 16104 0001:0000CE9C
 16109 0001:0000CEA2 16089 0001:0000CEAA 16120 0001:0000CEC1 16123 0001:0000CEC9
 16124 0001:0000CECF 16126 0001:0000CEDA 16128 0001:0000CEE3 16131 0001:0000CEF6
 16135 0001:0000CEFF 16140 0001:0000CF04 16145 0001:0000CF0D 16146 0001:0000CF1B
 16147 0001:0000CF21 16149 0001:0000CF2A 16150 0001:0000CF32 16154 0001:0000CF42
 16158 0001:0000CF4A 16160 0001:0000CF52 16161 0001:0000CF5B 16165 0001:0000CF69
 16172 0001:0000CF70 16177 0001:0000CF79 16178 0001:0000CF87 16179 0001:0000CF8D
 16181 0001:0000CF98 16190 0001:0000CFA5 16194 0001:0000CFAB 16204 0001:0000CFB5
 16207 0001:0000CFC3 16208 0001:0000CFCC 16211 0001:0000CFD4 16216 0001:0000CFDB
 16195 0001:0000CFE3 16226 0001:0000CFF2 16232 0001:0000CFF8 16236 0001:0000D001
 16237 0001:0000D00F 16238 0001:0000D015 16240 0001:0000D01E 16243 0001:0000D02C
 16245 0001:0000D039 16253 0001:0000D047 16254 0001:0000D050 16255 0001:0000D05A
 16257 0001:0000D060 16258 0001:0000D06F 16265 0001:0000D077 16271 0001:0000D07C
 16272 0001:0000D085 16273 0001:0000D08D 16274 0001:0000D094 16275 0001:0000D09C
 16599 0001:0000D370 16605 0001:0000D397 16606 0001:0000D39C 16608 0001:0000D4EC
 16580 0001:0000D4F0 16581 0001:0000D51E 16582 0001:0000D536 16592 0001:0000D53B
 16593 0001:0000D540 16595 0001:0000D545 16597 0001:0000D55F

Line numbers for VarUtils(varutils.pas) segment .text

   309 0001:0000D570   310 0001:0000D578   311 0001:0000D580   313 0001:0000D588
  1071 0001:0000D590  1072 0001:0000D594  1073 0001:0000D59D  1075 0001:0000D5A6
  1076 0001:0000D5C3  1080 0001:0000D5C8  1081 0001:0000D5CC  1082 0001:0000D5D6
  1085 0001:0000D5DC  1086 0001:0000D5E0  1087 0001:0000D5EA  1090 0001:0000D5F0
  1091 0001:0000D5F4  1092 0001:0000D5FE  1102 0001:0000D604  1103 0001:0000D61D
  1104 0001:0000D626  1106 0001:0000D62F  1107 0001:0000D672  1111 0001:0000D678
  1112 0001:0000D691  1113 0001:0000D69A  1115 0001:0000D6A3  1116 0001:0000D6E6
  1120 0001:0000D6EC  1121 0001:0000D705  1122 0001:0000D70E  1124 0001:0000D717
  1125 0001:0000D75A  1129 0001:0000D760  1130 0001:0000D779  1131 0001:0000D782
  1133 0001:0000D78B  1134 0001:0000D7CE  1138 0001:0000D7D4  1139 0001:0000D7ED
  1140 0001:0000D7F6  1142 0001:0000D7FF  1143 0001:0000D842  1149 0001:0000D848
  1150 0001:0000D861  1151 0001:0000D86A  1154 0001:0000D873  1155 0001:0000D896
  1157 0001:0000D8C3  1162 0001:0000D8CC  1163 0001:0000D8F0  1164 0001:0000D8F9
  1167 0001:0000D902  1168 0001:0000D91B  1170 0001:0000D940  1174 0001:0000D948
  1175 0001:0000D96C  1176 0001:0000D975  1179 0001:0000D97E  1180 0001:0000D997
  1182 0001:0000D9BC  1186 0001:0000D9C4  1187 0001:0000D9E8  1188 0001:0000D9F1
  1191 0001:0000D9FA  1192 0001:0000DA17  1194 0001:0000DA3C  1201 0001:0000DA44
  1210 0001:0000DA4C  1211 0001:0000DA54  1219 0001:0000DA5C  2028 0001:0000DA64
  2029 0001:0000DA70  2030 0001:0000DA76  2032 0001:0000DA7F  2033 0001:0000DA92
  2034 0001:0000DA98  2036 0001:0000DAA1  2038 0001:0000DAA8  2039 0001:0000DAAC
  2045 0001:0000DAB9  2076 0001:0000DACF  2077 0001:0000DAE5  2079 0001:0000DAFB
  2080 0001:0000DB11  2081 0001:0000DB27  2082 0001:0000DB3D  2083 0001:0000DB53
  2084 0001:0000DB69  2085 0001:0000DB7F  2086 0001:0000DB95  2087 0001:0000DBAB
  2089 0001:0000DBC1  2091 0001:0000DBD7  2092 0001:0000DBED  2093 0001:0000DC03
  2094 0001:0000DC19  2095 0001:0000DC2F  2096 0001:0000DC45  2098 0001:0000DC5B
  2099 0001:0000DC71  2100 0001:0000DC87  2102 0001:0000DC9D  2138 0001:0000DDE4
  2139 0001:0000DDF0  2140 0001:0000DDF5

Line numbers for Variants(variants.pas) segment .text

   196 0001:0000DDF8   519 0001:0000E3D0   520 0001:0000E3E3   521 0001:0000E421
   524 0001:0000E424   525 0001:0000E449   527 0001:0000E4BA   530 0001:0000E4C0
   531 0001:0000E4D3   532 0001:0000E511   540 0001:0000E514   541 0001:0000E539
   543 0001:0000E5AA   556 0001:0000E5B0   557 0001:0000E5C3   558 0001:0000E601
   561 0001:0000E604   562 0001:0000E624   563 0001:0000E693   564 0001:0000E69D
   565 0001:0000E6C3   566 0001:0000E6CD   567 0001:0000E6F3   568 0001:0000E719
   569 0001:0000E73F   570 0001:0000E765   571 0001:0000E78B   572 0001:0000E7AE
   574 0001:0000E7D1   577 0001:0000E850   581 0001:0000E858   582 0001:0000E85C
   583 0001:0000E861   586 0001:0000E864   587 0001:0000E865   588 0001:0000E869
   589 0001:0000E87A   590 0001:0000E885   592 0001:0000E890   594 0001:0000E895
   614 0001:0000E898   615 0001:0000E8AB   616 0001:0000E8E9   636 0001:0000E8EC
   638 0001:0000E8F9   639 0001:0000E90D   640 0001:0000E90E   641 0001:0000E918
   646 0001:0000E91C   647 0001:0000E921   648 0001:0000E923   649 0001:0000E92D
   650 0001:0000E94F   651 0001:0000E953   654 0001:0000E957   655 0001:0000E964
   657 0001:0000E973   658 0001:0000E978   660 0001:0000E98A   661 0001:0000E996
   664 0001:0000E9A0   668 0001:0000E9BA   669 0001:0000E9C5   671 0001:0000E9D8
   674 0001:0000E9E7   675 0001:0000E9F6   676 0001:0000EA0A   678 0001:0000EA12
   679 0001:0000EA31   681 0001:0000EA4D   682 0001:0000EA65   675 0001:0000EA69
   685 0001:0000EA6C   686 0001:0000EA84   685 0001:0000EA8E   690 0001:0000EA91
   692 0001:0000EAA5   695 0001:0000EAC4   697 0001:0000EACF   701 0001:0000EADC
   702 0001:0000EAED   707 0001:0000EAF4   709 0001:0000EAF9   710 0001:0000EB02
   713 0001:0000EB0F   715 0001:0000EB16   716 0001:0000EB1B   720 0001:0000EB25
   721 0001:0000EB2C   724 0001:0000EB36   725 0001:0000EB3D   728 0001:0000EB46
   729 0001:0000EB53   733 0001:0000EB5F   734 0001:0000EB6A   739 0001:0000EB70
   740 0001:0000EB77   742 0001:0000EB7D   743 0001:0000EB82   747 0001:0000EB84
   748 0001:0000EB85   749 0001:0000EB8A   750 0001:0000EB8B   818 0001:0000EB8C
   820 0001:0000EB99   821 0001:0000EBAD   822 0001:0000EBAE   823 0001:0000EBB8
   828 0001:0000EBBC   829 0001:0000EBC1   830 0001:0000EBC3   831 0001:0000EBCD
   832 0001:0000EBEF   833 0001:0000EBF3   836 0001:0000EBF7   837 0001:0000EC04
   839 0001:0000EC13   840 0001:0000EC18   842 0001:0000EC32   843 0001:0000EC38
   846 0001:0000EC42   850 0001:0000EC56   851 0001:0000EC5B   853 0001:0000EC68
   856 0001:0000EC71   857 0001:0000EC80   858 0001:0000EC94   860 0001:0000EC9C
   861 0001:0000ECBB   862 0001:0000ECD7   863 0001:0000ECEF   857 0001:0000ECF3
   866 0001:0000ECF6   867 0001:0000ED11   868 0001:0000ED1A   871 0001:0000ED1F
   872 0001:0000ED2A   873 0001:0000ED35   876 0001:0000ED44   877 0001:0000ED5C
   876 0001:0000ED66   881 0001:0000ED69   883 0001:0000ED7D   884 0001:0000ED9C
   887 0001:0000EDBB   889 0001:0000EDCF   894 0001:0000EDDE   895 0001:0000EDF0
   899 0001:0000EDF8   900 0001:0000EDFD   905 0001:0000EE00   907 0001:0000EE08
   908 0001:0000EE0F   911 0001:0000EE16   912 0001:0000EE1F   915 0001:0000EE2D
   917 0001:0000EE34   918 0001:0000EE39   919 0001:0000EE3E   923 0001:0000EE4B
   925 0001:0000EE52   926 0001:0000EE55   927 0001:0000EE5B   931 0001:0000EE65
   932 0001:0000EE6C   935 0001:0000EE7C   936 0001:0000EE89   940 0001:0000EE9A
   941 0001:0000EEA6   944 0001:0000EEAC   946 0001:0000EEB2   950 0001:0000EEB6
   954 0001:0000EEBD   955 0001:0000EEC4   958 0001:0000EECB   959 0001:0000EECF
   960 0001:0000EED5   961 0001:0000EEDB   964 0001:0000EEE3   965 0001:0000EEEC
  2204 0001:0000EEF0  2205 0001:0000EEF6  2207 0001:0000EF21  2210 0001:0000EF28
  2211 0001:0000EF2E  2213 0001:0000EF59  2216 0001:0000EF60  2217 0001:0000EF7D
  2219 0001:0000EFA3  2221 0001:0000EFB4  2222 0001:0000EFD5  2224 0001:0000EFF6
  2226 0001:0000F01D  2231 0001:0000F024  2232 0001:0000F046  2233 0001:0000F04F
  2234 0001:0000F05D  2236 0001:0000F080  2238 0001:0000F0B8  2240 0001:0000F0EA
  2245 0001:0000F0F0  2246 0001:0000F0FC  2247 0001:0000F105  2248 0001:0000F113
  2249 0001:0000F11D  2250 0001:0000F126  2252 0001:0000F13D  2254 0001:0000F14D
  2260 0001:0000F154  2261 0001:0000F16B  2262 0001:0000F179  2264 0001:0000F17F
  2265 0001:0000F188  2266 0001:0000F196  2267 0001:0000F1A8  2269 0001:0000F1C0
  2272 0001:0000F1D3  2275 0001:0000F1D8  2276 0001:0000F1FC  2277 0001:0000F266
  2280 0001:0000F272  2281 0001:0000F27B  2282 0001:0000F288  2284 0001:0000F29A
  2285 0001:0000F2B5  2286 0001:0000F2CF  2287 0001:0000F2F0  2288 0001:0000F311
  2289 0001:0000F32E  2290 0001:0000F34B  2291 0001:0000F370  2292 0001:0000F38B
  2293 0001:0000F3A6  2294 0001:0000F3C2  2295 0001:0000F3DD  2296 0001:0000F3FB
  2298 0001:0000F418  2301 0001:0000F429  2303 0001:0000F442  2304 0001:0000F452
  2305 0001:0000F461  2307 0001:0000F47A  2308 0001:0000F483  2309 0001:0000F4EF
  2310 0001:0000F50C  2311 0001:0000F528  2312 0001:0000F54B  2313 0001:0000F56E
  2314 0001:0000F58D  2315 0001:0000F5AC  2316 0001:0000F5BD  2317 0001:0000F5DA
  2318 0001:0000F5F7  2319 0001:0000F614  2320 0001:0000F631  2321 0001:0000F64E
  2323 0001:0000F66A  2325 0001:0000F678  2328 0001:0000F68E  2329 0001:0000F6A2
  2332 0001:0000F70C  2345 0001:0000F714  2346 0001:0000F733  2347 0001:0000F73C
  2348 0001:0000F74A  2350 0001:0000F76D  2352 0001:0000F798  2354 0001:0000F7C5
  2359 0001:0000F7CC  2360 0001:0000F7D8  2361 0001:0000F7E1  2362 0001:0000F7EF
  2363 0001:0000F7F9  2364 0001:0000F802  2366 0001:0000F819  2368 0001:0000F829
  2374 0001:0000F830  2375 0001:0000F85A  2376 0001:0000F868  2378 0001:0000F86E
  2379 0001:0000F877  2380 0001:0000F885  2381 0001:0000F894  2383 0001:0000F8C2
  2386 0001:0000F8F2  2389 0001:0000F8F8  2390 0001:0000F91B  2391 0001:0000F985
  2394 0001:0000F991  2395 0001:0000F99A  2396 0001:0000F9A7  2398 0001:0000F9B9
  2399 0001:0000F9D4  2400 0001:0000F9EE  2401 0001:0000FA0F  2402 0001:0000FA30
  2403 0001:0000FA4D  2404 0001:0000FA6A  2405 0001:0000FA82  2406 0001:0000FA9D
  2407 0001:0000FAB8  2408 0001:0000FAD4  2409 0001:0000FAEF  2410 0001:0000FB0D
  2412 0001:0000FB2A  2415 0001:0000FB3B  2417 0001:0000FB54  2418 0001:0000FB64
  2419 0001:0000FB73  2421 0001:0000FB8C  2422 0001:0000FB95  2423 0001:0000FC01
  2424 0001:0000FC1E  2425 0001:0000FC3A  2426 0001:0000FC5D  2427 0001:0000FC80
  2428 0001:0000FC9F  2429 0001:0000FCBE  2430 0001:0000FCCF  2431 0001:0000FCEC
  2432 0001:0000FD09  2433 0001:0000FD26  2434 0001:0000FD43  2435 0001:0000FD60
  2437 0001:0000FD7C  2439 0001:0000FD8A  2442 0001:0000FDA0  2443 0001:0000FDB4
  2446 0001:0000FE45  3942 0001:0000FE4C  3943 0001:0000FE50  3944 0001:0000FE52
  3945 0001:0000FE55  3946 0001:0000FE58  3947 0001:0000FE5B  3948 0001:0000FE5D
  3949 0001:0000FE62  3950 0001:0000FE64  3951 0001:0000FE69  3953 0001:0000FE6C
  3963 0001:0000FFD0  3964 0001:0000FFF6  3965 0001:00010003  3966 0001:00010019
  3967 0001:00010020  3968 0001:00010031  3969 0001:00010038  3970 0001:00010046
  3971 0001:00010054  3973 0001:0001008F  3975 0001:000100B7  3976 0001:000100BC
  3977 0001:000100CA  3978 0001:000100CF  3979 0001:000100FD  4194 0001:00010140
  4195 0001:00010146  4196 0001:0001014D  4197 0001:00010152  4198 0001:00010155
  4210 0001:00010158  4211 0001:00010162  5012 0001:00010188  5013 0001:00010192
  5014 0001:0001019C  5015 0001:000101AA  5016 0001:000101B9  5017 0001:000101C6
  5015 0001:000101CC  5019 0001:000101DE  5021 0001:000101F0  5027 0001:000101F4
  5028 0001:000101F7  5029 0001:000101FC  5034 0001:00010200  5035 0001:0001020A
  5036 0001:00010218  5038 0001:0001022C  5039 0001:00010233  5045 0001:00010238
  5046 0001:0001024B  5048 0001:00010260  5050 0001:00010270  5051 0001:00010277
  5055 0001:00010280  5056 0001:00010283  5057 0001:00010288  5072 0001:0001028C
  5073 0001:00010297  5074 0001:000102A4  5075 0001:000102B9  5081 0001:000102C4
  5082 0001:000102CF  5083 0001:000102DE  5085 0001:000102F0  5086 0001:000102F7
  5127 0001:00010300  5128 0001:00010311  5129 0001:0001031B  5130 0001:00010329
  5131 0001:00010335  5133 0001:00010358  5136 0001:0001036A  5137 0001:00010386
  5141 0001:0001038C  5142 0001:0001038E  5146 0001:00010390  5147 0001:00010393
  5148 0001:0001039D  5149 0001:0001039F  5154 0001:000103A4  5155 0001:000103A9
  5156 0001:000103AB  5160 0001:000103AC  5161 0001:000103B1  5165 0001:000103B4
  5166 0001:000103B9  5170 0001:000103BC  5171 0001:000103C1  5175 0001:000103C4
  5176 0001:000103C7  5177 0001:000103D1  5178 0001:000103D3  5196 0001:000103D8
  5197 0001:000103DD  5257 0001:000103E0  5258 0001:000103E3  5259 0001:000103E8
  5277 0001:000103EC  5278 0001:000103EF  5279 0001:000103F2  5282 0001:000103F8
  5283 0001:000103FB  5284 0001:000103FE  5289 0001:00010404  5290 0001:0001040B
  5291 0001:0001041C  5293 0001:00010420  5294 0001:00010425  5545 0001:0001042C
  5547 0001:00010437  5549 0001:00010457  5551 0001:0001045D  5552 0001:00010467
  5553 0001:00010475  5554 0001:00010490  5556 0001:00010496  5557 0001:000104A4
  5561 0001:000104C9  5564 0001:000104DE  5780 0001:000104E4  5781 0001:00010502
  5782 0001:0001055A  5764 0001:0001055C  5765 0001:00010576  5767 0001:00010580
  5768 0001:0001058A  5769 0001:00010594  5770 0001:0001059F  5772 0001:000105A4
  5773 0001:000105B1  5774 0001:000105BE  5775 0001:000105CB  5776 0001:000105D8
  5778 0001:000105E5  5779 0001:00010604

Line numbers for RTLConsts(RTLConsts.pas) segment .text

   319 0001:000106C8   319 0001:000106CF

Line numbers for TypInfo(TypInfo.pas) segment .text

  2154 0001:0001074C  2154 0001:00010753

Line numbers for ActiveX(ActiveX.pas) segment .text

  6690 0001:00010784  6690 0001:0001078B

Line numbers for Classes(classes.pas) segment .text

  1783 0001:00011198  1784 0001:000111B3  1785 0001:000111BD  1786 0001:000111CF
  1787 0001:000111E1  1788 0001:000111F3  1789 0001:0001121C  1792 0001:00011220
  1793 0001:00011231  1794 0001:0001123F  1795 0001:0001124A  1796 0001:00011255
  1797 0001:0001126E  1868 0001:00011274  1869 0001:00011280  1870 0001:0001129F
  1875 0001:000112A4  1883 0001:000112B0  1884 0001:000112C2  1885 0001:000112DC
  1883 0001:000112ED  1886 0001:000112F3  1887 0001:00011305  1888 0001:0001131F
  1886 0001:00011330  1889 0001:00011336  1890 0001:0001134A  1891 0001:00011364
  1889 0001:00011375  1892 0001:0001137B  1917 0001:00011380  1918 0001:00011398
  1919 0001:000113A2  1920 0001:000113B4  1922 0001:000113C0  1923 0001:000113D5
  1924 0001:000113E3  1925 0001:00011405  1930 0001:0001140C  1931 0001:0001141D
  1932 0001:00011429  1933 0001:00011442  1932 0001:00011458  1934 0001:0001145D
  1935 0001:00011468  1936 0001:00011484  2019 0001:00011488  2020 0001:0001148F
  2021 0001:0001149B  2063 0001:000114A0  2064 0001:000114A7  2065 0001:000114B3
  2079 0001:000114B8  2080 0001:000114C4  2082 0001:000114D6  2083 0001:000114E7
  2084 0001:000114F2  2086 0001:000114FE  2087 0001:00011506  2089 0001:00011514
  2080 0001:00011517  2090 0001:0001151D  2249 0001:00011524  2250 0001:0001152B
  2251 0001:00011535  2252 0001:00011543  2254 0001:0001155D  2256 0001:0001156F
  2746 0001:00011574  2747 0001:00011585  2748 0001:0001159B  2751 0001:000115A0
  2752 0001:000115AD  2753 0001:000115B6  2754 0001:000115C1  2755 0001:000115C8
  2756 0001:000115D7  2757 0001:000115DD  2758 0001:000115E3  2759 0001:000115F3
  2762 0001:000115F8  2763 0001:000115FF  2764 0001:00011609  2765 0001:00011613
  2770 0001:00011618  2771 0001:00011625  2772 0001:00011636  2773 0001:00011649
  2774 0001:00011657  2775 0001:0001165D  2776 0001:00011668  2778 0001:00011694
  2779 0001:0001169A  2780 0001:000116A7  2785 0001:000116AC  2786 0001:000116AF
  2787 0001:000116B2  2789 0001:000116B4  2790 0001:000116C3  2791 0001:000116EF
  2794 0001:000116F4  2795 0001:00011717  2796 0001:0001174F  2824 0001:00011754
  2825 0001:00011760  2826 0001:00011771  2827 0001:00011784  2828 0001:00011796
  2833 0001:0001179C  2834 0001:000117A5  2835 0001:000117AE  2837 0001:000117C3
  2838 0001:000117CC  2840 0001:000117D5  2841 0001:000117DC  2842 0001:000117ED
  2845 0001:000117F4  2846 0001:00011800  2848 0001:00011807  2847 0001:0001180A
  2849 0001:00011826  2850 0001:00011831  2851 0001:0001183B  2892 0001:00011840
  2893 0001:00011850  2894 0001:00011861  2895 0001:00011874  2897 0001:00011885
  2898 0001:00011894  2899 0001:000118A3  2900 0001:000118A9  2901 0001:000118B6
  2902 0001:000118BC  2904 0001:000118C9  2907 0001:000118D0  2908 0001:000118DC
  2909 0001:000118EA  2910 0001:000118F0  2911 0001:000118FE  2923 0001:00011904
  2924 0001:00011910  2925 0001:00011924  2926 0001:00011937  2928 0001:00011942
  2929 0001:00011953  2931 0001:0001195C  2936 0001:00011960  2937 0001:0001196C
  2938 0001:0001197B  2939 0001:0001198E  2940 0001:00011999  2941 0001:000119A4
  2942 0001:000119AF  2944 0001:000119D3  2945 0001:000119E8  2944 0001:000119F6
  2946 0001:000119FB  2947 0001:00011A04  2954 0001:00011A08  2956 0001:00011A17
  2957 0001:00011A1D  2958 0001:00011A23  2961 0001:00011A36  2960 0001:00011A39
  2963 0001:00011A4E  2962 0001:00011A51  2964 0001:00011A64  2966 0001:00011A6C
  2967 0001:00011A78  2968 0001:00011A8A  2969 0001:00011A96  2970 0001:00011A99
  2972 0001:00011A9C  2973 0001:00011AA4  2974 0001:00011AAC  2975 0001:00011ABE
  2976 0001:00011AC4  2977 0001:00011AD0  2980 0001:00011AD8  2981 0001:00011AE4
  2982 0001:00011AF6  2983 0001:00011B0E  2988 0001:00011B14  2989 0001:00011B21
  2990 0001:00011B26  2991 0001:00011B34  2993 0001:00011B3A  2994 0001:00011B40
  2995 0001:00011B4E  2996 0001:00011B59  2998 0001:00011B69  3001 0001:00011B70
  3002 0001:00011B7F  3090 0001:00011B84  3091 0001:00011B9C  3092 0001:00011BA6
  3093 0001:00011BB2  3094 0001:00011BC4  3095 0001:00011BE6  3098 0001:00011BEC
  3099 0001:00011BFD  3100 0001:00011C05  3101 0001:00011C13  3102 0001:00011C1E
  3104 0001:00011C39  3105 0001:00011C41  3107 0001:00011C63  3134 0001:00011C68
  3135 0001:00011C71  3136 0001:00011C7D  3137 0001:00011C89  3150 0001:00011C90
  3151 0001:00011C97  3152 0001:00011CA3  3478 0001:00011CA8  3479 0001:00011CB9
  3480 0001:00011CC1  3481 0001:00011CDD  3484 0001:00011CE4  3485 0001:00011CF0
  3486 0001:00011D0C  3491 0001:00011D10  3492 0001:00011D32  3493 0001:00011D38
  3494 0001:00011D58  3495 0001:00011D65  3496 0001:00011DD5  3499 0001:00011DE8
  3500 0001:00011DF4  3501 0001:00011DFF  3504 0001:00011E04  3505 0001:00011E10
  3510 0001:00011E14  3511 0001:00011E37  3512 0001:00011E55  3514 0001:00011E65
  3515 0001:00011E7D  3516 0001:00011E83  3518 0001:00011EBA  3521 0001:00011ECC
  3522 0001:00011ED5  3523 0001:00011EDD  3977 0001:00011EE4  3978 0001:00011EF5
  3979 0001:00011EFF  3980 0001:00011F1B  3983 0001:00011F20  3984 0001:00011F2D
  3985 0001:00011F38  3986 0001:00011F49  3989 0001:00011F50  3990 0001:00011F60
  3991 0001:00011F6E  3992 0001:00011F7F  4002 0001:00011F84  4003 0001:00011FA4
  4004 0001:00011FAC  4005 0001:00011FBA  4006 0001:00011FD2  4005 0001:00011FFD
  4008 0001:0001200F  4010 0001:0001203C  4013 0001:00012044  4014 0001:00012050
  4016 0001:00012062  4017 0001:0001206A  4018 0001:00012078  4019 0001:00012080
  4020 0001:0001208C  4021 0001:00012098  4022 0001:000120A4  4023 0001:000120B0
  4025 0001:000120C8  4029 0001:000120D8  4030 0001:000120E3  4033 0001:000120E8
  4034 0001:000120EF  4035 0001:00012102  4036 0001:00012108  4041 0001:0001210C
  4042 0001:00012110  4044 0001:0001211C  4045 0001:00012120  4046 0001:00012138
  4048 0001:00012153  4049 0001:00012167  4051 0001:0001216C  4052 0001:00012179
  4053 0001:000121A1  4056 0001:000121B8  4057 0001:000121BF  4058 0001:000121C5
  4059 0001:000121D8  4064 0001:000121DC  4065 0001:000121FF  4066 0001:00012203
  4067 0001:0001220E  4068 0001:0001221B  4069 0001:00012261  4070 0001:0001228A
  4075 0001:00012290  4076 0001:00012293  4077 0001:00012296  4079 0001:00012298
  4080 0001:000122A7  4081 0001:000122D3  4084 0001:000122D8  4085 0001:000122FB
  4086 0001:00012331  4092 0001:00012338  4093 0001:0001235E  4094 0001:00012366
  4095 0001:00012374  4096 0001:00012382  4097 0001:00012390  4098 0001:000123AC
  4099 0001:000123C4  4100 0001:000123D2  4102 0001:000123ED  4104 0001:0001241F
  4118 0001:00012424  4119 0001:0001242D  4120 0001:0001243B  4177 0001:00012440
  4178 0001:0001244C  4179 0001:00012454  4182 0001:00012458  4183 0001:00012474
  4184 0001:000124AF  4191 0001:000124B4  4192 0001:000124DA  4193 0001:000124E5
  4194 0001:000124EA  4195 0001:000124F7  4196 0001:00012537  4197 0001:00012544
  4198 0001:0001254C  4200 0001:0001255F  4201 0001:0001256D  4202 0001:00012578
  4204 0001:0001257E  4205 0001:0001258C  4207 0001:00012592  4208 0001:0001259D
  4210 0001:000125A3  4211 0001:000125B1  4213 0001:000125B7  4198 0001:000125BA
  4214 0001:000125E9  4227 0001:000125FC  4228 0001:0001261C  4229 0001:00012634
  4228 0001:00012657  4230 0001:0001265C  4231 0001:00012683  4237 0001:00012688
  4238 0001:000126AE  4240 0001:000126C6  4241 0001:000126D4  4242 0001:000126F4
  4243 0001:00012721  4238 0001:00012724  4244 0001:00012729  4245 0001:0001275D
  4248 0001:00012764  4249 0001:00012770  4250 0001:00012788  4249 0001:0001279B
  4251 0001:000127A0  4252 0001:000127AA  4256 0001:000127B0  4257 0001:000127C0
  4258 0001:000127CE  4259 0001:000127DC  4264 0001:000127E4  4265 0001:000127F0
  4266 0001:00012804  4267 0001:00012812  4269 0001:0001282A  4271 0001:0001283A
  4277 0001:00012840  4278 0001:00012860  4279 0001:00012868  4280 0001:00012876
  4281 0001:0001288C  4282 0001:00012899  4283 0001:000128A7  4285 0001:000128BF
  4287 0001:000128EC  4293 0001:000128F4  4294 0001:00012917  4296 0001:0001291F
  4297 0001:00012927  4298 0001:00012935  4299 0001:00012943  4300 0001:00012951
  4301 0001:0001295C  4303 0001:0001297B  4306 0001:000129A8  4311 0001:000129B0
  4312 0001:000129C0  4313 0001:000129CE  4314 0001:000129D9  4315 0001:000129EB
  4318 0001:000129F0  4319 0001:000129FF  4322 0001:00012A04  4323 0001:00012A23
  4324 0001:00012A2B  4325 0001:00012A33  4326 0001:00012A41  4327 0001:00012A4B
  4329 0001:00012A7A  4331 0001:00012A8A  4332 0001:00012AAF  4337 0001:00012AB4
  4338 0001:00012AC0  4339 0001:00012AD7  4340 0001:00012AE5  4342 0001:00012AFD
  4344 0001:00012B0D  4349 0001:00012B14  4350 0001:00012B33  4351 0001:00012B3E
  4352 0001:00012B70  4355 0001:00012B74  4357 0001:00012B80  4367 0001:00012B84
  4368 0001:00012B90  4369 0001:00012BA4  4370 0001:00012BB2  4371 0001:00012BC9
  4374 0001:00012BD0  4375 0001:00012BEF  4376 0001:00012C22  4382 0001:00012C28
  4383 0001:00012C47  4384 0001:00012C4F  4385 0001:00012C5D  4386 0001:00012C65
  4387 0001:00012C6B  4390 0001:00012C73  4391 0001:00012C7B  4392 0001:00012C8F
  4393 0001:00012CA0  4394 0001:00012CAB  4395 0001:00012CB6  4388 0001:00012CC1
  4398 0001:00012CD6  4400 0001:00012D03  4403 0001:00012D08  4404 0001:00012D14
  4424 0001:00012D18  4425 0001:00012D38  4426 0001:00012D40  4427 0001:00012D79
  4428 0001:00012D9E  4524 0001:00012DA4  4525 0001:00012DB3  4526 0001:00012DC4
  4529 0001:00012DC8  4530 0001:00012DD1  4531 0001:00012DDA  4532 0001:00012DE4
  4533 0001:00012DF0  4536 0001:00012DF4  4537 0001:00012E00  4539 0001:00012E14
  4540 0001:00012E1B  4542 0001:00012E24  4565 0001:00012E28  4566 0001:00012E39
  4567 0001:00012E44  4568 0001:00012E4F  4569 0001:00012E5D  4570 0001:00012E7D
  4571 0001:00012E85  4572 0001:00012E9D  4575 0001:00012EA4  4576 0001:00012EB1
  4577 0001:00012EC4  4580 0001:00012ECC  4581 0001:00012EDC  4582 0001:00012EE5
  4584 0001:00012EF0  4585 0001:00012F05  4587 0001:00012F15  4589 0001:00012F25
  4590 0001:00012F3D  4593 0001:00012F44  4594 0001:00012F4C  4595 0001:00012F5F
  4596 0001:00012F6B  4599 0001:00012F70  4600 0001:00012F78  4601 0001:00012F8B
  4602 0001:00012F97  4605 0001:00012F9C  4606 0001:00012FA3  4608 0001:00012FAC
  4609 0001:00012FB7  4610 0001:00012FCE  4611 0001:00012FD6  4612 0001:00012FE0
  4614 0001:00012FEB  4617 0001:00012FF0  4618 0001:00012FFD  4619 0001:0001301F
  4620 0001:0001302A  4621 0001:00013041  4622 0001:00013047  4623 0001:00013052
  4625 0001:0001307E  4626 0001:00013089  4629 0001:00013090  4630 0001:0001309F
  4631 0001:000130C1  4632 0001:000130E3  4633 0001:000130EE  4634 0001:000130FC
  4635 0001:00013107  4641 0001:0001310C  4642 0001:0001311B  4643 0001:0001312A
  4644 0001:00013139  4645 0001:00013141  4646 0001:0001314B  4647 0001:00013153
  4648 0001:0001315C  4649 0001:00013168  4650 0001:00013171  4655 0001:00013178
  4656 0001:00013188  4657 0001:0001318C  4658 0001:00013191  4659 0001:0001319B
  4661 0001:000131A3  4662 0001:000131AE  4663 0001:000131C8  4665 0001:000131D7
  4666 0001:000131DE  4668 0001:000131E4  4669 0001:000131E8  4659 0001:000131F7
  4673 0001:000131FF  4674 0001:0001320A  4677 0001:00013210  4678 0001:0001321F
  4679 0001:00013241  4680 0001:00013255  4683 0001:0001325C  4684 0001:00013265
  4685 0001:00013271  4688 0001:00013278  4689 0001:00013281  4690 0001:0001328D
  4693 0001:00013294  4694 0001:000132A0  4695 0001:000132C2  4696 0001:000132D5
  4701 0001:000132DC  4702 0001:000132E5  4703 0001:00013303  4704 0001:00013315
  4705 0001:0001331C  4706 0001:0001332D  4709 0001:00013334  4710 0001:00013341
  4711 0001:0001335A  4712 0001:00013379  4715 0001:00013380  4716 0001:00013390
  4717 0001:000133A0  4721 0001:000133A8  4722 0001:000133B8  4723 0001:000133D1
  4724 0001:000133F3  4725 0001:00013408  4728 0001:00013410  4729 0001:0001341F
  4730 0001:0001342A  4731 0001:00013440  4732 0001:0001344B  4734 0001:00013475
  4736 0001:00013484  4737 0001:0001348B  4738 0001:00013494  4740 0001:0001349F
  4741 0001:000134A5  4742 0001:000134B0  4745 0001:000134B8  4746 0001:000134C7
  4747 0001:000134E0  4748 0001:00013502  4749 0001:0001350D  4750 0001:00013521
  4751 0001:0001352C  4754 0001:00013530  4755 0001:0001353F  4756 0001:00013561
  4757 0001:0001356C  4758 0001:0001357C  4759 0001:00013587  4764 0001:0001358C
  4766 0001:0001359B  4767 0001:000135A1  4768 0001:000135A7  4770 0001:000135B4
  4771 0001:000135C9  4772 0001:000135DC  4774 0001:000135E4  4775 0001:000135F2
  4776 0001:000135FA  4777 0001:00013602  4778 0001:0001360A  4779 0001:00013610
  4780 0001:00013613  4782 0001:00013616  4783 0001:0001361E  4784 0001:00013638
  4785 0001:0001363E  4786 0001:0001364A  4789 0001:00013650  4790 0001:0001365C
  4791 0001:0001366D  4792 0001:00013676  4795 0001:0001367C  4796 0001:00013688
  4798 0001:00013693  4799 0001:000136A4  4801 0001:000136AD  4804 0001:000136B4
  4805 0001:000136C0  4806 0001:000136DE  4809 0001:000136E4  4810 0001:000136F4
  4812 0001:0001371A  4815 0001:00013720  4816 0001:00013727  4817 0001:00013737
  4820 0001:0001373C  4821 0001:00013748  4823 0001:0001375A  4824 0001:00013765
  4825 0001:0001377A  4827 0001:00013785  4830 0001:0001378C  4831 0001:0001379B
  4832 0001:000137A4  4834 0001:000137B4  4835 0001:000137C5  4849 0001:000137CC
  4850 0001:000137D5  4851 0001:000137EF  4854 0001:000137F4  4855 0001:000137FB
  4856 0001:0001380B  4861 0001:00013810  4862 0001:00013819  4863 0001:0001382D
  4864 0001:00013841  4865 0001:00013857  4868 0001:0001385C  4871 0001:00013868
  4879 0001:0001386C  4885 0001:00013873  4886 0001:00013899  4887 0001:000138B0
  4888 0001:000138BD  4893 0001:000138C4  4894 0001:000138CD  4895 0001:0001390A
  4903 0001:00013910  4909 0001:00013920  4910 0001:0001392E  4912 0001:0001393B
  4911 0001:00013946  4913 0001:00013957  4914 0001:00013964  4915 0001:00013972
  4916 0001:0001397A  4917 0001:00013981  4918 0001:00013998  4921 0001:0001399C
  4924 0001:000139A9  4925 0001:000139CF  4926 0001:000139E6  4927 0001:00013A05
  4930 0001:00013A0C  4931 0001:00013A1C  4932 0001:00013A35  4933 0001:00013A4C
  4936 0001:00013A54  4937 0001:00013A64  4938 0001:00013A7D  4939 0001:00013A94
  4947 0001:00013A9C  4948 0001:00013AA8  4950 0001:00013AB4  4951 0001:00013AC0
  4953 0001:00013ACD  4954 0001:00013AD9  4955 0001:00013AFB  4956 0001:00013B06
  4959 0001:00013B16  4960 0001:00013B36  4961 0001:00013B44  4962 0001:00013B52
  4957 0001:00013B5C  4965 0001:00013B75  4967 0001:00013B8E  5059 0001:00013B94
  5060 0001:00013BAF  5061 0001:00013BB9  5062 0001:00013BDD  5065 0001:00013BE4
  5066 0001:00013BF3  5067 0001:00013C07  5068 0001:00013C15  5071 0001:00013C1C
  5072 0001:00013C2B  5073 0001:00013C3F  5074 0001:00013C4D  5077 0001:00013C54
  5078 0001:00013C60  5079 0001:00013C82  5082 0001:00013C88  5083 0001:00013C94
  5084 0001:00013CA2  5087 0001:00013CA8  5088 0001:00013CAF  5090 0001:00013CBF
  5095 0001:00013CD0  5100 0001:00013CD8  5102 0001:00013CF3  5106 0001:00013D22
  5109 0001:00013D28  5110 0001:00013D60  5112 0001:00013D68  5113 0001:00013D7F
  5114 0001:00013D8C  5118 0001:00013DD7  5119 0001:00013DEF  5120 0001:00013DF8
  5122 0001:00013E7E  5125 0001:00013E88  5126 0001:00013E99  5127 0001:00013EAD
  5128 0001:00013EC9  5134 0001:00013ED0  5135 0001:00013EDF  5136 0001:00013EE8
  5137 0001:00013EF1  5140 0001:00013EF8  5141 0001:00013F07  5143 0001:00013F16
  5144 0001:00013F25  5146 0001:00013F2B  5147 0001:00013F39  5148 0001:00013F50
  5149 0001:00013F59  5152 0001:00013F5B  5153 0001:00013F63  5156 0001:00013F68
  5157 0001:00013F78  5158 0001:00013F8B  5159 0001:00013F96  5160 0001:00013FA1
  5162 0001:00013FB0  5163 0001:00013FBC  5188 0001:00013FC0  5189 0001:00013FD1
  5190 0001:00013FD9  5191 0001:00013FF5  5194 0001:00013FFC  5195 0001:00014003
  5196 0001:0001400D  5197 0001:00014015  5198 0001:0001401D  5223 0001:00014020
  5224 0001:0001402C  5225 0001:00014047  5226 0001:00014050  5231 0001:00014054
  5232 0001:00014061  5233 0001:0001406A  5234 0001:00014075  5235 0001:0001407E
  5236 0001:00014094  5239 0001:0001409C  5240 0001:000140A8  5241 0001:000140BD
  5242 0001:000140D1  5243 0001:000140DA  5245 0001:000140E7  5248 0001:000140EF
  5252 0001:000140FA  5256 0001:00014101  5257 0001:0001410A  5259 0001:00014121
  5266 0001:0001413D  5269 0001:0001415D  5274 0001:00014164  5275 0001:00014173
  5277 0001:00014182  5278 0001:0001418E  5280 0001:00014194  5282 0001:0001419F
  5283 0001:000141AA  5284 0001:000141B5  5286 0001:000141BE  5287 0001:000141D5
  5288 0001:000141DE  5289 0001:000141E4  5292 0001:000141E6  5293 0001:000141EE
  5641 0001:000141F4  5642 0001:00014200  5643 0001:0001420D  5644 0001:0001421A
  5645 0001:00014228  5647 0001:00014237  5648 0001:00014245  5651 0001:0001426E
  5652 0001:00014279  5654 0001:00014281  5645 0001:00014284  5656 0001:00014297
  5658 0001:000142A9  5664 0001:000142B0  5665 0001:000142B9  5666 0001:000142C2
  5667 0001:000142CF  5668 0001:000142DD  5670 0001:000142EC  5671 0001:000142FA
  5673 0001:00014305  5674 0001:00014310  5676 0001:00014318  5668 0001:0001431B
  5678 0001:0001432E  5680 0001:00014340  5706 0001:00014344  5707 0001:0001434B
  5708 0001:0001435F  5711 0001:00014364  5712 0001:00014367  5713 0001:00014371
  5744 0001:00014374  5745 0001:00014380  5747 0001:0001438D  5748 0001:00014393
  5749 0001:0001439B  5751 0001:000143A0  5793 0001:000143A4  5794 0001:000143AD
  5795 0001:000143BB  5796 0001:000143C4  5931 0001:000143C8  5932 0001:000143D1
  5933 0001:000143DC  5934 0001:000143E5  5944 0001:000143EC  5945 0001:000143ED
  5946 0001:000143EE  5947 0001:000143EF  5948 0001:000143F1  5949 0001:000143F3
  5950 0001:000143F5  5951 0001:000143F7  5952 0001:000143FA  5953 0001:000143FD
  5954 0001:000143FF  5955 0001:00014401  5956 0001:00014406  5957 0001:00014409
  5958 0001:0001440B  5959 0001:0001440D  5960 0001:0001440F  5961 0001:00014410
  5962 0001:00014412  5963 0001:00014415  5964 0001:00014418  5965 0001:0001441B
  5966 0001:0001441D  5967 0001:0001441F  5968 0001:00014422  5969 0001:00014423
  5970 0001:00014425  5971 0001:00014427  5972 0001:0001442A  5973 0001:0001442C
  5974 0001:0001442D  5975 0001:0001442F  5976 0001:00014431  5977 0001:00014432
  5978 0001:00014433  5979 0001:00014434  5982 0001:00014438  5983 0001:00014440
  5984 0001:0001445D  5985 0001:0001447D  5986 0001:00014485  6313 0001:0001448C
  6314 0001:00014493  6315 0001:0001449D  6318 0001:000144A0  6319 0001:000144A7
  6320 0001:000144B1  6657 0001:000144B4  6658 0001:000144C0  6659 0001:000144D0
  6660 0001:000144DF  6661 0001:000144F6  6666 0001:000144FC  6667 0001:0001451B
  6668 0001:0001452B  6671 0001:00014543  6672 0001:00014548  6674 0001:0001455A
  6676 0001:0001456C  6678 0001:0001457E  6680 0001:00014583  6681 0001:0001458E
  6683 0001:000145BB  6689 0001:000145C0  6690 0001:000145E2  6691 0001:000145F2
  6694 0001:0001460D  6695 0001:00014612  6698 0001:00014624  6699 0001:00014634
  6700 0001:0001463F  6704 0001:00014653  6705 0001:00014663  6706 0001:0001466E
  6707 0001:0001467C  6710 0001:00014689  6713 0001:000146B3  6716 0001:000146B8
  6717 0001:000146C1  6718 0001:000146D4  6728 0001:000146D8  6729 0001:000146F4
  6730 0001:00014722  6735 0001:00014728  6736 0001:0001472D  6737 0001:00014747
  6738 0001:00014752  6743 0001:00014754  6744 0001:0001475D  6745 0001:00014770
  6746 0001:00014782  6749 0001:00014788  6752 0001:0001478D  6753 0001:000147A9
  6754 0001:000147BB  6755 0001:000147D5  6750 0001:000147E0  6757 0001:000147EF
  6758 0001:000147FA  6760 0001:000147FC  6761 0001:00014818  6763 0001:0001488C
  6764 0001:00014898  6765 0001:000148AA  6766 0001:000148BC  6767 0001:000148CE
  6768 0001:000148E0  6770 0001:000148F0  6771 0001:000148FE  6772 0001:00014908
  6773 0001:00014916  6774 0001:0001491F  6775 0001:0001492E  6776 0001:0001493D
  6777 0001:0001494C  6778 0001:0001495A  6779 0001:00014969  6781 0001:00014992
  6864 0001:00014998  6865 0001:000149B4  6866 0001:000149BF  6867 0001:000149E4
  6929 0001:000149E8  6930 0001:000149F7  6931 0001:000149FD  6933 0001:00014A06
  6934 0001:00014A19  6938 0001:00014A22  6939 0001:00014A33  6930 0001:00014A38
  6941 0001:00014A3E  7075 0001:00014A44  7076 0001:00014A45  7077 0001:00014A46
  7078 0001:00014A47  7079 0001:00014A49  7080 0001:00014A4B  7081 0001:00014A4D
  7082 0001:00014A4F  7083 0001:00014A52  7084 0001:00014A55  7085 0001:00014A57
  7086 0001:00014A59  7087 0001:00014A5E  7088 0001:00014A61  7089 0001:00014A63
  7090 0001:00014A65  7091 0001:00014A67  7092 0001:00014A69  7093 0001:00014A6A
  7094 0001:00014A6D  7095 0001:00014A70  7096 0001:00014A73  7097 0001:00014A75
  7098 0001:00014A77  7099 0001:00014A7A  7100 0001:00014A7B  7101 0001:00014A7D
  7102 0001:00014A7F  7103 0001:00014A82  7104 0001:00014A84  7105 0001:00014A85
  7106 0001:00014A87  7107 0001:00014A89  7108 0001:00014A8A  7109 0001:00014A8B
  7110 0001:00014A8C  7130 0001:00014A90  7131 0001:00014A97  7132 0001:00014AAE
  7133 0001:00014AB6  7371 0001:00014ABC  7372 0001:00014AC3  7373 0001:00014ACD
  7376 0001:00014AD0  7377 0001:00014AD7  7378 0001:00014AE1  8002 0001:00014AE4
  8003 0001:00014AF3  8005 0001:00014B00  8006 0001:00014B0B  8007 0001:00014B15
  8008 0001:00014B25  8012 0001:00014B35  8013 0001:00014B40  8015 0001:00014B49
  8016 0001:00014B53  8019 0001:00014B65  8020 0001:00014B6F  8022 0001:00014B7F
  8024 0001:00014B8D  8027 0001:00014B94  8028 0001:00014BB3  8029 0001:00014BE9
  8049 0001:00014BF0  8050 0001:00014BFC  8051 0001:00014C0C  8072 0001:00014C10
  8073 0001:00014C1F  8075 0001:00014C32  8076 0001:00014C4A  8077 0001:00014C66
  8078 0001:00014C6A  8073 0001:00014C6D  8079 0001:00014C72  8111 0001:00014C78
  8112 0001:00014C87  8113 0001:00014C8D  8115 0001:00014C93  8116 0001:00014CAA
  8117 0001:00014CD1  8118 0001:00014CD4  8119 0001:00014CD8  8113 0001:00014CDB
  8121 0001:00014CE1  8122 0001:00014CED  9229 0001:00014CF4  9230 0001:00014CF7
  9232 0001:00014D01  9233 0001:00014D16  9234 0001:00014D1F  9239 0001:00014D24
  9242 0001:00014D2C  9243 0001:00014D2F  9245 0001:00014D39  9250 0001:00014D44
 10720 0001:00014D48 10721 0001:00014D4E 10722 0001:00014D5B 10723 0001:00014D69
 10724 0001:00014D7F 10723 0001:00014D92 10726 0001:00014DA4 10728 0001:00014DB6
 10729 0001:00014DC0 10732 0001:00014DC4 10733 0001:00014DCB 10734 0001:00014DD3
 11090 0001:00014DD8 11091 0001:00014DFB 11092 0001:00014E05 11093 0001:00014E0A
 11094 0001:00014E13 11095 0001:00014E1D 11096 0001:00014E2D 11097 0001:00014E37
 11098 0001:00014E41 11099 0001:00014E4B 11100 0001:00014E55 11101 0001:00014E5A
 11103 0001:00014E83 11076 0001:00014E88 11077 0001:00014EA2 11078 0001:00014EA7
 11080 0001:00014EB1 11085 0001:00014ED0 11086 0001:00014EE1 11087 0001:00014EF2
 11089 0001:00014F18

Line numbers for ListsU(..\ListsU.pas) segment .text

   250 0001:00014FA8   251 0001:00014FC3   252 0001:00014FCD   253 0001:00014FD3
   255 0001:00014FDA   256 0001:00015012   259 0001:00015018   260 0001:0001501F
   261 0001:00015027   262 0001:0001502F   263 0001:00015037   269 0001:0001503C
   271 0001:00015045   272 0001:00015085   273 0001:0001508E   276 0001:0001509F
   277 0001:000150B6   279 0001:000150E9   280 0001:000150F4   281 0001:0001512D
   277 0001:00015130   282 0001:00015135   284 0001:00015147   287 0001:0001514C
   288 0001:00015158   290 0001:0001517D   291 0001:0001518B   292 0001:0001519E
   293 0001:000151A6   294 0001:000151B4   295 0001:000151C2   296 0001:000151CA
   299 0001:000151D0   300 0001:000151DC   302 0001:000151E9   303 0001:0001520E
   304 0001:00015230   305 0001:0001523E   306 0001:00015251   308 0001:00015259
   311 0001:00015269   312 0001:00015271   315 0001:00015278   316 0001:00015284
   317 0001:0001528D   319 0001:000152B4   320 0001:000152BC   415 0001:000152F0
   415 0001:000152F7

Line numbers for MMSystem(MMSystem.pas) segment .text

  4547 0001:000152F8  4549 0001:00015300  4551 0001:00015308  4668 0001:00015340
  4668 0001:00015347

Line numbers for SyncObjs(SyncObjs.pas) segment .text

    88 0001:00015414    89 0001:0001541B    92 0001:00015420    93 0001:00015427
   194 0001:0001542C   195 0001:00015444   196 0001:0001544E   197 0001:00015475
   200 0001:0001547C   201 0001:0001548D   202 0001:00015499   203 0001:000154B5
   206 0001:000154BC   207 0001:000154C3   208 0001:000154CF   211 0001:000154D4
   212 0001:000154DB   213 0001:000154E7   225 0001:0001551C   225 0001:00015523

Line numbers for GPHugeF(gphugef.pas) segment .text

   584 0001:000155E8   585 0001:000155F4   586 0001:000155F8   587 0001:00015602
   589 0001:0001561E   590 0001:00015624   591 0001:00015629   592 0001:0001562F
   596 0001:00015659   619 0001:00015660   620 0001:0001567B   621 0001:00015685
   622 0001:0001568F   623 0001:00015697   624 0001:0001569E   625 0001:000156AF
   626 0001:000156B8   627 0001:000156C1   628 0001:000156C8   629 0001:000156D5
   630 0001:000156DE   631 0001:000156E8   632 0001:00015711   637 0001:00015718
   638 0001:00015729   639 0001:00015731   640 0001:0001574D   678 0001:00015754
   679 0001:0001575A   680 0001:00015763   682 0001:00015769   683 0001:00015776
   684 0001:0001578D   685 0001:0001579A   687 0001:000157CC   697 0001:000157D0
   698 0001:000157DF   699 0001:000157E5   700 0001:00015813   701 0001:00015825
   703 0001:00015832   704 0001:00015838   705 0001:00015841   707 0001:0001584A
   710 0001:00015853   711 0001:0001585A   712 0001:00015861   713 0001:00015869
   714 0001:00015872   715 0001:0001587E   716 0001:0001588A   718 0001:00015893
   721 0001:0001589A   724 0001:000158A5   725 0001:000158B1   727 0001:000158BA
   729 0001:000158BF   730 0001:000158F0   731 0001:000158F4   732 0001:000158FD
   733 0001:00015908   734 0001:0001592F   735 0001:00015935   737 0001:00015956
   740 0001:0001596A   741 0001:00015972   743 0001:00015979   744 0001:000159AD
   745 0001:000159BF   746 0001:000159D4   748 0001:000159DF   749 0001:000159E8
   751 0001:000159EE   752 0001:00015A04   754 0001:00015A0A   755 0001:00015A0E
   757 0001:00015A14   758 0001:00015A1C   760 0001:00015A30   847 0001:00015A78
   848 0001:00015A8A   849 0001:00015A92   856 0001:00015AA0   857 0001:00015AB5
   858 0001:00015ABD   859 0001:00015AC9   860 0001:00015AD2   861 0001:00015ADA
   862 0001:00015AE1   863 0001:00015AED   865 0001:00015AF5   866 0001:00015B02
   867 0001:00015B1C   868 0001:00015B29   869 0001:00015B32   870 0001:00015B44
   872 0001:00015B51   873 0001:00015B5D   875 0001:00015B7B   876 0001:00015B8D
   877 0001:00015B95   879 0001:00015B99   880 0001:00015B9F   882 0001:00015BA9
   883 0001:00015BB2   884 0001:00015BBA   885 0001:00015BCB   886 0001:00015BD2
   889 0001:00015BE8   891 0001:00015BF4   914 0001:00015C04   915 0001:00015C16
   916 0001:00015C1E   923 0001:00015C2C   924 0001:00015C41   925 0001:00015C49
   926 0001:00015C55   927 0001:00015C5C   928 0001:00015C68   929 0001:00015C70
   931 0001:00015C78   932 0001:00015C85   933 0001:00015C8E   934 0001:00015CA0
   936 0001:00015CAD   937 0001:00015CBA   938 0001:00015CC6   940 0001:00015CE4
   941 0001:00015CF6   942 0001:00015CFE   944 0001:00015D02   945 0001:00015D08
   947 0001:00015D12   948 0001:00015D1B   949 0001:00015D23   950 0001:00015D34
   951 0001:00015D3B   954 0001:00015D51   956 0001:00015D5D   962 0001:00015D68
   963 0001:00015D74   964 0001:00015D82   965 0001:00015D8E   966 0001:00015D96
   967 0001:00015D9F   968 0001:00015DAB   970 0001:00015DB5   971 0001:00015DBC
   972 0001:00015DC3   976 0001:00015DED   977 0001:00015DF4   978 0001:00015DF7
   980 0001:00015E18   986 0001:00015E20   987 0001:00015E29   988 0001:00015E32
   989 0001:00015E60  1001 0001:00015E8C  1002 0001:00015E98  1003 0001:00015EA6
  1004 0001:00015EAF  1007 0001:00015EC1  1008 0001:00015EC9  1009 0001:00015ED0
  1010 0001:00015EE3  1011 0001:00015EF7  1012 0001:00015F0E  1014 0001:00015F1F
  1015 0001:00015F2B  1016 0001:00015F34  1019 0001:00015F57  1021 0001:00015F63
  1024 0001:00015F95  1025 0001:00015F9C  1026 0001:00015F9F  1028 0001:00015FC6
  1041 0001:00015FE4  1042 0001:00015FF6  1043 0001:00016004  1044 0001:0001600C
  1045 0001:00016015  1046 0001:00016021  1047 0001:0001602A  1049 0001:0001603E
  1050 0001:00016045  1051 0001:0001607F  1053 0001:00016096  1054 0001:0001609F
  1056 0001:000160B6  1057 0001:000160BE  1060 0001:000160F2  1061 0001:000160F9
  1062 0001:000160FC  1064 0001:0001611D  1137 0001:0001613C  1138 0001:00016148
  1139 0001:0001615E  1140 0001:00016166  1141 0001:0001616F  1143 0001:0001618C
  1144 0001:00016198  1145 0001:000161A5  1146 0001:000161AE  1148 0001:000161B6
  1153 0001:000161E4  1154 0001:000161EE  1156 0001:0001622F  1158 0001:00016235
  1161 0001:00016271  1162 0001:0001627B  1163 0001:00016284  1164 0001:00016297
  1167 0001:000162A1  1168 0001:000162A8  1172 0001:000162D1  1173 0001:000162ED
  1174 0001:000162FC  1175 0001:0001630B  1176 0001:00016313  1177 0001:0001631B
  1180 0001:00016324  1181 0001:00016330  1185 0001:00016339  1186 0001:00016340
  1188 0001:00016369  1189 0001:00016378  1198 0001:000163A0  1199 0001:000163AC
  1200 0001:000163BA  1203 0001:000163ED  1204 0001:000163F4  1205 0001:000163F7
  1207 0001:00016418  1228 0001:00016424  1229 0001:00016430  1230 0001:0001643E
  1231 0001:00016446  1232 0001:0001644F  1233 0001:00016463  1234 0001:0001646A
  1235 0001:00016496  1238 0001:000164CA  1239 0001:000164D1  1240 0001:000164D4
  1242 0001:000164F5  1263 0001:00016510  1264 0001:0001651C  1265 0001:0001652A
  1266 0001:00016533  1267 0001:0001653B  1268 0001:00016544  1270 0001:0001656A
  1273 0001:0001659C  1274 0001:000165A3  1275 0001:000165A6  1277 0001:000165CD
  1283 0001:000165D4  1284 0001:000165DB  1285 0001:000165E3  1286 0001:000165EA
  1287 0001:00016601  1288 0001:00016608  1289 0001:00016634  1299 0001:00016648
  1300 0001:00016654  1301 0001:0001665D  1302 0001:00016670  1310 0001:00016674
  1311 0001:0001667D  1312 0001:00016685  1313 0001:0001668E  1316 0001:00016698
  1317 0001:000166AC  1318 0001:000166B3  1319 0001:000166CE  1320 0001:000166E5
  1321 0001:000166EE  1322 0001:000166F5  1323 0001:00016728  1324 0001:00016731
  1326 0001:0001675F  1332 0001:000167AC  1333 0001:000167B3  1334 0001:000167C0
  1335 0001:000167C7  1336 0001:000167DE  1337 0001:000167E7  1338 0001:000167EE
  1340 0001:00016821  1341 0001:00016828  1342 0001:0001685B  1344 0001:00016863
  1352 0001:0001687C  1353 0001:00016888  1354 0001:00016894  1372 0001:00016898
  1373 0001:000168A7  1375 0001:000168B0  1376 0001:000168CF  1377 0001:000168D7
  1380 0001:000168E0  1383 0001:0001690E  1384 0001:0001692D  1386 0001:00016940
  1387 0001:00016947  1388 0001:00016956  1389 0001:00016962  1390 0001:00016989
  1391 0001:00016995  1392 0001:000169AF  1394 0001:000169BF  1395 0001:000169C7
  1396 0001:000169CD  1397 0001:000169DB  1398 0001:000169EA  1399 0001:00016A00
  1401 0001:00016A22  1402 0001:00016A39  1403 0001:00016A4B  1404 0001:00016A53
  1405 0001:00016A59  1409 0001:00016A69  1410 0001:00016A6F  1411 0001:00016A75
  1412 0001:00016A9C  1413 0001:00016AA5  1414 0001:00016AAD  1416 0001:00016AC7
  1498 0001:00016B0C  1499 0001:00016B15  1500 0001:00016B2F  1501 0001:00016B38
  1502 0001:00016B4C  1503 0001:00016B75  1504 0001:00016B8C  1505 0001:00016B94
  1506 0001:00016BA6  1507 0001:00016BAF  1510 0001:00016BC4  1511 0001:00016BCB
  1545 0001:00016BD0  1546 0001:00016BDF  1547 0001:00016BF1  1548 0001:00016BF9
  1549 0001:00016C02  1551 0001:00016C32  1553 0001:00016C41  1559 0001:00016C8C
  1560 0001:00016C95  1561 0001:00016CA1  1575 0001:00016CA8  1576 0001:00016CC7
  1580 0001:00016D77  1583 0001:00016DA0  1584 0001:00016DBC  1587 0001:00016E38
  1588 0001:00016E60  1589 0001:00016E6F  1590 0001:00016E75  1591 0001:00016E80
  1592 0001:00016E89  1594 0001:00016E92  1595 0001:00016E99  1597 0001:00016EA1
  1641 0001:00016EA8  1642 0001:00016EB1  1643 0001:00016EBA  1645 0001:00016EDA
  1646 0001:00016F0A  1653 0001:00016F10  1654 0001:00016F19  1655 0001:00016F2C
  1656 0001:00016F3D  1657 0001:00016F52  1662 0001:00016F58  1663 0001:00016F5F
  1664 0001:00016F67  1665 0001:00016F6F  1666 0001:00016F80  1667 0001:00016F87
  1672 0001:00016F8C  1673 0001:00016F93  1674 0001:00016F9B  1675 0001:00016FA3
  1676 0001:00016FB4  1677 0001:00016FBB  1895 0001:00016FF0  1895 0001:00016FF7

Line numbers for Consts(Consts.pas) segment .text

   309 0001:00017028   309 0001:0001702F

Line numbers for textdata(..\textdata.pas) segment .text

    57 0001:00017030    58 0001:0001704F    59 0001:00017057    60 0001:0001706D
    59 0001:000170B2    61 0001:000170D4   112 0001:000170E4   113 0001:000170F0
   115 0001:0001710C   116 0001:00017110   118 0001:00017118   120 0001:00017138
   121 0001:0001713C   124 0001:00017144   125 0001:0001714B   152 0001:00017170
   153 0001:00017173   155 0001:00017186   156 0001:000171AC   159 0001:000171BC
   160 0001:000171C3   166 0001:000171C8   170 0001:000171F7   171 0001:0001720D
   172 0001:00017217   174 0001:0001723A   175 0001:00017247   176 0001:0001724E
   177 0001:00017253   181 0001:0001725A   183 0001:00017260   184 0001:00017267
   186 0001:00017271   187 0001:00017278   188 0001:00017298   189 0001:000172A3
   190 0001:000172B0   192 0001:000172C3   193 0001:000172CE   194 0001:000172DB
   195 0001:000172EE   196 0001:00017310   197 0001:00017317   198 0001:00017321
   199 0001:0001732C   203 0001:0001733E   204 0001:00017358   206 0001:0001735E
   207 0001:00017369   211 0001:00017373   212 0001:00017387   215 0001:000173A1
   168 0001:000173AC   217 0001:000173E3   419 0001:000173F4   420 0001:00017403
   421 0001:0001740E   422 0001:00017423   458 0001:00017428   459 0001:00017437
   460 0001:0001743C   461 0001:00017442   463 0001:00017448   464 0001:0001744B
   461 0001:0001744F   467 0001:00017455   468 0001:0001745A   469 0001:00017464
   471 0001:00017471   473 0001:00017482   474 0001:0001748A   475 0001:00017498
   476 0001:0001749B   477 0001:0001749E   479 0001:000174A4   480 0001:000174A7
   481 0001:000174B4   482 0001:000174B9   484 0001:000174BD   471 0001:000174C0
   485 0001:000174C8   503 0001:000174D0   504 0001:000174DC   505 0001:000174E7
   506 0001:000174FF   505 0001:0001750F   507 0001:00017514   510 0001:00017518
   511 0001:00017524   513 0001:0001754A   518 0001:00017550   519 0001:0001755F
   520 0001:00017565   521 0001:00017576   520 0001:0001758D   522 0001:00017595
   527 0001:0001759C   528 0001:000175A8   529 0001:000175B3   531 0001:000175CB
   534 0001:000175E9   535 0001:000175F9   529 0001:000175FC   536 0001:00017601
   538 0001:00017644   538 0001:0001764B

Line numbers for Math(Math.pas) segment .text

  2166 0001:0001767C  2166 0001:00017683

Line numbers for Contnrs(Contnrs.pas) segment .text

   237 0001:000176EC   238 0001:000176F8   239 0001:00017709   248 0001:00017710
   249 0001:0001772B   250 0001:00017735   251 0001:00017759   254 0001:00017760
   255 0001:0001776C   256 0001:0001777D   281 0001:00017784   282 0001:00017790
   283 0001:000177A1   301 0001:000177A8   302 0001:000177B7   303 0001:000177C0
   304 0001:000177C6   305 0001:000177CE   306 0001:000177DC   799 0001:00017810
   799 0001:00017817

Line numbers for uDebug(..\uDebug.pas) segment .text

    83 0001:00017968    84 0001:0001798B    85 0001:000179A1    87 0001:000179A7
    88 0001:000179C8    90 0001:000179EA    85 0001:000179F5    92 0001:000179FB
    93 0001:00017A25   104 0001:00017A2C   105 0001:00017A5B   106 0001:00017AB2
   112 0001:00017AB8   113 0001:00017ADF   115 0001:00017AF7   116 0001:00017B13
   117 0001:00017B2F   118 0001:00017B4B   119 0001:00017B67   121 0001:00017B7D
   122 0001:00017B83   124 0001:00017BBA   125 0001:00017BF8   133 0001:00017CBC
   134 0001:00017CE2   136 0001:00017D26   137 0001:00017D50   138 0001:00017D7A
   141 0001:00017D89   142 0001:00017DB0   143 0001:00017DDB   144 0001:00017E01
   146 0001:00017E2E   148 0001:00017E6A   155 0001:00017EA0   156 0001:00017EC6
   158 0001:00017F0A   159 0001:00017F34   162 0001:00017F43   163 0001:00017F6A
   164 0001:00017F90   166 0001:00017FF0   168 0001:0001802C   174 0001:00018054
   177 0001:0001807D   180 0001:0001808C   181 0001:000180A2   182 0001:000180B3
   183 0001:000180E0   184 0001:00018106   185 0001:00018143   187 0001:00018155
   175 0001:00018162   189 0001:000181A7   192 0001:000181C4   193 0001:000181EF
   194 0001:000181F3   195 0001:000181FC   196 0001:00018206   197 0001:0001820F
   198 0001:00018219   199 0001:00018222   200 0001:0001822C   201 0001:0001823F
   202 0001:00018252   203 0001:00018265   205 0001:00018283   207 0001:0001829F
   209 0001:000182AA   210 0001:000182B7   213 0001:000182CA   214 0001:000182E8
   215 0001:000182F5   216 0001:00018301   217 0001:00018331   218 0001:00018342
   219 0001:0001834E   220 0001:0001835A   211 0001:00018364   224 0001:00018389
   226 0001:000183A1   227 0001:000183CB   229 0001:0001840B   232 0001:0001841C
   233 0001:0001841F   234 0001:00018429   235 0001:00018433   236 0001:0001843D
   237 0001:00018444   243 0001:00018448   244 0001:00018454   245 0001:0001845C
   246 0001:00018465   248 0001:0001847F   249 0001:0001848F   252 0001:000184A5
   253 0001:000184B3   255 0001:000184B5   246 0001:000184B8   256 0001:000184BE
   262 0001:000184C4   263 0001:000184D0   264 0001:000184D8   265 0001:000184E1
   267 0001:000184FB   268 0001:0001850B   270 0001:00018516   271 0001:00018524
   273 0001:00018526   265 0001:00018529   274 0001:0001852F   282 0001:00018534
   283 0001:00018556   284 0001:0001855E   285 0001:00018566   286 0001:00018571
   287 0001:00018588   289 0001:000185B2   290 0001:000185CB   292 0001:000185DB
   294 0001:000185E6   295 0001:000185F1   298 0001:000185F3   300 0001:00018601
   287 0001:00018604   301 0001:0001862B   304 0001:00018630   305 0001:0001864C
   307 0001:00018659   309 0001:00018663   310 0001:00018670   313 0001:000186BD
   314 0001:000186C7   317 0001:000186E6   318 0001:00018711   326 0001:00018728
   327 0001:00018731   328 0001:00018739   330 0001:0001874B   332 0001:00018753
   334 0001:00018765   335 0001:0001876E   337 0001:000187B0   337 0001:000187B7

Line numbers for FreeListU(FreeListU.pas) segment .text

    19 0001:000187B8    20 0001:000187BB    21 0001:000187CE    24 0001:000187D0
    25 0001:000187D3    26 0001:000187DD    28 0001:00018810    28 0001:00018817

Line numbers for SHFolder(SHFolder.pas) segment .text

    89 0001:00018818    93 0001:00018850    93 0001:00018857

Line numbers for TADemoConsts(TADemoConsts.pas) segment .text

    78 0001:00018940    79 0001:00018949    80 0001:00018950    81 0001:0001895B
    82 0001:0001897F    83 0001:00018990    84 0001:0001899B    90 0001:000189A0
    91 0001:000189BC    92 0001:000189C3    93 0001:000189CE    95 0001:000189FC
    96 0001:00018A07    97 0001:00018A0D    99 0001:00018A12   100 0001:00018A1B
   101 0001:00018A46   102 0001:00018A7B   110 0001:00018A80   111 0001:00018A89
   113 0001:00018A92   114 0001:00018AA4   115 0001:00018AAE   116 0001:00018ABA
   117 0001:00018AC8   119 0001:00018ACF   120 0001:00018ADA   133 0001:00018AE0
   134 0001:00018AE4   135 0001:00018AE9   136 0001:00018AF2   137 0001:00018B01
   139 0001:00018B0A   140 0001:00018B1F   141 0001:00018B28   143 0001:00018B40
   162 0001:00018B6C   163 0001:00018B78   164 0001:00018B7C   165 0001:00018B86
   167 0001:00018BA2   168 0001:00018BA8   169 0001:00018BAD   170 0001:00018BB3
   174 0001:00018BDD   189 0001:00018BE4   190 0001:00018C06   194 0001:00018C13
   195 0001:00018C20   196 0001:00018C67   198 0001:00018C79   199 0001:00018C80
   200 0001:00018C8B   201 0001:00018C92   202 0001:00018C9D   208 0001:00018D1A
   209 0001:00018D2C   210 0001:00018D3E   213 0001:00018D4B   216 0001:00018D51
   219 0001:00018D74   220 0001:00018D7A   221 0001:00018D88   223 0001:00018DA3
   228 0001:00018DB4   229 0001:00018DE5   262 0001:00018DEC   263 0001:00018DF5
   265 0001:00018E02   266 0001:00018E09   267 0001:00018E14   269 0001:00018E48
   270 0001:00018E53   271 0001:00018E59   273 0001:00018E5E   274 0001:00018E67
   275 0001:00018E98   277 0001:00018EA7   278 0001:00018EB5   283 0001:00018EBC
   284 0001:00018ED8   285 0001:00018EE5   286 0001:00018F15   287 0001:00018F20
   288 0001:00018F55   291 0001:00018F5C   292 0001:00018F78   293 0001:00018F85
   294 0001:00018FC4   295 0001:00018FF5   307 0001:00019000   308 0001:0001902B
   311 0001:00019039   312 0001:00019044   313 0001:0001904C   314 0001:00019057
   315 0001:00019067   316 0001:0001906D   317 0001:00019072   318 0001:0001907D
   319 0001:0001908B   321 0001:0001909E   323 0001:000190B4   324 0001:000190BD
   325 0001:000190DE   327 0001:0001910C   328 0001:00019115   329 0001:00019148
   331 0001:00019183   334 0001:000191AE   336 0001:000191B1   337 0001:000191B9
   340 0001:000191F3   344 0001:0001920C   347 0001:0001922E   349 0001:00019251
   352 0001:0001925D   353 0001:00019265   354 0001:0001927E   355 0001:0001928C
   357 0001:000192A3   360 0001:000192DB   365 0001:000192F4   366 0001:0001930E
   367 0001:00019317   368 0001:00019337   369 0001:00019367   371 0001:000193C8
   371 0001:000193CF

Line numbers for TextFileU(..\TextFileU.pas) segment .text

    35 0001:00019428    36 0001:00019443    37 0001:0001944D    41 0001:00019482
    42 0001:000194C0    43 0001:000194D8    44 0001:000194FA    47 0001:00019500
    48 0001:0001951B    49 0001:00019525    53 0001:0001955A    54 0001:00019598
    55 0001:000195BA    58 0001:000195C0    59 0001:000195D1    60 0001:000195DC
    61 0001:000195F8    64 0001:000195FC    65 0001:00019603    67 0001:0001960C
    68 0001:00019613    70 0001:0001961E    83 0001:00019624    84 0001:00019643
    85 0001:0001964A    86 0001:0001965A    87 0001:000196B8    89 0001:000196F8
    89 0001:000196FF

Line numbers for logging(..\logging.pas) segment .text

    65 0001:00019770    66 0001:0001978C    67 0001:0001979A    68 0001:000197B4
    69 0001:000197D6    71 0001:000197ED    73 0001:0001981C    78 0001:00019880
    79 0001:0001989B    80 0001:000198A9    81 0001:000198C3    82 0001:000198CD
    83 0001:000198D2    84 0001:000198DD    85 0001:000198E8    86 0001:000198EE
    88 0001:00019940    90 0001:00019974    98 0001:000199D0    99 0001:00019A04
   100 0001:00019A0E   101 0001:00019A20   102 0001:00019A29   103 0001:00019A3F
   104 0001:00019A47   105 0001:00019A51   106 0001:00019A60   107 0001:00019A7A
   108 0001:00019A88   110 0001:00019AAD   112 0001:00019AB0   115 0001:00019ABF
   116 0001:00019ADE   117 0001:00019AE7   119 0001:00019AF1   121 0001:00019AF7
   122 0001:00019B05   124 0001:00019B38   126 0001:00019B40   127 0001:00019B49
   129 0001:00019B5A   131 0001:00019B63   132 0001:00019B71   134 0001:00019BA4
   136 0001:00019BAC   137 0001:00019BCF   143 0001:00019BE0   144 0001:00019C27
   147 0001:00019CC8   148 0001:00019CD9   149 0001:00019CE1   150 0001:00019CF2
   154 0001:00019CFD   155 0001:00019D04   156 0001:00019D0E   157 0001:00019D1D
   158 0001:00019D28   159 0001:00019D44   162 0001:00019D70   163 0001:00019D77
   165 0001:00019D80   166 0001:00019D8B   172 0001:00019D98   178 0001:00019D9C
   180 0001:00019DC2   182 0001:00019DD1   183 0001:00019DE5   184 0001:00019E0A
   186 0001:00019E3C   187 0001:00019E47   188 0001:00019E59   190 0001:00019E69
   191 0001:00019EA2   194 0001:00019EB4   195 0001:00019EC3   196 0001:00019ECC
   197 0001:00019EE7   198 0001:00019EF3   199 0001:00019F01   201 0001:00019F1E
   203 0001:00019F33   233 0001:00019F38   234 0001:00019F64   236 0001:00019F6E
   237 0001:00019FD6   238 0001:00019FDB   237 0001:0001A00B   239 0001:0001A011
   242 0001:0001A020   243 0001:0001A02D   244 0001:0001A073   254 0001:0001A0AC
   255 0001:0001A0D2   256 0001:0001A11F   258 0001:0001A16C   258 0001:0001A173

Line numbers for DPlay(DPlay.pas) segment .text

  1551 0001:0001A240  1552 0001:0001A24C  1553 0001:0001A4DB  1554 0001:0001A4ED
  1555 0001:0001A4FF  1556 0001:0001A511  1557 0001:0001A523  1558 0001:0001A535
  1559 0001:0001A547  1560 0001:0001A559  1561 0001:0001A56B  1562 0001:0001A57D
  1563 0001:0001A58F  1564 0001:0001A5A1  1565 0001:0001A5B3  1566 0001:0001A5C5
  1567 0001:0001A5D7  1568 0001:0001A5E9  1569 0001:0001A5FB  1570 0001:0001A60D
  1571 0001:0001A61F  1572 0001:0001A631  1573 0001:0001A643  1574 0001:0001A655
  1576 0001:0001A667  1577 0001:0001A679  1578 0001:0001A68B  1579 0001:0001A69D
  1580 0001:0001A6AF  1581 0001:0001A6C1  1582 0001:0001A6D3  1583 0001:0001A6E5
  1584 0001:0001A6F7  1585 0001:0001A709  1586 0001:0001A71B  1587 0001:0001A72D
  1588 0001:0001A73F  1589 0001:0001A751  1590 0001:0001A763  1591 0001:0001A775
  1592 0001:0001A787  1593 0001:0001A799  1594 0001:0001A7AB  1595 0001:0001A7BD
  1596 0001:0001A7CF  1597 0001:0001A7E1  1598 0001:0001A7F3  1599 0001:0001A802
  1600 0001:0001A811  1601 0001:0001A820  1602 0001:0001A82F  1603 0001:0001A83E
  1604 0001:0001A84D  1605 0001:0001A85C  1606 0001:0001A86B  1608 0001:0001A878
  1610 0001:0001BB10  1610 0001:0001BB17

Line numbers for DPLobby(DPLobby.pas) segment .text

   632 0001:0001BC34   632 0001:0001BC3B

Line numbers for MemMappedDataStructure(MemMappedDataStructure.pas) segment .text

    79 0001:0001BC3C    80 0001:0001BC45    81 0001:0001BC58    84 0001:0001BC5C
    85 0001:0001BC63    86 0001:0001BC6E    88 0001:0001BC91    89 0001:0001BC9F
    91 0001:0001BCB0    92 0001:0001BCBC    93 0001:0001BCC4    94 0001:0001BCD4
    95 0001:0001BCE0    96 0001:0001BCF0    97 0001:0001BCFC    98 0001:0001BD0C
    99 0001:0001BD18   100 0001:0001BD28   101 0001:0001BD34   102 0001:0001BD44
   103 0001:0001BD50   104 0001:0001BD60   105 0001:0001BD6C   106 0001:0001BD7C
   107 0001:0001BD88   108 0001:0001BD98   109 0001:0001BDA4   110 0001:0001BDB4
   111 0001:0001BDC0   112 0001:0001BDD0   113 0001:0001BDDC   114 0001:0001BDEC
   115 0001:0001BDF8   116 0001:0001BE08   117 0001:0001BE14   118 0001:0001BE24
   121 0001:0001BE30   122 0001:0001BE40   124 0001:0001BE4C   129 0001:0001BF90
   130 0001:0001BF96   131 0001:0001BFB0   132 0001:0001BFBE   133 0001:0001BFC4
   134 0001:0001BFD0   137 0001:0001BFE0   138 0001:0001BFEC   139 0001:0001C008
   140 0001:0001C010   141 0001:0001C015   142 0001:0001C033   143 0001:0001C03B
   144 0001:0001C040   160 0001:0001C084   160 0001:0001C08B

Line numbers for PacketBufferU(packets\PacketBufferU.pas) segment .text

   784 0001:0001C0EC   784 0001:0001C0F3

Line numbers for log2(log2.pas) segment .text

    36 0001:0001C158    37 0001:0001C173    38 0001:0001C17D    40 0001:0001C18B
    44 0001:0001C1C0    45 0001:0001C1EF    46 0001:0001C1F6    47 0001:0001C1FE
    48 0001:0001C220    51 0001:0001C228    52 0001:0001C22F    54 0001:0001C238
    55 0001:0001C23F    57 0001:0001C24A    63 0001:0001C250    64 0001:0001C272
    65 0001:0001C28F    66 0001:0001C29A    68 0001:0001C2A0    69 0001:0001C2A7
    70 0001:0001C2DA    71 0001:0001C2E3    76 0001:0001C31E    77 0001:0001C31F
    78 0001:0001C322    79 0001:0001C325    81 0001:0001C326    82 0001:0001C359
    84 0001:0001C383   114 0001:0001C408   115 0001:0001C419   116 0001:0001C424
   117 0001:0001C440   119 0001:0001C474   119 0001:0001C47B

Line numbers for statslogging(statslogging.pas) segment .text

    42 0001:0001C4E8    43 0001:0001C503    44 0001:0001C50D    46 0001:0001C51B
    50 0001:0001C550    51 0001:0001C57F    52 0001:0001C586    53 0001:0001C58E
    54 0001:0001C5B0    57 0001:0001C5B8    58 0001:0001C5BF    60 0001:0001C5C8
    61 0001:0001C5CF    63 0001:0001C5DA    69 0001:0001C5E0    70 0001:0001C602
    71 0001:0001C61F    72 0001:0001C62A    74 0001:0001C630    75 0001:0001C637
    76 0001:0001C66A    77 0001:0001C673    82 0001:0001C6AE    83 0001:0001C6AF
    84 0001:0001C6B2    85 0001:0001C6B5    87 0001:0001C6B6    88 0001:0001C6E9
    90 0001:0001C713   120 0001:0001C7A8   121 0001:0001C7D4   122 0001:0001C86E
   125 0001:0001C8A0   126 0001:0001C8CA   127 0001:0001C939   130 0001:0001C970
   131 0001:0001C99B   132 0001:0001CA32   135 0001:0001CA64   136 0001:0001CA8D
   137 0001:0001CB10   140 0001:0001CB40   141 0001:0001CB6C   142 0001:0001CCAE
   145 0001:0001CCE0   146 0001:0001CCF1   147 0001:0001CCFC   148 0001:0001CD18
   150 0001:0001CD4C   150 0001:0001CD53

Line numbers for IniFiles(IniFiles.pas) segment .text

   160 0001:0001CF2C   161 0001:0001CF47   162 0001:0001CF70   181 0001:0001CF74
   182 0001:0001CF9A   183 0001:0001CFAD   185 0001:0001CFD4   186 0001:0001CFFA
   187 0001:0001D02D   190 0001:0001D040   191 0001:0001D063   192 0001:0001D09D
   196 0001:0001D0A4   197 0001:0001D0B4   198 0001:0001D0D1   203 0001:0001D0D8
   204 0001:0001D0FD   205 0001:0001D110   206 0001:0001D11C   207 0001:0001D122
   208 0001:0001D130   213 0001:0001D161   215 0001:0001D18B   220 0001:0001D194
   221 0001:0001D1B9   222 0001:0001D1CC   223 0001:0001D1D8   224 0001:0001D1DE
   225 0001:0001D1EC   230 0001:0001D21D   232 0001:0001D247   237 0001:0001D250
   238 0001:0001D275   239 0001:0001D288   240 0001:0001D294   241 0001:0001D29A
   242 0001:0001D2A8   247 0001:0001D2D9   249 0001:0001D303   254 0001:0001D30C
   255 0001:0001D331   256 0001:0001D344   257 0001:0001D350   258 0001:0001D356
   259 0001:0001D364   264 0001:0001D395   266 0001:0001D3BF   269 0001:0001D3C8
   270 0001:0001D3EB   271 0001:0001D428   274 0001:0001D430   275 0001:0001D453
   276 0001:0001D490   279 0001:0001D498   280 0001:0001D4BB   281 0001:0001D4FC
   284 0001:0001D504   285 0001:0001D527   286 0001:0001D564   291 0001:0001D584
   292 0001:0001D594   293 0001:0001D5AF   314 0001:0001D5B8   315 0001:0001D5DB
   316 0001:0001D5EE   318 0001:0001D5F8   319 0001:0001D60A   321 0001:0001D612
   323 0001:0001D621   324 0001:0001D62F   325 0001:0001D63A   326 0001:0001D65E
   327 0001:0001D699   328 0001:0001D6A7   329 0001:0001D6AF   330 0001:0001D6CC
   332 0001:0001D6E6   333 0001:0001D6EE   337 0001:0001D6FE   338 0001:0001D723
   345 0001:0001D72C   346 0001:0001D74F   347 0001:0001D77C   349 0001:0001D78C
   350 0001:0001D79E   352 0001:0001D7A6   354 0001:0001D7B5   355 0001:0001D7C3
   357 0001:0001D7CB   358 0001:0001D7F2   360 0001:0001D7FE   363 0001:0001D84C
   364 0001:0001D854   367 0001:0001D864   368 0001:0001D893   821 0001:0001D89C
   822 0001:0001D8AD   823 0001:0001D8B5   824 0001:0001D8D1   829 0001:0001D8D8
   830 0001:0001D8EA   832 0001:0001D932   835 0001:0001D938   836 0001:0001D947
   838 0001:0001D977   839 0001:0001D9A1   846 0001:0001D9A8   847 0001:0001D9C7
   848 0001:0001D9D4   849 0001:0001D9E2   850 0001:0001D9EA   851 0001:0001D9F8
   852 0001:0001DA00   855 0001:0001DA24   858 0001:0001DA2C   859 0001:0001DA42
   856 0001:0001DA4E   863 0001:0001DA63   866 0001:0001DA80   868 0001:0001DAAD
   875 0001:0001DAB4   876 0001:0001DAD7   877 0001:0001DAE4   878 0001:0001DAF2
   879 0001:0001DAFA   880 0001:0001DB08   881 0001:0001DB10   884 0001:0001DB3B
   887 0001:0001DB43   888 0001:0001DB59   885 0001:0001DB65   892 0001:0001DB7A
   895 0001:0001DB97   897 0001:0001DBC4   903 0001:0001DBCC   904 0001:0001DBF8
   905 0001:0001DC07   906 0001:0001DC15   907 0001:0001DC23   908 0001:0001DC2B
   909 0001:0001DC39   910 0001:0001DC41   911 0001:0001DC59   912 0001:0001DCAB
   910 0001:0001DCAE   913 0001:0001DCC0   916 0001:0001DCDD   918 0001:0001DD0F
   921 0001:0001DD20   922 0001:0001DD2C   923 0001:0001DD4E   924 0001:0001DD78
   927 0001:0001DD7C   928 0001:0001DD8B   929 0001:0001DDB0   932 0001:0001DDB4
   933 0001:0001DDBB   934 0001:0001DDD2   945 0001:0001DE20   945 0001:0001DE27

Line numbers for Registry(Registry.pas) segment .text

   164 0001:0001DF5C   165 0001:0001DF65   166 0001:0001DF8C   169 0001:0001DF90
   170 0001:0001DF99   171 0001:0001DFB3   174 0001:0001DFB8   175 0001:0001DFC1
   176 0001:0001DFD6   177 0001:0001DFDF   178 0001:0001DFE8   179 0001:0001DFF1
   181 0001:0001DFFA   183 0001:0001E002   186 0001:0001E008   187 0001:0001E011
   188 0001:0001E01D   189 0001:0001E029   190 0001:0001E035   191 0001:0001E041
   192 0001:0001E048   195 0001:0001E04C   196 0001:0001E064   197 0001:0001E071
   198 0001:0001E07B   199 0001:0001E09D   202 0001:0001E0A4   203 0001:0001E0BF
   204 0001:0001E0C9   205 0001:0001E0ED   208 0001:0001E0F4   209 0001:0001E105
   210 0001:0001E10D   211 0001:0001E129   214 0001:0001E130   215 0001:0001E137
   217 0001:0001E140   218 0001:0001E149   219 0001:0001E155   220 0001:0001E161
   221 0001:0001E169   223 0001:0001E174   226 0001:0001E178   227 0001:0001E184
   229 0001:0001E18F   231 0001:0001E198   232 0001:0001E1A4   234 0001:0001E1AB
   235 0001:0001E1B4   237 0001:0001E1BC   240 0001:0001E1C0   241 0001:0001E1CF
   242 0001:0001E1D7   243 0001:0001E1E0   244 0001:0001E1EE   247 0001:0001E1F4
   248 0001:0001E200   249 0001:0001E20F   250 0001:0001E21A   251 0001:0001E226
   254 0001:0001E22C   255 0001:0001E238   256 0001:0001E241   264 0001:0001E248
   265 0001:0001E267   266 0001:0001E26C   267 0001:0001E277   268 0001:0001E282
   269 0001:0001E29A   271 0001:0001E2CF   272 0001:0001E2E0   273 0001:0001E327
   281 0001:0001E32C   282 0001:0001E34F   283 0001:0001E35A   285 0001:0001E365
   286 0001:0001E37D   287 0001:0001E382   289 0001:0001E38E   292 0001:0001E3BD
   294 0001:0001E3F4   296 0001:0001E3FA   297 0001:0001E424   299 0001:0001E452
   442 0001:0001E464   443 0001:0001E473   444 0001:0001E482   446 0001:0001E4AC
   447 0001:0001E4BC   452 0001:0001E4C0   453 0001:0001E4CC   454 0001:0001E4DE
   455 0001:0001E4E6   456 0001:0001E4F0   468 0001:0001E4F4   469 0001:0001E503
   470 0001:0001E524   481 0001:0001E528   482 0001:0001E537   483 0001:0001E545
   485 0001:0001E54B   486 0001:0001E558   487 0001:0001E577   488 0001:0001E583
   489 0001:0001E59E   491 0001:0001E5A8   492 0001:0001E5B0   607 0001:0001E5B4
   608 0001:0001E5C3   609 0001:0001E5CE   611 0001:0001E5F5   612 0001:0001E61C
   618 0001:0001E624   619 0001:0001E633   620 0001:0001E638   622 0001:0001E65F
   623 0001:0001E686   624 0001:0001E68C   625 0001:0001E69C   637 0001:0001E6A4
   638 0001:0001E6B0   639 0001:0001E6C4   645 0001:0001E6C8   646 0001:0001E6E7
   647 0001:0001E6F2   648 0001:0001E6FD   649 0001:0001E715   650 0001:0001E71A
   651 0001:0001E761   897 0001:0001E768   898 0001:0001E783   899 0001:0001E7B0
   902 0001:0001E7B4   903 0001:0001E7CF   904 0001:0001E7DC   905 0001:0001E7EA
   906 0001:0001E812   911 0001:0001E818   912 0001:0001E827   913 0001:0001E835
   914 0001:0001E83F   915 0001:0001E84D   916 0001:0001E856   917 0001:0001E861
   918 0001:0001E86F   919 0001:0001E87E   920 0001:0001E88E   922 0001:0001E8A6
   925 0001:0001E8C6   927 0001:0001E8D7   928 0001:0001E8E2   933 0001:0001E8E8
   934 0001:0001E8F7   935 0001:0001E902   936 0001:0001E910   937 0001:0001E916
   938 0001:0001E924   939 0001:0001E92D   940 0001:0001E938   941 0001:0001E946
   943 0001:0001E961   946 0001:0001E981   948 0001:0001E992   954 0001:0001E998
   955 0001:0001E9BB   956 0001:0001E9C9   957 0001:0001E9D3   958 0001:0001E9E1
   959 0001:0001E9EA   960 0001:0001E9F5   961 0001:0001EA03   963 0001:0001EA12
   964 0001:0001EA20   966 0001:0001EA30   968 0001:0001EA43   971 0001:0001EA63
   973 0001:0001EA74   974 0001:0001EA9A   979 0001:0001EAA4   980 0001:0001EAC7
   981 0001:0001EAD2   982 0001:0001EAE0   983 0001:0001EAEA   984 0001:0001EAF8
   985 0001:0001EB01   986 0001:0001EB0C   987 0001:0001EB1A   989 0001:0001EB40
   992 0001:0001EB60   994 0001:0001EB8E   997 0001:0001EB98   998 0001:0001EBA7
   999 0001:0001EBC4  1475 0001:0001EC2C  1475 0001:0001EC33

Line numbers for PluginEngine(PluginEngine.pas) segment .text

   194 0001:0001EF5C   196 0001:0001EF62   197 0001:0001EF63   200 0001:0001EF64
   201 0001:0001EF67   202 0001:0001EF6A   203 0001:0001EF6D   204 0001:0001EF70
   207 0001:0001EF73   208 0001:0001EF76   209 0001:0001EF77   213 0001:0001EF7C
   214 0001:0001EF7F   216 0001:0001EF82   217 0001:0001EF83   218 0001:0001EF84
   226 0001:0001EF8C   227 0001:0001EF92   228 0001:0001EF96   231 0001:0001EFB5
   232 0001:0001EFBC   233 0001:0001EFD6   236 0001:0001EFE4   237 0001:0001F009
   241 0001:0001F038   243 0001:0001F05C   249 0001:0001F064   250 0001:0001F06A
   251 0001:0001F071   252 0001:0001F08B   256 0001:0001F099   258 0001:0001F0CB
   260 0001:0001F0EF   267 0001:0001F0F8   268 0001:0001F110   269 0001:0001F135
   277 0001:0001F13C   278 0001:0001F158   280 0001:0001F166   281 0001:0001F181
   286 0001:0001F18F   287 0001:0001F1B5   289 0001:0001F1D8   291 0001:0001F1FD
   294 0001:0001F205   295 0001:0001F206   296 0001:0001F209   297 0001:0001F20C
   299 0001:0001F20D   301 0001:0001F237   302 0001:0001F25B   314 0001:0001F27C
   315 0001:0001F298   316 0001:0001F2A0   317 0001:0001F2B7   319 0001:0001F2D4
   320 0001:0001F2EF   325 0001:0001F2FD   326 0001:0001F334   331 0001:0001F36B
   333 0001:0001F38C   335 0001:0001F3B1   338 0001:0001F3B9   339 0001:0001F3BA
   340 0001:0001F3BD   341 0001:0001F3C0   343 0001:0001F3C1   345 0001:0001F3EB
   346 0001:0001F40F   363 0001:0001F430   364 0001:0001F44C   365 0001:0001F454
   366 0001:0001F458   367 0001:0001F47A   368 0001:0001F481   370 0001:0001F49E
   371 0001:0001F4B9   376 0001:0001F4C7   377 0001:0001F4FE   382 0001:0001F51F
   384 0001:0001F540   386 0001:0001F565   389 0001:0001F56D   390 0001:0001F56E
   391 0001:0001F571   392 0001:0001F574   394 0001:0001F575   396 0001:0001F59F
   397 0001:0001F5C3   406 0001:0001F5E4   407 0001:0001F5FC   408 0001:0001F603
   409 0001:0001F608   408 0001:0001F622   410 0001:0001F646   419 0001:0001F64C
   420 0001:0001F668   421 0001:0001F670   422 0001:0001F698   423 0001:0001F6BB
   425 0001:0001F6DE   426 0001:0001F6FF   431 0001:0001F70D   432 0001:0001F74A
   437 0001:0001F774   439 0001:0001F79B   441 0001:0001F7C6   444 0001:0001F7D4
   445 0001:0001F7D5   446 0001:0001F7D8   447 0001:0001F7DB   449 0001:0001F7DC
   451 0001:0001F806   452 0001:0001F82A   463 0001:0001F8A4   464 0001:0001F8D5
   465 0001:0001F8DE   466 0001:0001F8EC   467 0001:0001F8F5   468 0001:0001F8FE
   469 0001:0001F93F   473 0001:0001F948   474 0001:0001F957   475 0001:0001F968
   476 0001:0001F971   477 0001:0001F97F   478 0001:0001F98B   479 0001:0001F994
   480 0001:0001F9B6   486 0001:0001F9BC   487 0001:0001F9CB   488 0001:0001F9DC
   489 0001:0001F9E5   490 0001:0001F9F3   491 0001:0001F9FC   492 0001:0001FA08
   501 0001:0001FA10   502 0001:0001FA1F   503 0001:0001FA30   504 0001:0001FA39
   505 0001:0001FA47   506 0001:0001FA64   507 0001:0001FA7E   506 0001:0001FA9C
   508 0001:0001FAA1   509 0001:0001FAAD   533 0001:0001FAB4   534 0001:0001FAC3
   535 0001:0001FAD4   536 0001:0001FADD   537 0001:0001FAEB   538 0001:0001FB08
   539 0001:0001FB22   538 0001:0001FB54   540 0001:0001FB59   541 0001:0001FB65
   546 0001:0001FB6C   547 0001:0001FB78   548 0001:0001FB92   549 0001:0001FBA0
   550 0001:0001FBC7   551 0001:0001FBD2   552 0001:0001FBF2   564 0001:0001FC78
   565 0001:0001FC81   567 0001:0001FC87   568 0001:0001FC94   569 0001:0001FCBA
   571 0001:0001FCD7   577 0001:0001FCDC   579 0001:0001FCF9   580 0001:0001FD07
   581 0001:0001FD24   584 0001:0001FD92   585 0001:0001FDB2   586 0001:0001FDCF
   587 0001:0001FDFA   588 0001:0001FE11   589 0001:0001FE4B   587 0001:0001FE69
   590 0001:0001FE6E   580 0001:0001FE71   591 0001:0001FE9D   617 0001:0001FEA4
   618 0001:0001FEBE   619 0001:0001FECC   620 0001:0001FEE9   622 0001:0001FF0D
   623 0001:0001FF38   624 0001:0001FF4F   625 0001:0001FF6C   623 0001:0001FF8B
   626 0001:0001FF90   627 0001:0001FFB0   628 0001:0001FFCD   619 0001:0001FFD0
   629 0001:0001FFFC   631 0001:00020044   631 0001:0002004B

Line numbers for TAMemManipulations(TAMem\TAMemManipulations.pas) segment .text

    32 0001:0002004C    33 0001:00020058    34 0001:0002007D    37 0001:00020084
    38 0001:00020093    40 0001:000200A2    41 0001:000200AC    45 0001:000200BA
    46 0001:000200BE    48 0001:000200CB    55 0001:000200D0    56 0001:000200DF
    58 0001:000200FB    60 0001:0002011F    61 0001:00020127    62 0001:0002012B
    64 0001:0002012D    65 0001:00020138    56 0001:0002013B    66 0001:00020140
    67 0001:00020149    68 0001:0002014F    69 0001:00020156    72 0001:0002015C
    73 0001:00020169    74 0001:00020173    82 0001:00020178    83 0001:00020184
    84 0001:0002018C    92 0001:00020190    93 0001:00020194    95 0001:00020199
    96 0001:000201A9    98 0001:000201B3   100 0001:000201F3   102 0001:000201FD
   105 0001:0002025D   106 0001:00020267   107 0001:00020287   109 0001:00020291
   110 0001:000202B1   112 0001:000202BB   116 0001:0002032B   118 0001:00020335
   119 0001:00020345   121 0001:0002034F   122 0001:0002035F   124 0001:00020369
   125 0001:00020379   127 0001:00020383   128 0001:00020393   130 0001:0002039D
   131 0001:000203BD   133 0001:000203C7   134 0001:000203D7   136 0001:000203E1
   138 0001:00020421   140 0001:0002042B   143 0001:0002048B   144 0001:00020495
   147 0001:000204F5   152 0001:000204FF   153 0001:00020517   155 0001:00020524
   157 0001:00020558   157 0001:0002055F

Line numbers for TA_MemoryLocations(TAMem\TA_MemoryLocations.pas) segment .text

   149 0001:00020660   150 0001:00020664   151 0001:00020674   165 0001:00020678
   166 0001:00020690   169 0001:00020746   170 0001:0002079C   171 0001:000207A8
   173 0001:000207B1   174 0001:000207BF   175 0001:000207E0   176 0001:000207E9
   178 0001:0002080B   179 0001:0002080E   181 0001:0002081A   183 0001:00020821
   184 0001:0002082C   189 0001:00020834   190 0001:0002083D   191 0001:00020858
   194 0001:0002085C   195 0001:00020865   196 0001:00020880   199 0001:00020884
   200 0001:0002088D   201 0001:000208AB   204 0001:000208B0   205 0001:000208B9
   206 0001:000208D7   209 0001:000208DC   210 0001:000208E5   211 0001:00020902
   214 0001:00020908   215 0001:00020911   216 0001:0002092C   232 0001:00020930
   233 0001:0002093C   234 0001:00020943   235 0001:00020963   236 0001:00020968
   238 0001:0002096E   240 0001:00020978   241 0001:00020987   243 0001:00020989
   244 0001:0002099B   236 0001:000209A6   246 0001:000209AF   259 0001:000209B4
   260 0001:000209C0   261 0001:000209DE   262 0001:00020A12   287 0001:00020A18
   288 0001:00020A27   289 0001:00020A33   290 0001:00020A5B   304 0001:00020A60
   305 0001:00020A6C   306 0001:00020A81   392 0001:00020A88   393 0001:00020A94
   394 0001:00020AAE   407 0001:00020AB4   408 0001:00020AC0   409 0001:00020AD7
   412 0001:00020ADC   413 0001:00020AE8   414 0001:00020B00   416 0001:00020B34
   416 0001:00020B3B

Line numbers for COB_extensions(plugins\COB_extensions.pas) segment .text

    51 0001:00020B3C    55 0001:00020B40    58 0001:00020B44    59 0001:00020B48
    62 0001:00020B5A    67 0001:00020B86    76 0001:00020BA7    77 0001:00020BAF
    86 0001:00020BEC    87 0001:00020BF2    88 0001:00020BF7    90 0001:00020C11
    91 0001:00020C53    94 0001:00020C5F    95 0001:00020C6F    97 0001:00020C94
   101 0001:00020CB9   105 0001:00020CE4   106 0001:00020CF4   110 0001:00020D12
   111 0001:00020D22   112 0001:00020D32   113 0001:00020D4B   117 0001:00020D76
   121 0001:00020D99   122 0001:00020DA9   123 0001:00020DB9   124 0001:00020DC9
   126 0001:00020DD6   128 0001:00020DDF   133 0001:00020DE9   147 0001:00020DF0
   148 0001:00020DF6   149 0001:00020DFA   150 0001:00020DFD   152 0001:00020DFE
   153 0001:00020E01   154 0001:00020E04   156 0001:00020E07   157 0001:00020E0A
   158 0001:00020E0C   160 0001:00020E14   164 0001:00020E15   165 0001:00020E16
   166 0001:00020E19   168 0001:00020E1B   169 0001:00020E21   170 0001:00020E25
   171 0001:00020E2B   172 0001:00020E31   174 0001:00020E33   175 0001:00020E35
   177 0001:00020E37   178 0001:00020E3D   179 0001:00020E3F   181 0001:00020E41
   182 0001:00020E46   185 0001:00020E4B   186 0001:00020E4F   187 0001:00020E50
   188 0001:00020E54   189 0001:00020E55   190 0001:00020E59   191 0001:00020E5A
   192 0001:00020E5E   193 0001:00020E5F   194 0001:00020E60   196 0001:00020E61
   199 0001:00020E66   200 0001:00020E67   201 0001:00020E6A   202 0001:00020E6D
   204 0001:00020EA0   204 0001:00020EA7

Line numbers for TlHelp32(TlHelp32.pas) segment .text

   339 0001:00020EA8   340 0001:00020EAC   342 0001:00020EB9   343 0001:00020EC8
   345 0001:00020ED5   346 0001:00020EEA   347 0001:00020EFF   348 0001:00020F14
   349 0001:00020F29   350 0001:00020F3E   351 0001:00020F53   352 0001:00020F68
   353 0001:00020F7D   354 0001:00020F92   355 0001:00020FA7   356 0001:00020FBC
   357 0001:00020FD1   358 0001:00020FE6   359 0001:00020FFB   360 0001:00021010
   363 0001:00021025   364 0001:00021043   367 0001:00021168   368 0001:00021174
   369 0001:0002117D   370 0001:00021190   371 0001:00021198   452 0001:0002119C
   453 0001:000211A8   454 0001:000211B1   455 0001:000211C4   456 0001:000211CC
   459 0001:000211D0   460 0001:000211DC   461 0001:000211E5   462 0001:000211F8
   463 0001:00021200   479 0001:00021234   479 0001:0002123B

Line numbers for TA_FunctionsU(TAMem\TA_FunctionsU.pas) segment .text

   166 0001:0002126C   166 0001:00021273

Line numbers for ErrorLog_ExtraData(plugins\ErrorLog_ExtraData.pas) segment .text

    29 0001:00021274    33 0001:00021278    36 0001:0002127C    37 0001:00021280
    40 0001:00021289    45 0001:000212AD    53 0001:000212CA    54 0001:000212D2
    69 0001:00021370    70 0001:000213B2    71 0001:000213C0    72 0001:000213CE
    73 0001:000213F2    74 0001:000213FB    75 0001:00021449    78 0001:00021450
    79 0001:0002145C    80 0001:0002146A    81 0001:00021473    82 0001:00021481
    84 0001:0002148A    85 0001:00021492   100 0001:00021498   101 0001:000214E1
   103 0001:000214EF   104 0001:000214FE   105 0001:00021508   107 0001:00021516
   110 0001:00021520   111 0001:00021532   112 0001:00021541   113 0001:00021552
   115 0001:00021560   119 0001:0002158A   123 0001:000215E7   125 0001:000215F9
   127 0001:00021606   128 0001:0002160E   130 0001:00021631   131 0001:0002163F
   133 0001:00021653   138 0001:000216D4   128 0001:000216D7   140 0001:000216E0
   141 0001:000216EC   143 0001:0002173C   147 0001:00021759   150 0001:00021777
   152 0001:000217BD   156 0001:000217DC   157 0001:000217DD   159 0001:000217E2
   160 0001:000217E7   161 0001:000217EC   164 0001:00021820   164 0001:00021827

Line numbers for Thread_marshaller(plugins\Thread_marshaller.pas) segment .text

    33 0001:00021828    37 0001:0002182C    74 0001:00021830    75 0001:00021834
    78 0001:0002183D    91 0001:00021863    92 0001:0002186B    99 0001:000218BC
    99 0001:000218C3

Line numbers for UnitLimit(plugins\UnitLimit.pas) segment .text

    68 0001:000218C4    72 0001:000218C8    77 0001:000218CC    78 0001:000218E5
    80 0001:000218FF    82 0001:00021909    86 0001:0002194C    90 0001:0002196A
    94 0001:00021988   101 0001:000219A8   102 0001:000219CD   104 0001:00021A6C
   104 0001:00021A73

Line numbers for ModsList(ModsList.pas) segment .text

    20 0001:00021A74    21 0001:00021A9F    22 0001:00021AA3    24 0001:00021AAD
    25 0001:00021ACF    26 0001:00021ADD    27 0001:00021AEB    29 0001:00021AF9
    30 0001:00021B08    31 0001:00021B30    32 0001:00021B3B    33 0001:00021B64
    34 0001:00021B6F    35 0001:00021B98    36 0001:00021BA3    37 0001:00021BCC
    38 0001:00021BFA    41 0001:00021C30    42 0001:00021C34    45 0001:00021C53
    49 0001:00021C5E    51 0001:00021C97    56 0001:00021D28    57 0001:00021D61
    59 0001:00021D6B    60 0001:00021D8D    61 0001:00021D9B    63 0001:00021DA5
    64 0001:00021DB4    67 0001:00021DE7    70 0001:00021E2E    72 0001:00021E90
    72 0001:00021E97

Line numbers for INI_Options(INI_Options.pas) segment .text

    38 0001:00021EDC    39 0001:00021F11    40 0001:00021F19    41 0001:00021F26
    42 0001:00021F33    43 0001:00021F40    44 0001:00021F4D    45 0001:00021F5A
    46 0001:00021F67    47 0001:00021F74    48 0001:00021F81    49 0001:00021F8E
    51 0001:00021F9B    53 0001:00021FA6    55 0001:00021FAD    56 0001:00021FE2
    53 0001:00021FE5    57 0001:00022023    69 0001:000220C8    70 0001:000220EC
    72 0001:000220F9    73 0001:00022106    74 0001:00022124    75 0001:0002212B
    76 0001:00022139    77 0001:00022151    79 0001:00022155    80 0001:00022173
    81 0001:0002217E    77 0001:00022181    82 0001:00022187    83 0001:000221A9
    84 0001:000221B4    85 0001:000221CE    86 0001:000221E0    87 0001:000221EF
    90 0001:0002220C    91 0001:00022228    92 0001:0002224B    95 0001:00022260
    96 0001:000222AB   102 0001:000222D4   103 0001:000222F3   105 0001:000222F7
   106 0001:000222FE   107 0001:00022308   108 0001:0002230F   110 0001:0002232A
   111 0001:00022344   112 0001:00022352   113 0001:0002236B   114 0001:0002238F
   115 0001:000223B3   117 0001:000223D7   119 0001:000223FB   120 0001:00022420
   122 0001:00022445   123 0001:0002246A   125 0001:0002248F   127 0001:000224B8
   128 0001:000224DD   129 0001:00022502   131 0001:0002251C   132 0001:00022520
   135 0001:00022555   137 0001:000226B0   137 0001:000226B7

Line numbers for packet_old(..\packet_old.pas) segment .text

    80 0001:00022720    81 0001:00022752    82 0001:0002275C    83 0001:000227C7
   134 0001:000227CC   135 0001:000227FD   136 0001:00022848   140 0001:0002285C
   141 0001:00022865   142 0001:00022891   170 0001:00022898   171 0001:000228A4
   172 0001:000228CF   180 0001:000228D4   181 0001:000228F3   182 0001:00022933
   195 0001:00022938   196 0001:00022947   197 0001:00022AA8   198 0001:00022AB4
   199 0001:00022AC0   200 0001:00022ACC   201 0001:00022AD8   202 0001:00022AE4
   203 0001:00022AF0   204 0001:00022AFC   205 0001:00022B08   208 0001:00022B14
   209 0001:00022B1B   213 0001:00022B50   216 0001:00022B6F   217 0001:00022BA9
   221 0001:00022BB9   222 0001:00022BC5   223 0001:00022BD1   224 0001:00022BDD
   225 0001:00022BE9   229 0001:00022C18   230 0001:00022C24   231 0001:00022C30
   232 0001:00022C3C   233 0001:00022C48   234 0001:00022C54   235 0001:00022C60
   236 0001:00022C6C   237 0001:00022C8F   238 0001:00022C9B   239 0001:00022CBE
   241 0001:00022CCA   242 0001:00022CD6   243 0001:00022CE2   244 0001:00022CEE
   245 0001:00022CFA   246 0001:00022D06   248 0001:00022D12   249 0001:00022D1E
   250 0001:00022D2A   252 0001:00022D4D   253 0001:00022D59   254 0001:00022D65
   255 0001:00022D71   256 0001:00022DA5   257 0001:00022DAE   258 0001:00022DE4
   259 0001:00022DED   260 0001:00022DF6   262 0001:00022DFE   309 0001:00022E04
   310 0001:00022E2F   312 0001:00022E37   313 0001:00022E3F   316 0001:00022E44
   317 0001:00022E59   319 0001:00022EC2   320 0001:00022EF6   322 0001:00022F25
   324 0001:00022F34   325 0001:00022FA5   327 0001:00022FAA   329 0001:00022FB4
   330 0001:0002302C   331 0001:00023039   335 0001:00023043   336 0001:00023050
   337 0001:00023075   339 0001:000230AB   351 0001:00023174   352 0001:0002319B
   354 0001:000231A8   355 0001:000231B8   357 0001:000231BD   358 0001:000231C3
   360 0001:000231DE   361 0001:000231ED   362 0001:0002320A   358 0001:0002320D
   363 0001:00023212   364 0001:0002321E   366 0001:0002322A   367 0001:0002323B
   370 0001:0002324A   371 0001:00023272   383 0001:000232BC   384 0001:000232E2
   386 0001:000232EF   387 0001:00023300   388 0001:0002330D   390 0001:0002330F
   391 0001:00023315   393 0001:00023330   394 0001:0002334F   395 0001:0002335E
   391 0001:00023361   396 0001:00023366   397 0001:00023372   399 0001:0002337C
   400 0001:000233A4   419 0001:000233E4   420 0001:00023416   422 0001:00023435
   423 0001:00023440   425 0001:00023445   426 0001:00023450   430 0001:00023457
   431 0001:00023465   432 0001:000234A2   433 0001:000234DF   434 0001:0002351C
   436 0001:00023523   437 0001:00023527   438 0001:00023535   440 0001:00023541
   441 0001:0002355E   442 0001:00023569   444 0001:0002356E   446 0001:00023576
   447 0001:0002357A   449 0001:00023584   451 0001:00023596   452 0001:000235A1
   454 0001:000235AC   455 0001:000235C8   456 0001:0002360F   457 0001:00023617
   459 0001:00023625   460 0001:0002365E   464 0001:0002366E   465 0001:0002368E
   466 0001:00023699   467 0001:000236A2   468 0001:000236A8   469 0001:000236B2
   470 0001:000236B6   472 0001:000236DF   473 0001:000236EA   475 0001:000236F5
   476 0001:00023711   477 0001:00023758   478 0001:00023760   480 0001:0002376E
   481 0001:000237B3   470 0001:000237B6   483 0001:000237BF   442 0001:000237C2
   438 0001:000237CC   486 0001:000237E5   488 0001:000237F0   489 0001:000237F6
   491 0001:00023842   500 0001:000238A0   501 0001:000238CA   503 0001:000238D3
   504 0001:000238DE   505 0001:00023900   507 0001:00023905   508 0001:0002390D
   509 0001:00023914   512 0001:00023920   514 0001:00023926   515 0001:0002392D
   516 0001:0002393D   518 0001:0002394A   519 0001:00023955   521 0001:00023964
   522 0001:00023994   525 0001:000239A4   526 0001:000239AB   528 0001:000239CC
   530 0001:000239D3   529 0001:000239DE   531 0001:00023A53   533 0001:00023A5B
   534 0001:00023A61   535 0001:00023A74   538 0001:00023A7A   526 0001:00023A7D
   539 0001:00023A86   541 0001:00023A8D   540 0001:00023A98   542 0001:00023AFB
   544 0001:00023B03   545 0001:00023B09   547 0001:00023B26   549 0001:00023B30
   550 0001:00023B81   551 0001:00023B94   552 0001:00023BB8   553 0001:00023BC8
   554 0001:00023BFD   555 0001:00023C07   558 0001:00023C23   559 0001:00023C53
   510 0001:00023C5E   563 0001:00023C79   564 0001:00023C7F   566 0001:00023C91
   567 0001:00023CE3   569 0001:00023CF3   570 0001:00023D19   572 0001:00023DB2
   573 0001:00023DBD   575 0001:00023E01   587 0001:00023E60   587 0001:00023E67

Line numbers for PluginCommandHandlerU(plugins\PluginCommandHandlerU.pas) segment .text

   108 0001:00023EC4   109 0001:00023EDC   110 0001:00023EE6   111 0001:00023EF8
   112 0001:00023F05   113 0001:00023F2A   116 0001:00023F30   117 0001:00023F41
   118 0001:00023F49   119 0001:00023F54   120 0001:00023F70   140 0001:00023F74
   141 0001:00023F7D   142 0001:00023F86   143 0001:00023FAA   142 0001:00023FC0
   144 0001:00023FC5   145 0001:00023FD0   166 0001:00023FD4   167 0001:00023FE1
   168 0001:00023FF9   170 0001:0002400C   171 0001:00024014   255 0001:0002404C
   255 0001:00024053

Line numbers for InputHook(plugins\InputHook.pas) segment .text

    60 0001:00024054    62 0001:00024073    63 0001:00024078    64 0001:0002407D
    65 0001:0002408B    68 0001:00024095    67 0001:00024099    69 0001:000240A1
    71 0001:000240A9    70 0001:000240AD    72 0001:000240BD    73 0001:000240C7
    75 0001:000240D7    77 0001:000240DD    78 0001:000240F5    79 0001:00024105
    80 0001:0002410B    84 0001:0002410D    85 0001:00024113    86 0001:00024122
    87 0001:0002413A    90 0001:00024145    91 0001:00024149    93 0001:00024162
    96 0001:0002416E    98 0001:00024174    99 0001:0002417A   101 0001:00024189
   104 0001:0002419D   106 0001:000241A1   107 0001:000241A7   108 0001:000241DA
   112 0001:000241E4   113 0001:000241E7   114 0001:000241F0   115 0001:00024201
   118 0001:00024204   119 0001:00024207   120 0001:00024211   123 0001:00024214
   124 0001:00024218   126 0001:0002423A   127 0001:00024253   129 0001:000242A4
   129 0001:000242AB

Line numbers for LOS_Radar(plugins\LOS_Radar.pas) segment .text

    36 0001:000242AC    41 0001:000242B3    43 0001:000242CE    49 0001:000242E9
    54 0001:00024304    84 0001:0002438C    85 0001:0002438E    86 0001:00024394
    88 0001:00024396    89 0001:00024398    90 0001:0002439A    91 0001:0002439D
    92 0001:000243A3    95 0001:000243A5    96 0001:000243A8    97 0001:000243AA
    98 0001:000243B0    99 0001:000243B8   102 0001:000243BA   103 0001:000243BE
   104 0001:000243C0   105 0001:000243C3   106 0001:000243CD   110 0001:000243CF
   111 0001:000243D1   112 0001:000243D4   116 0001:000243D6   117 0001:000243D8
   120 0001:000243DB   124 0001:000243DD   125 0001:000243E2   126 0001:000243E7
   134 0001:000243E8   135 0001:000243EB   136 0001:000243EE   137 0001:000243F0
   141 0001:000243F2   142 0001:000243F7   149 0001:000243FC   150 0001:000243FE
   153 0001:00024404   154 0001:0002440A   155 0001:00024410   158 0001:00024416
   159 0001:00024418   160 0001:0002441D   163 0001:00024422   164 0001:00024428
   165 0001:0002442D   166 0001:0002442F   167 0001:00024431   171 0001:00024437
   172 0001:0002443C   188 0001:00024440   189 0001:00024446   190 0001:0002444B
   191 0001:00024451   195 0001:00024453   197 0001:00024454   200 0001:00024459
   201 0001:0002445C   203 0001:00024462   204 0001:0002446A   207 0001:0002446C
   208 0001:00024472   210 0001:00024478   211 0001:00024479   212 0001:0002447F
   213 0001:00024484   215 0001:00024489   216 0001:0002448F   217 0001:00024495
   218 0001:00024497   219 0001:0002449D   220 0001:000244A2   221 0001:000244A8
   222 0001:000244AA   223 0001:000244AC   224 0001:000244AF   225 0001:000244B1
   226 0001:000244B3   227 0001:000244B7   228 0001:000244BB   229 0001:000244BE
   233 0001:000244C5   234 0001:000244C8   235 0001:000244CB   236 0001:000244CD
   238 0001:000244CF   239 0001:000244D4   242 0001:000244D9   243 0001:000244DE
   255 0001:000244E3   256 0001:000244E9   257 0001:000244EF   258 0001:000244F5
   260 0001:000244F7   261 0001:000244F8   262 0001:000244F9   263 0001:000244FA
   264 0001:000244FB   265 0001:000244FE   266 0001:000244FF   268 0001:00024530
   268 0001:00024537

Line numbers for LOS_MiniMapUnits(plugins\LOS_MiniMapUnits.pas) segment .text

    19 0001:00024538    20 0001:0002453F    25 0001:0002455A    44 0001:0002459C
    45 0001:0002459E    46 0001:000245A4    47 0001:000245AA    48 0001:000245B2
    50 0001:000245B4    51 0001:000245B9    53 0001:000245BE    54 0001:000245C3
    55 0001:000245C8    57 0001:000245FC    57 0001:00024603

Line numbers for LOS_PlayerSeeUnit(plugins\LOS_PlayerSeeUnit.pas) segment .text

    33 0001:00024604    39 0001:0002460B    42 0001:00024621    83 0001:0002463C
    97 0001:000246AC    99 0001:000246AD   101 0001:000246AF   102 0001:000246B5
   103 0001:000246BB   107 0001:000246C1   108 0001:000246C7   109 0001:000246CD
   123 0001:000246D3   124 0001:000246D5   125 0001:000246DB   126 0001:000246E1
   127 0001:000246E9   130 0001:000246EB   131 0001:000246F0   134 0001:000246F5
   135 0001:000246FA   136 0001:000246FF   331 0001:00024700   332 0001:00024701
   333 0001:00024702   334 0001:00024703   335 0001:00024704   336 0001:00024707
   337 0001:0002470A   340 0001:0002473C   340 0001:00024743

Line numbers for LOS_GUIText(plugins\LOS_GUIText.pas) segment .text

    20 0001:00024744    25 0001:0002474B    28 0001:00024766    34 0001:00024781
    39 0001:0002479C    54 0001:00024810    56 0001:00024817    57 0001:0002481D
    58 0001:0002481F    70 0001:00024821    71 0001:00024823    72 0001:00024829
    73 0001:0002482F    74 0001:00024837    77 0001:00024839    78 0001:0002483E
    80 0001:00024843    81 0001:00024848    82 0001:0002484D    97 0001:00024850
    98 0001:00024854   112 0001:0002485A   113 0001:0002485C   114 0001:00024862
   115 0001:00024868   116 0001:00024870   119 0001:00024872   120 0001:00024877
   123 0001:0002487C   124 0001:00024881   125 0001:00024886   140 0001:00024888
   153 0001:0002488E   154 0001:00024890   155 0001:00024896   156 0001:0002489C
   157 0001:000248A4   160 0001:000248A6   161 0001:000248AB   164 0001:000248B0
   165 0001:000248B5   166 0001:000248BA   169 0001:000248EC   169 0001:000248F3

Line numbers for LOS_UpdateTables(plugins\LOS_UpdateTables.pas) segment .text

    48 0001:000248F4    53 0001:000248FB    55 0001:00024916    60 0001:00024931
    67 0001:0002494C    72 0001:00024967    77 0001:00024982    83 0001:0002499D
    87 0001:00024A30    88 0001:00024A36    89 0001:00024A3B    90 0001:00024A3D
    91 0001:00024A43    92 0001:00024A48   107 0001:00024A4C   108 0001:00024A51
   110 0001:00024A57   113 0001:00024A59   116 0001:00024A5A   117 0001:00024A5D
   119 0001:00024A63   120 0001:00024A6B   123 0001:00024A6D   124 0001:00024A73
   129 0001:00024A75   130 0001:00024A77   131 0001:00024A78   134 0001:00024A7E
   135 0001:00024A83   136 0001:00024A85   137 0001:00024A8B   138 0001:00024A91
   141 0001:00024A93   142 0001:00024A96   145 0001:00024A98   147 0001:00024A9E
   151 0001:00024AA0   152 0001:00024AA4   155 0001:00024AA6   156 0001:00024AAC
   157 0001:00024AB2   159 0001:00024AB4   160 0001:00024AB9   162 0001:00024ABF
   165 0001:00024AC1   166 0001:00024AC3   169 0001:00024AC9   170 0001:00024ACF
   172 0001:00024AD1   173 0001:00024AD7   175 0001:00024AD9   176 0001:00024ADB
   177 0001:00024ADD   178 0001:00024AE6   182 0001:00024AED   183 0001:00024AF2
   186 0001:00024AF7   187 0001:00024AFD   189 0001:00024AFF   190 0001:00024B04
   191 0001:00024B0A   193 0001:00024B0F   196 0001:00024B11   197 0001:00024B12
   198 0001:00024B13   199 0001:00024B14   200 0001:00024B15   201 0001:00024B18
   202 0001:00024B1B   208 0001:00024B1C   210 0001:00024B22   211 0001:00024B27
   212 0001:00024B29   214 0001:00024B2F   215 0001:00024B34   230 0001:00024B38
   231 0001:00024B3D   233 0001:00024B43   236 0001:00024B45   239 0001:00024B46
   240 0001:00024B49   242 0001:00024B4F   243 0001:00024B57   246 0001:00024B59
   247 0001:00024B5F   250 0001:00024B61   251 0001:00024B63   252 0001:00024B64
   255 0001:00024B6A   256 0001:00024B6F   257 0001:00024B71   258 0001:00024B77
   259 0001:00024B7D   262 0001:00024B7F   263 0001:00024B82   266 0001:00024B84
   268 0001:00024B8A   272 0001:00024B8C   273 0001:00024B90   276 0001:00024B92
   277 0001:00024B98   278 0001:00024B9E   280 0001:00024BA0   281 0001:00024BA5
   283 0001:00024BAB   286 0001:00024BAD   287 0001:00024BAF   290 0001:00024BB5
   291 0001:00024BBB   293 0001:00024BBD   294 0001:00024BC3   296 0001:00024BC5
   297 0001:00024BC7   298 0001:00024BC9   299 0001:00024BD2   303 0001:00024BD9
   304 0001:00024BDE   307 0001:00024BE3   308 0001:00024BE9   310 0001:00024BEB
   311 0001:00024BF0   312 0001:00024BF6   314 0001:00024BFB   318 0001:00024BFD
   321 0001:00024C03   322 0001:00024C04   323 0001:00024C05   324 0001:00024C06
   325 0001:00024C07   326 0001:00024C0A   327 0001:00024C0D   329 0001:00024C40
   329 0001:00024C47

Line numbers for LOS_AllyPlayer(plugins\LOS_AllyPlayer.pas) segment .text

    30 0001:00024C48    35 0001:00024C4F    37 0001:00024C6A    43 0001:00024C85
    50 0001:00024CA0    58 0001:00024D18    59 0001:00024D1E    60 0001:00024D21
    63 0001:00024D23    64 0001:00024D25    66 0001:00024D2B    67 0001:00024D2C
    69 0001:00024D2D    70 0001:00024D2F    71 0001:00024D35    73 0001:00024D37
    74 0001:00024D38    76 0001:00024D39    77 0001:00024D3F    78 0001:00024D45
    80 0001:00024D47    81 0001:00024D4C    84 0001:00024D51    85 0001:00024D56
    86 0001:00024D5B    90 0001:00024D5C    92 0001:00024D66    94 0001:00024D68
    95 0001:00024D69    96 0001:00024D6A    97 0001:00024D6B    98 0001:00024D6C
    99 0001:00024D6D   100 0001:00024D70   104 0001:00024D74   106 0001:00024D7E
   108 0001:00024D80   109 0001:00024D81   110 0001:00024D82   111 0001:00024D83
   112 0001:00024D84   113 0001:00024D85   114 0001:00024D88   116 0001:00024DBC
   116 0001:00024DC3

Line numbers for LOS_extensions(plugins\LOS_extensions.pas) segment .text

    92 0001:00024DC4    93 0001:00024DC7    94 0001:00024DDD    97 0001:00024DE0
    99 0001:00024DE3   102 0001:00024DE8   105 0001:00024DEC   106 0001:00024DEF
   107 0001:00024DF4   111 0001:00024DF8   112 0001:00024DFE   115 0001:00024E04
   116 0001:00024E06   117 0001:00024E08   119 0001:00024E0E   122 0001:00024E18
   123 0001:00024E1D   124 0001:00024E22   140 0001:00024E24   141 0001:00024E28
   144 0001:00024E31   149 0001:00024E55   154 0001:00024E74   155 0001:00024E7C
   156 0001:00024E84   157 0001:00024E8C   158 0001:00024E94   159 0001:00024E9C
   162 0001:00024EA6   163 0001:00024EAE   165 0001:00024F0C   165 0001:00024F13

Line numbers for SpeedHack(plugins\SpeedHack.pas) segment .text

    61 0001:00024F14    62 0001:00024F1D    63 0001:00024F26    66 0001:00024F28
    67 0001:00024F2B    68 0001:00024F30    72 0001:00024F34   110 0001:00024F38
   111 0001:00024F3C   114 0001:00024F56   119 0001:00024F7E   125 0001:00024F9D
   131 0001:00024FBC   138 0001:00024FDD   139 0001:00024FE5   154 0001:00025054
   155 0001:00025056   156 0001:00025058   157 0001:0002505F   159 0001:00025061
   160 0001:00025068   161 0001:0002506F   163 0001:00025071   164 0001:00025073
   165 0001:00025074   166 0001:00025079   168 0001:0002507E   169 0001:00025083
   170 0001:00025088   185 0001:0002508C   186 0001:0002508E   187 0001:00025090
   189 0001:00025097   190 0001:0002509E   191 0001:000250A1   193 0001:000250A3
   194 0001:000250A5   195 0001:000250A6   196 0001:000250AB   198 0001:000250B0
   199 0001:000250B5   200 0001:000250BA   216 0001:000250BC   218 0001:000250BD
   219 0001:000250BF   221 0001:000250C5   222 0001:000250C7   224 0001:000250C9
   227 0001:000250CB   229 0001:000250D1   230 0001:000250D3   232 0001:000250D5
   235 0001:000250D7   236 0001:000250DC   237 0001:000250E1   239 0001:00025114
   239 0001:0002511B

Line numbers for TA_NetworkingMessages(netmsgHandling\TA_NetworkingMessages.pas) segment .text

   261 0001:0002514C   261 0001:00025153

Line numbers for idplay(idplay.pas) segment .text

   394 0001:000251C8   445 0001:000259DC   446 0001:00025A0D   448 0001:00025A39
   450 0001:00025A46   451 0001:00025A5C   455 0001:00025A70   456 0001:00025A7B
   459 0001:00025A85   458 0001:00025A92   460 0001:00025A9F   461 0001:00025AC1
   462 0001:00025AF5   467 0001:00025B20   468 0001:00025B46   470 0001:00025B72
   472 0001:00025B7F   473 0001:00025B95   477 0001:00025BA9   478 0001:00025BB4
   481 0001:00025BBE   480 0001:00025BCB   482 0001:00025BD8   483 0001:00025BF9
   484 0001:00025C25   490 0001:00025C50   492 0001:00025C77   493 0001:00025C87
   495 0001:00025C8D   496 0001:00025CAB   500 0001:00025CBD   501 0001:00025CC8
   503 0001:00025CD0   504 0001:00025CDB   505 0001:00025D03   508 0001:00025D14
   509 0001:00025D23   510 0001:00025D3D   518 0001:00025D44   519 0001:00025D6D
   520 0001:00025D73   522 0001:00025D8B   523 0001:00025D91   525 0001:00025D9B
   526 0001:00025DAD   527 0001:00025DBB   529 0001:00025DC6   531 0001:00025E1D
   535 0001:00025E2D   537 0001:00025E33   538 0001:00025E44   540 0001:00025E9B
   545 0001:00025EB4   546 0001:00025ED0   548 0001:00025EEB   549 0001:00025EF3
   550 0001:00025F06   551 0001:00025F41   552 0001:00025F4E   553 0001:00025F7E
   565 0001:00025F84   566 0001:00025FB0   567 0001:00025FB6   568 0001:00025FCA
   569 0001:00025FD0   571 0001:00025FEB   572 0001:00025FFC   573 0001:00026008
   575 0001:00026021   569 0001:00026024   576 0001:0002602B   578 0001:00026041
   580 0001:0002604E   581 0001:0002608A   583 0001:00026099   584 0001:000260A6
   585 0001:000260AE   586 0001:000260C1   587 0001:000260D3   588 0001:000260D9
   589 0001:000260E7   590 0001:00026111   592 0001:00026138   593 0001:0002613E
   595 0001:00026162   596 0001:00026197   597 0001:000261A2   598 0001:000261D4
   599 0001:00026204   602 0001:00026240   612 0001:00026248   613 0001:0002626B
   614 0001:0002628E   615 0001:000262AA   616 0001:000262CE   617 0001:000262D4
   618 0001:000262E2   619 0001:000262EB   620 0001:000262F7   621 0001:00026341
   622 0001:00026374   630 0001:000263D0   632 0001:000263EC   634 0001:000263F5
   635 0001:000263FC   636 0001:00026407   637 0001:00026435   638 0001:00026445
   639 0001:0002644B   640 0001:00026456   641 0001:00026461   642 0001:00026488
   647 0001:00026498   649 0001:0002649F   653 0001:000264AD   654 0001:000264B6
   655 0001:000264CA   670 0001:000264D0   671 0001:0002652E   672 0001:0002654A
   673 0001:00026550   675 0001:0002655D   676 0001:0002656C   677 0001:0002657A
   679 0001:00026586   680 0001:000265A9   683 0001:000265B3   684 0001:000265C1
   685 0001:000265D1   686 0001:000265DF   687 0001:000265E4   691 0001:000265EE
   692 0001:0002660C   693 0001:00026628   695 0001:00026638   698 0001:0002665B
   700 0001:0002666A   701 0001:0002668D   704 0001:00026699   705 0001:000266C3
   706 0001:000266D1   707 0001:000266D7   708 0001:000266DC   709 0001:000266FB
   711 0001:00026702   713 0001:00026708   714 0001:00026746   689 0001:00026753
   720 0001:0002676B   722 0001:00026777   723 0001:00026786   724 0001:000267A9
   727 0001:000267B8   728 0001:000267C3   729 0001:000267C8   730 0001:000267D5
   732 0001:000267F6   733 0001:0002680B   735 0001:00026813   736 0001:00026821
   738 0001:00026823   730 0001:00026826   740 0001:0002682B   741 0001:0002683A
   743 0001:000268A9   746 0001:000268CE   748 0001:0002691B   821 0001:00026A30
   822 0001:00026A41   823 0001:00026A60   824 0001:00026A7F   825 0001:00026A9E
   826 0001:00026ABD   838 0001:00026AC4   839 0001:00026B09   840 0001:00026B25
   841 0001:00026B2F   842 0001:00026B3C   843 0001:00026B58   844 0001:00026B74
   845 0001:00026B8D   846 0001:00026BA6   847 0001:00026BBF   848 0001:00026BDB
   849 0001:00026BF7   850 0001:00026C16   851 0001:00026C35   852 0001:00026C54
   853 0001:00026C73   854 0001:00026C92   855 0001:00026CB1   856 0001:00026CD0
   858 0001:00026CEF   859 0001:00026D0B   860 0001:00026D27   861 0001:00026D40
   862 0001:00026D59   863 0001:00026D72   864 0001:00026D8E   865 0001:00026DAA
   866 0001:00026DC9   867 0001:00026DE8   868 0001:00026E07   869 0001:00026E26
   870 0001:00026E45   871 0001:00026E64   872 0001:00026E83   873 0001:00026EA2
   874 0001:00026EBB   873 0001:00026ED3   875 0001:00026ED8   876 0001:00026EE7
   879 0001:00026EEC   881 0001:00026EF8   882 0001:00026F1B   885 0001:00026F20
   886 0001:00026F2E   887 0001:00026F3E   891 0001:00026F48   892 0001:00026F66
   893 0001:00026F74   895 0001:00026F84   897 0001:00026FA7   898 0001:00026FAD
   899 0001:00026FC1   900 0001:00026FC7   901 0001:00026FD6   903 0001:00026FDB
   904 0001:00026FE2   907 0001:00026FE7   908 0001:00026FF7   909 0001:00027015
   910 0001:00027033   912 0001:00027041   913 0001:00027047   914 0001:00027056
   917 0001:0002705B   918 0001:0002706B   919 0001:00027089   920 0001:000270A7
   922 0001:000270B5   923 0001:000270BB   924 0001:000270CA   927 0001:000270CF
   928 0001:000270DF   929 0001:000270FD   930 0001:0002711B   932 0001:00027129
   933 0001:0002712F   934 0001:0002713E   937 0001:00027143   938 0001:00027153
   939 0001:00027171   940 0001:0002718F   942 0001:0002719D   943 0001:000271A3
   944 0001:000271B2   947 0001:000271B7   948 0001:000271C7   949 0001:000271E5
   950 0001:00027203   952 0001:00027211   953 0001:00027217   954 0001:00027226
   957 0001:0002722B   889 0001:00027297   959 0001:000272AF   960 0001:000272C8
   959 0001:000272E0   961 0001:000272E5   962 0001:0002734F   969 0001:000274D4
   970 0001:000274F7   971 0001:0002750C   972 0001:00027516   974 0001:00027528
   975 0001:00027537   977 0001:0002753C   978 0001:0002755C   980 0001:00027577
   981 0001:000275A1   982 0001:000275AE   983 0001:000275F5   984 0001:00027601
   986 0001:00027664   987 0001:000276C5   988 0001:00027729   989 0001:00027756
   990 0001:000277BA   993 0001:0002782C   994 0001:00027838   996 0001:0002784B
   998 0001:0002785D   999 0001:0002786A  1001 0001:00027876  1002 0001:000278D7
  1006 0001:000278EA  1007 0001:0002794B  1010 0001:0002795D  1011 0001:0002796A
  1012 0001:000279B1  1014 0001:000279C1  1015 0001:00027A22  1016 0001:00027A5D
  1020 0001:00027A73  1021 0001:00027AD4  1022 0001:00027AFD  1030 0001:00027B0F
   978 0001:00027B12  1031 0001:00027B40  1047 0001:00027BD0  1048 0001:00027BDC
  1049 0001:00027BE4  1050 0001:00027C08  1052 0001:00027C1A  1053 0001:00027C2A
  1054 0001:00027C36  1056 0001:00027C48  1057 0001:00027C58  1058 0001:00027C64
  1060 0001:00027C76  1061 0001:00027C86  1062 0001:00027C91  1064 0001:00027CA3
  1068 0001:00027CB3  1078 0001:00027CE0  1079 0001:00027D15  1080 0001:00027D2A
  1082 0001:00027D3A  1084 0001:00027D56  1085 0001:00027D6C  1084 0001:00027DA2
  1086 0001:00027DA7  1087 0001:00027DD0  1090 0001:00027DDC  1091 0001:00027DEC
  1093 0001:00027DF6  1095 0001:00027E26  1097 0001:00027E3A  1099 0001:00027E5D
  1100 0001:00027E7F  1101 0001:00027E99  1103 0001:00027E9F  1104 0001:00027ECF
  1108 0001:00027ED9  1109 0001:00027F02  1111 0001:00027F1C  1112 0001:00027F20
  1113 0001:00027F34  1115 0001:00027F3E  1116 0001:00027F53  1117 0001:00027F57
  1119 0001:00027F72  1120 0001:00027F7E  1121 0001:00027F99  1123 0001:00027F9D
  1125 0001:00027FB5  1126 0001:00027FC1  1127 0001:00027FE6  1129 0001:00027FEA
  1131 0001:00027FF4  1132 0001:00028003  1133 0001:00028011  1134 0001:0002801C
  1136 0001:00028030  1137 0001:00028083  1138 0001:000280AE  1140 0001:000280B2
  1142 0001:000280CE  1143 0001:00028104  1146 0001:00028108  1147 0001:00028116
  1148 0001:0002811C  1150 0001:0002814D  1152 0001:00028150  1153 0001:00028170
  1157 0001:00028196  1161 0001:000281A6  1163 0001:000281B0  1165 0001:000281C0
  1166 0001:000281F5  1167 0001:00028244  1168 0001:00028293  1174 0001:00028315
  1175 0001:0002831E  1176 0001:00028376  1177 0001:00028382  1179 0001:000283EB
  1182 0001:0002855C  1183 0001:0002857F  1185 0001:00028585  1186 0001:00028594
  1188 0001:000285B8  1190 0001:000285E5  1196 0001:00028624  1197 0001:00028633
  1198 0001:0002864D  1200 0001:00028657  1201 0001:00028660  1202 0001:00028669
  1203 0001:00028672  1205 0001:00028681  1206 0001:0002869D  1208 0001:000286A3
  1209 0001:000286B2  1211 0001:000286B9  1212 0001:000286C3  1214 0001:000286DA
  1215 0001:000286E8  1216 0001:00028705  1217 0001:00028716  1218 0001:00028731
  1219 0001:00028742  1220 0001:00028756  1221 0001:00028768  1222 0001:0002877D
  1224 0001:000287A8  1225 0001:000287B9  1226 0001:000287C5  1227 0001:000287D2
  1212 0001:000287D5  1228 0001:000287DE  1229 0001:000287EB  1230 0001:00028808
  1231 0001:00028819  1232 0001:00028834  1233 0001:00028845  1234 0001:00028851
  1235 0001:0002885E  1236 0001:00028873  1238 0001:0002889E  1239 0001:000288AF
  1241 0001:000288B8  1250 0001:0002892C  1251 0001:00028950  1256 0001:0002895D
  1258 0001:00028975  1260 0001:00028983  1263 0001:00028999  1268 0001:00028A01
  1269 0001:00028A0C  1273 0001:00028A53  1275 0001:00028A77  1278 0001:00028A99
  1279 0001:00028AA7  1280 0001:00028AB5  1282 0001:00028AD8  1283 0001:00028ADB
  1286 0001:00028AE8  1287 0001:00028AF1  1288 0001:00028AFB  1289 0001:00028B09
  1291 0001:00028B3B  1293 0001:00028B3E  1294 0001:00028B4D  1295 0001:00028B5D
  1296 0001:00028B65  1300 0001:00028B74  1302 0001:00028B81  1303 0001:00028BA2
  1304 0001:00028BAB  1305 0001:00028BB5  1306 0001:00028BC3  1308 0001:00028BF5
  1310 0001:00028BF8  1311 0001:00028C07  1312 0001:00028C17  1313 0001:00028C1F
  1318 0001:00028C2E  1320 0001:00028C35  1321 0001:00028C3E  1322 0001:00028C4B
  1323 0001:00028C65  1324 0001:00028C8B  1325 0001:00028CAB  1326 0001:00028CE7
  1327 0001:00028CF5  1328 0001:00028D27  1329 0001:00028D57  1331 0001:00028D64
  1333 0001:00028D71  1334 0001:00028D7B  1336 0001:00028DC5  1337 0001:00028E0D
  1338 0001:00028E3F  1339 0001:00028E6F  1343 0001:00028E7C  1344 0001:00028E89
  1345 0001:00028E96  1346 0001:00028EA4  1347 0001:00028ED6  1348 0001:00028F06
  1350 0001:00028F13  1351 0001:00028F20  1352 0001:00028F2D  1354 0001:00028F37
  1355 0001:00028F42  1357 0001:00028F55  1359 0001:00028F77  1361 0001:00028F8A
  1362 0001:00028FBC  1363 0001:00028FEC  1367 0001:00028FF9  1368 0001:00029006
  1369 0001:00029013  1370 0001:00029032  1371 0001:00029064  1372 0001:00029094
  1376 0001:000290A1  1377 0001:000290AE  1378 0001:000290BB  1379 0001:000290C9
  1380 0001:000290FB  1381 0001:0002912B  1385 0001:00029138  1387 0001:00029155
  1388 0001:00029162  1389 0001:0002916F  1390 0001:00029193  1391 0001:000291C5
  1392 0001:000291F5  1393 0001:00029202  1385 0001:00029205  1397 0001:0002920E
  1399 0001:0002921C  1400 0001:00029229  1401 0001:00029236  1402 0001:00029250
  1403 0001:00029282  1404 0001:000292B2  1407 0001:000292BF  1408 0001:000292DC
  1409 0001:000292E9  1410 0001:0002930D  1411 0001:00029331  1412 0001:00029347
  1413 0001:00029360  1414 0001:00029392  1415 0001:000293C2  1416 0001:000293CF
  1407 0001:000293D2  1417 0001:000293DB  1418 0001:000293F8  1419 0001:00029405
  1420 0001:00029421  1421 0001:0002943A  1422 0001:0002946C  1423 0001:0002949C
  1424 0001:000294A9  1417 0001:000294AC  1425 0001:000294B5  1426 0001:000294C2
  1430 0001:000294D3  1431 0001:000294E0  1432 0001:0002950F  1434 0001:0002951A
  1438 0001:00029523  1439 0001:00029555  1440 0001:00029585  1441 0001:000295C4
  1447 0001:00029718  1448 0001:0002974B  1449 0001:00029753  1451 0001:00029757
  1452 0001:00029772  1454 0001:00029795  1456 0001:0002979B  1457 0001:0002979F
  1459 0001:000297CD  1460 0001:00029809  1461 0001:0002982B  1470 0001:00029869
  1473 0001:00029878  1474 0001:00029884  1475 0001:0002988C  1476 0001:00029897
  1477 0001:000298A1  1478 0001:000298CC  1479 0001:00029916  1480 0001:00029958
  1489 0001:00029984  1490 0001:000299B5  1493 0001:000299F1  1494 0001:00029A10
  1495 0001:00029A1D  1497 0001:00029A5F  1500 0001:00029A6B  1501 0001:00029AFC
  1502 0001:00029B11  1498 0001:00029B1C  1504 0001:00029B33  1507 0001:00029B43
  1509 0001:00029B89  1510 0001:00029BAD  1511 0001:00029BB1  1512 0001:00029BC4
  1513 0001:00029BD8  1516 0001:00029BEC  1519 0001:00029BF0  1520 0001:00029C15
  1521 0001:00029C22  1523 0001:00029C69  1527 0001:00029CC0  1537 0001:00029D1C
  1538 0001:00029D2B  1539 0001:00029D36  1540 0001:00029D3E  1541 0001:00029D53
  1543 0001:00029D82  1544 0001:00029DA1  1545 0001:00029DAB  1546 0001:00029DDA
  1548 0001:00029DF9  1550 0001:00029E2C  1551 0001:00029E4B  1552 0001:00029E55
  1553 0001:00029E84  1556 0001:00029EDA  1557 0001:00029EE4  1561 0001:00029EF1
  1564 0001:00029F58  1565 0001:00029F64  1566 0001:00029F72  1567 0001:00029F7B
  1568 0001:00029F89  1570 0001:00029F92  1571 0001:00029F9A  1577 0001:00029FA0
  1578 0001:00029FAC  1579 0001:00029FB3  1580 0001:00029FBC  1583 0001:00029FC0
  1584 0001:00029FCC  1585 0001:00029FD3  1586 0001:00029FDC  1587 0001:00029FE5
  1588 0001:00029FF6  1591 0001:00029FFC  1592 0001:0002A008  1593 0001:0002A00F
  1594 0001:0002A018  1595 0001:0002A021  1596 0001:0002A032  1599 0001:0002A038
  1600 0001:0002A044  1601 0001:0002A04B  1602 0001:0002A054  1605 0001:0002A058
  1606 0001:0002A065  1607 0001:0002A06C  1608 0001:0002A077  1611 0001:0002A07C
  1612 0001:0002A089  1613 0001:0002A090  1614 0001:0002A09B  1694 0001:0002A0A0
  1695 0001:0002A0D4  1696 0001:0002A0DC  1697 0001:0002A0E7  1698 0001:0002A101
  1701 0001:0002A11B  1703 0001:0002A128  1705 0001:0002A14F  1706 0001:0002A163
  1708 0001:0002A182  1709 0001:0002A18F  1710 0001:0002A1C4  1711 0001:0002A1D7
  1712 0001:0002A1F4  1714 0001:0002A248  1716 0001:0002A27B  1717 0001:0002A286
  1718 0001:0002A28E  1719 0001:0002A29C  1721 0001:0002A2A4  1723 0001:0002A2C9
  1724 0001:0002A2DD  1725 0001:0002A2F9  1724 0001:0002A335  1726 0001:0002A33D
  1729 0001:0002A354  1731 0001:0002A366  1734 0001:0002A37F  1735 0001:0002A391
  1737 0001:0002A3A8  1738 0001:0002A3AF  1739 0001:0002A3CB  1741 0001:0002A3E2
  1742 0001:0002A3E7  1743 0001:0002A3E9  1738 0001:0002A3EC  1744 0001:0002A3F4
  1746 0001:0002A3FA  1747 0001:0002A404  1753 0001:0002A417  1755 0001:0002A42F
  1756 0001:0002A440  1758 0001:0002A45E  1759 0001:0002A46B  1766 0001:0002A473
  1768 0001:0002A48E  1769 0001:0002A49A  1770 0001:0002A4A4  1771 0001:0002A4AD
  1772 0001:0002A4B7  1773 0001:0002A4C0  1776 0001:0002A4CA  1777 0001:0002A4D5
  1778 0001:0002A4DE  1782 0001:0002A4EC  1783 0001:0002A4FE  1784 0001:0002A50C
  1786 0001:0002A52A  1787 0001:0002A542  1788 0001:0002A54D  1790 0001:0002A589
  1792 0001:0002A599  1794 0001:0002A5A3  1797 0001:0002A5B0  1798 0001:0002A5FD
  1799 0001:0002A608  1801 0001:0002A627  1802 0001:0002A637  1803 0001:0002A643
  1821 0001:0002A64B  1823 0001:0002A66E  1827 0001:0002A692  1829 0001:0002A6A5
  1831 0001:0002A6B8  1834 0001:0002A6C6  1835 0001:0002A6D9  1836 0001:0002A6DF
  1841 0001:0002A701  1842 0001:0002A714  1843 0001:0002A71A  1858 0001:0002A73A
  1860 0001:0002A75D  1863 0001:0002A773  1864 0001:0002A79A  1866 0001:0002A7A8
  1867 0001:0002A7CF  1869 0001:0002A7EE  1870 0001:0002A809  1874 0001:0002A813
  1877 0001:0002A836  1878 0001:0002A85A  1879 0001:0002A862  1881 0001:0002A868
  1882 0001:0002A88C  1883 0001:0002A894  1884 0001:0002A8A0  1891 0001:0002A8BC
  1893 0001:0002A8DB  1894 0001:0002A8E4  1895 0001:0002A8F0  1899 0001:0002A926
  1901 0001:0002A933  1902 0001:0002A945  1903 0001:0002A953  1905 0001:0002A982
  1907 0001:0002A992  1908 0001:0002A9B4  1910 0001:0002A9C0  1913 0001:0002A9E5
  1915 0001:0002A9F8  1916 0001:0002AA25  1918 0001:0002AA32  1919 0001:0002AA4E
  1918 0001:0002AA8A  1920 0001:0002AA92  1922 0001:0002AAC1  1923 0001:0002AB22
  1925 0001:0002AB33  1926 0001:0002AB3E  1927 0001:0002AB47  1928 0001:0002AB5A
  1930 0001:0002AB69  1931 0001:0002AB83  1932 0001:0002ABA5  1936 0001:0002ABF2
  1937 0001:0002AC07  1938 0001:0002AC42  1939 0001:0002AC51  1940 0001:0002AC60
  1931 0001:0002AC63  1942 0001:0002AC6F  1944 0001:0002ACA3  1945 0001:0002ACB1
  1946 0001:0002ACB7  1947 0001:0002ACBC  1948 0001:0002ACF5  1950 0001:0002AD0D
  1951 0001:0002AD25  1952 0001:0002AD40  1953 0001:0002AD5A  1954 0001:0002AD72
  1948 0001:0002AD75  1958 0001:0002AD7D  1960 0001:0002ADAB  1961 0001:0002ADEB
  1963 0001:0002ADF5  1964 0001:0002AE1F  1965 0001:0002AE5E  1967 0001:0002AE67
  1968 0001:0002AE89  1970 0001:0002AE93  1973 0001:0002AEAB  1974 0001:0002AEEB
  1977 0001:0002AEF5  1979 0001:0002AF08  1981 0001:0002AF40  1982 0001:0002AF55
  1987 0001:0002AF88  1990 0001:0002AF9F  1991 0001:0002AFF0  1995 0001:0002AFFF
  1996 0001:0002B022  1997 0001:0002B034  1998 0001:0002B04A  1999 0001:0002B060
  2002 0001:0002B076  2006 0001:0002B0AC  2008 0001:0002B0BF  2009 0001:0002B0CA
  2011 0001:0002B0DA  2012 0001:0002B10E  2013 0001:0002B142  2014 0001:0002B176
  2015 0001:0002B1AA  2016 0001:0002B1DE  2018 0001:0002B212  2027 0001:0002B242
  2031 0001:0002B24F  2036 0001:0002B27D  2037 0001:0002B2B0  2038 0001:0002B2BF
  2040 0001:0002B2CE  2046 0001:0002B2E0  2052 0001:0002B32E  2053 0001:0002B33B
  2054 0001:0002B348  2055 0001:0002B37B  2056 0001:0002B38A  2060 0001:0002B399
  2062 0001:0002B3B8  2064 0001:0002B3C9  2068 0001:0002B3D0  2072 0001:0002B3E4
  2074 0001:0002B407  2075 0001:0002B42B  2076 0001:0002B43B  2078 0001:0002B448
  2079 0001:0002B468  2080 0001:0002B470  2082 0001:0002B47C  2084 0001:0002B486
  2085 0001:0002B494  2087 0001:0002B4A2  2088 0001:0002B4AB  2090 0001:0002B4B7
  2092 0001:0002B4C1  2093 0001:0002B4D1  2095 0001:0002B4E1  2096 0001:0002B4EE
  2100 0001:0002B4F8  2102 0001:0002B51B  2103 0001:0002B53F  2104 0001:0002B557
  2105 0001:0002B56F  2106 0001:0002B57B  2108 0001:0002B587  2109 0001:0002B59A
  2110 0001:0002B5AD  2111 0001:0002B5CE  2116 0001:0002B5F4  2118 0001:0002B617
  2119 0001:0002B62B  2123 0001:0002B632  2125 0001:0002B63F  2126 0001:0002B648
  2127 0001:0002B657  2129 0001:0002B660  2131 0001:0002B669  2132 0001:0002B67F
  2135 0001:0002B690  2137 0001:0002B69F  2138 0001:0002B6B1  2140 0001:0002B6C0
  2143 0001:0002B6CF  2145 0001:0002B6EA  2146 0001:0002B70C  2147 0001:0002B714
  2150 0001:0002B71F  2153 0001:0002B746  2154 0001:0002B773  2155 0001:0002B7B8
  2156 0001:0002B7C9  2158 0001:0002B7D2  2159 0001:0002B7E2  2161 0001:0002B7FE
  2162 0001:0002B81A  2163 0001:0002B82A  2164 0001:0002B83A  2159 0001:0002B83D
  2166 0001:0002B845  2168 0001:0002B867  2170 0001:0002B874  2172 0001:0002B882
  2175 0001:0002B8A0  2180 0001:0002B926  2181 0001:0002B931  2185 0001:0002B98A
  2187 0001:0002B9B4  2190 0001:0002B9DC  2192 0001:0002BA05  2194 0001:0002BA0C
  2195 0001:0002BA17  2196 0001:0002BA5A  2198 0001:0002BA89  2199 0001:0002BA99
  2200 0001:0002BAA1  2205 0001:0002BAAC  2206 0001:0002BABE  2207 0001:0002BACC
  2208 0001:0002BAE8  2207 0001:0002BB06  2209 0001:0002BB0E  2211 0001:0002BB1E
  2212 0001:0002BB23  2214 0001:0002BB43  2215 0001:0002BB61  2216 0001:0002BBC2
  2217 0001:0002BBD7  2218 0001:0002BBFE  2219 0001:0002BC0F  2212 0001:0002BC12
  2221 0001:0002BC2B  2224 0001:0002BC3E  2225 0001:0002BC4C  2226 0001:0002BC56
  2232 0001:0002BC63  2234 0001:0002BC70  2236 0001:0002BC7B  2243 0001:0002BCC8
  2245 0001:0002BD0A  2246 0001:0002BD14  2250 0001:0002BD1B  2252 0001:0002BD24
  2253 0001:0002BD33  2254 0001:0002BD4A  2259 0001:0002BD5D  2260 0001:0002BD68
  2265 0001:0002BD73  2267 0001:0002BD8F  2269 0001:0002BDA6  2270 0001:0002BDBD
  2272 0001:0002BDD4  2274 0001:0002BDF6  2265 0001:0002BDF9  2276 0001:0002BE01
  2277 0001:0002BE0F  2280 0001:0002BE19  2282 0001:0002BE26  2283 0001:0002BE31
  2285 0001:0002BE37  2287 0001:0002BE84  2291 0001:0002BF51  2292 0001:0002BF5E
  2295 0001:0002BF6F  2297 0001:0002BF79  2299 0001:0002BF89  2301 0001:0002BF95
  2309 0001:0002BFFD  2311 0001:0002C02C  2314 0001:0002C065  2315 0001:0002C091
  2316 0001:0002C0BC  2317 0001:0002C0E7  2319 0001:0002C108  2309 0001:0002C10C
  2323 0001:0002C119  2324 0001:0002C125  2326 0001:0002C132  2328 0001:0002C152
  2329 0001:0002C159  2334 0001:0002C16D  2335 0001:0002C191  2336 0001:0002C19B
  2337 0001:0002C1A3  2338 0001:0002C1D2  2339 0001:0002C1F6  2340 0001:0002C200
  2341 0001:0002C209  2345 0001:0002C242  2346 0001:0002C267  2348 0001:0002C28C
  2349 0001:0002C2AF  2354 0001:0002C2C2  2355 0001:0002C2F2  2358 0001:0002C30F
  2359 0001:0002C333  2360 0001:0002C343  2361 0001:0002C367  2362 0001:0002C377
  2363 0001:0002C39B  2365 0001:0002C3AB  2366 0001:0002C3CF  2369 0001:0002C3D9
  2371 0001:0002C411  2372 0001:0002C433  2378 0001:0002C464  2379 0001:0002C46E
  2381 0001:0002C492  2385 0001:0002C4B8  2387 0001:0002C4C5  2390 0001:0002C4D4
  2395 0001:0002C4E1  2397 0001:0002C4F2  2399 0001:0002C525  2400 0001:0002C532
  2403 0001:0002C53E  2406 0001:0002C548  2407 0001:0002C551  2408 0001:0002C56D
  2407 0001:0002C585  2410 0001:0002C58D  2413 0001:0002C5AA  2416 0001:0002C5D3
  2417 0001:0002C5E0  2418 0001:0002C604  2419 0001:0002C60B  2420 0001:0002C625
  2422 0001:0002C636  2423 0001:0002C643  2425 0001:0002C652  2428 0001:0002C67B
  2429 0001:0002C688  2430 0001:0002C6AC  2431 0001:0002C6B3  2432 0001:0002C6CD
  2434 0001:0002C6DE  2435 0001:0002C6EB  2438 0001:0002C6F5  2439 0001:0002C719
  2442 0001:0002C732  2444 0001:0002C73B  2445 0001:0002C744  2446 0001:0002C775
  2447 0001:0002C782  2449 0001:0002C791  2450 0001:0002C79E  2454 0001:0002C7D4
  2455 0001:0002C7FB  2457 0001:0002C80C  2459 0001:0002C81C  2460 0001:0002C84D
  2462 0001:0002C86C  2463 0001:0002C886  2465 0001:0002C8A0  2466 0001:0002C8B8
  2469 0001:0002C8C9  2474 0001:0002C8ED  2476 0001:0002C90C  2478 0001:0002C926
  2479 0001:0002C93E  2481 0001:0002C951  2482 0001:0002C97C  2483 0001:0002C997
  2484 0001:0002C9CF  2494 0001:0002C9EE  2496 0001:0002CA2B  2503 0001:0002CA61
  2505 0001:0002CA85  2506 0001:0002CA9D  2507 0001:0002CAB5  2509 0001:0002CAC9
  2511 0001:0002CAD9  2512 0001:0002CAEC  2513 0001:0002CAFF  2514 0001:0002CB2C
  2519 0001:0002CB57  2520 0001:0002CB7B  2521 0001:0002CB85  2522 0001:0002CB8E
  2523 0001:0002CBAF  2528 0001:0002CBD9  2529 0001:0002CBFD  2530 0001:0002CC07
  2532 0001:0002CC10  2533 0001:0002CC34  2534 0001:0002CC3E  2536 0001:0002CC64
  2537 0001:0002CC89  2539 0001:0002CCB2  2540 0001:0002CCD5  2545 0001:0002CCEB
  2547 0001:0002CCF8  2548 0001:0002CD1C  2549 0001:0002CD26  2550 0001:0002CD4A
  2551 0001:0002CD54  2552 0001:0002CD78  2553 0001:0002CD82  2558 0001:0002CDB2
  2560 0001:0002CDD6  2562 0001:0002CDF1  2563 0001:0002CE12  2566 0001:0002CE1C
  2567 0001:0002CE4A  2571 0001:0002CE5C  2572 0001:0002CE67  2573 0001:0002CE71
  2574 0001:0002CE7E  2575 0001:0002CE95  2579 0001:0002CEA7  2581 0001:0002CECE
  2582 0001:0002CED9  2583 0001:0002CEE3  2587 0001:0002CEF5  2590 0001:0002CF60
  2595 0001:0002CF6F  2596 0001:0002CF94  2597 0001:0002CF9D  2598 0001:0002CFA4
  2599 0001:0002CFC8  2600 0001:0002CFD0  2601 0001:0002CFE0  2602 0001:0002CFEE
  2603 0001:0002D000  2604 0001:0002D00B  2605 0001:0002D021  2607 0001:0002D02D
  2608 0001:0002D051  2609 0001:0002D059  2610 0001:0002D069  2611 0001:0002D077
  2612 0001:0002D089  2613 0001:0002D094  2614 0001:0002D0AA  2616 0001:0002D0B6
  2617 0001:0002D0C8  2618 0001:0002D0EC  2619 0001:0002D0F4  2620 0001:0002D118
  2621 0001:0002D120  2622 0001:0002D144  2623 0001:0002D14C  2624 0001:0002D170
  2625 0001:0002D178  2626 0001:0002D17E  2628 0001:0002D1AB  2629 0001:0002D1E9
  2630 0001:0002D227  2631 0001:0002D25C  2632 0001:0002D291  2633 0001:0002D2B6
  2634 0001:0002D2DB  2635 0001:0002D300  2637 0001:0002D325  2638 0001:0002D332
  2644 0001:0002D37A  2646 0001:0002D384  2647 0001:0002D3A8  2648 0001:0002D3B0
  2649 0001:0002D3CF  2650 0001:0002D3E5  2652 0001:0002D3FD  2653 0001:0002D413
  2655 0001:0002D429  2657 0001:0002D43C  2658 0001:0002D443  2662 0001:0002D457
  2663 0001:0002D47B  2664 0001:0002D48B  2667 0001:0002D4B0  2670 0001:0002D4DF
  2673 0001:0002D511  2678 0001:0002D52A  2682 0001:0002D53C  2683 0001:0002D55C
  2684 0001:0002D576  2685 0001:0002D5A6  2687 0001:0002D5F3  2691 0001:0002D61E
  2692 0001:0002D63E  2695 0001:0002D653  2696 0001:0002D660  2700 0001:0002D66F
  2702 0001:0002D6A9  2703 0001:0002D6CD  2705 0001:0002D6D9  2706 0001:0002D702
  2710 0001:0002D72D  2711 0001:0002D753  2714 0001:0002D779  2715 0001:0002D786
  2733 0001:0002D790  2734 0001:0002D79C  2737 0001:0002D7C3  2739 0001:0002D7D3
  2741 0001:0002D7F2  2742 0001:0002D816  2744 0001:0002D822  2746 0001:0002D848
  2747 0001:0002D86C  2748 0001:0002D878  2752 0001:0002D882  2754 0001:0002D8A2
  2756 0001:0002D8DE  2757 0001:0002D8E8  2758 0001:0002D926  2759 0001:0002D935
  2760 0001:0002D954  2764 0001:0002D98A  2765 0001:0002D998  2767 0001:0002D9A2
  2769 0001:0002D9AF  2772 0001:0002D9F9  2773 0001:0002DA04  2774 0001:0002DA19
  2775 0001:0002DA45  2776 0001:0002DA4B  2778 0001:0002DA5A  2779 0001:0002DA6C
  2781 0001:0002DA80  2783 0001:0002DA98  2784 0001:0002DAC1  2790 0001:0002DAEA
  2791 0001:0002DB07  2792 0001:0002DB24  2794 0001:0002DB57  2796 0001:0002DB66
  2797 0001:0002DB73  2798 0001:0002DB7B  2799 0001:0002DB8E  2800 0001:0002DB97
  2801 0001:0002DB9D  2802 0001:0002DBAB  2803 0001:0002DBD5  2804 0001:0002DBFC
  2805 0001:0002DC26  2806 0001:0002DC31  2807 0001:0002DC63  2808 0001:0002DC93
  2813 0001:0002DCA0  2816 0001:0002DD0A  2817 0001:0002DD28  2818 0001:0002DD46
  2819 0001:0002DD50  2820 0001:0002DD5D  2821 0001:0002DD72  2822 0001:0002DD9E
  2823 0001:0002DDA4  2824 0001:0002DDC2  2828 0001:0002DDE0  2831 0001:0002DDEC
  2832 0001:0002DDFB  2833 0001:0002DE0B  2834 0001:0002DE15  2835 0001:0002DE38
  2838 0001:0002DEAD

Line numbers for idplay(WrapperFunctions.inc) segment .text

     4 0001:0002E31C     5 0001:0002E325     8 0001:0002E333    10 0001:0002E366
    12 0001:0002E369    15 0001:0002E38C    19 0001:0002E398    20 0001:0002E3A1
    23 0001:0002E3AF    25 0001:0002E3EA    27 0001:0002E3ED    30 0001:0002E410
    34 0001:0002E41C    35 0001:0002E425    38 0001:0002E433    40 0001:0002E46A
    42 0001:0002E46D    45 0001:0002E490    48 0001:0002E49C    49 0001:0002E4A5
    52 0001:0002E4B3    54 0001:0002E4E6    56 0001:0002E4E9    59 0001:0002E50C
    62 0001:0002E518    63 0001:0002E521    66 0001:0002E52F    68 0001:0002E55E
    70 0001:0002E561    73 0001:0002E584    76 0001:0002E590    77 0001:0002E599
    80 0001:0002E5A7    82 0001:0002E5D6    84 0001:0002E5D9    87 0001:0002E5FC
    91 0001:0002E608    92 0001:0002E611    95 0001:0002E61F    97 0001:0002E65A
    99 0001:0002E65D   102 0001:0002E680   106 0001:0002E68C   107 0001:0002E695
   110 0001:0002E6A3   112 0001:0002E6DE   114 0001:0002E6E1   117 0001:0002E704
   121 0001:0002E710   122 0001:0002E719   125 0001:0002E727   127 0001:0002E762
   129 0001:0002E765   132 0001:0002E788   137 0001:0002E794   138 0001:0002E79D
   141 0001:0002E7AB   143 0001:0002E7EA   145 0001:0002E7ED   148 0001:0002E810
   151 0001:0002E81C   152 0001:0002E825   155 0001:0002E833   157 0001:0002E862
   159 0001:0002E865   162 0001:0002E888   165 0001:0002E894   166 0001:0002E89D
   169 0001:0002E8AB   171 0001:0002E8DE   173 0001:0002E8E1   176 0001:0002E904
   179 0001:0002E910   180 0001:0002E919   183 0001:0002E927   185 0001:0002E95A
   187 0001:0002E95D   190 0001:0002E980   195 0001:0002E98C   196 0001:0002E995
   199 0001:0002E9A3   202 0001:0002E9E2   204 0001:0002E9E5   207 0001:0002EA08
   210 0001:0002EA14   211 0001:0002EA1D   214 0001:0002EA2B   216 0001:0002EA5A
   218 0001:0002EA5D   221 0001:0002EA80   225 0001:0002EA8C   226 0001:0002EA95
   229 0001:0002EAA3   231 0001:0002EAD2   233 0001:0002EAD5   237 0001:0002EAF8
   241 0001:0002EB04   242 0001:0002EB0D   245 0001:0002EB1B   247 0001:0002EB5A
   249 0001:0002EB5D   253 0001:0002EB80   256 0001:0002EB8C   257 0001:0002EB95
   260 0001:0002EBA3   262 0001:0002EBCF   264 0001:0002EBD2   268 0001:0002EBF5
   272 0001:0002EC00   273 0001:0002EC09   276 0001:0002EC17   278 0001:0002EC4E
   280 0001:0002EC51   284 0001:0002EC74   288 0001:0002EC80   289 0001:0002EC89
   292 0001:0002EC97   294 0001:0002ECD6   296 0001:0002ECD9   300 0001:0002ECFC
   305 0001:0002ED08   306 0001:0002ED11   309 0001:0002ED1F   312 0001:0002ED5E
   314 0001:0002ED61   318 0001:0002ED84   322 0001:0002ED90   323 0001:0002ED99
   326 0001:0002EDA7   328 0001:0002EDE2   330 0001:0002EDE5   334 0001:0002EE08
   337 0001:0002EE14   338 0001:0002EE1D   341 0001:0002EE2B   343 0001:0002EE5E
   345 0001:0002EE61   349 0001:0002EE84   353 0001:0002EE90   354 0001:0002EE99
   357 0001:0002EEA7   359 0001:0002EEE2   361 0001:0002EEE5   365 0001:0002EF08
   369 0001:0002EF14   370 0001:0002EF1D   373 0001:0002EF2B   375 0001:0002EF62
   377 0001:0002EF65   381 0001:0002EF88   385 0001:0002EF94   386 0001:0002EF9D
   389 0001:0002EFAB   391 0001:0002EFE2   393 0001:0002EFE5   397 0001:0002F008
   401 0001:0002F014   402 0001:0002F01D   405 0001:0002F02B   407 0001:0002F066
   409 0001:0002F069   413 0001:0002F08C   417 0001:0002F098   418 0001:0002F0A1
   421 0001:0002F0AF   423 0001:0002F0EA   425 0001:0002F0ED   429 0001:0002F110
   433 0001:0002F11C   434 0001:0002F125   437 0001:0002F133   439 0001:0002F16A
   441 0001:0002F16D   445 0001:0002F190   449 0001:0002F19C   450 0001:0002F1A5
   453 0001:0002F1B3   455 0001:0002F1EE   457 0001:0002F1F1   461 0001:0002F214
   465 0001:0002F220   466 0001:0002F229   469 0001:0002F237   471 0001:0002F26E
   473 0001:0002F271   477 0001:0002F294   480 0001:0002F2A0   481 0001:0002F2A9
   484 0001:0002F2B7   486 0001:0002F2ED   488 0001:0002F2F0   492 0001:0002F313
   497 0001:0002F31C   498 0001:0002F325   501 0001:0002F333   503 0001:0002F379
   505 0001:0002F37C   509 0001:0002F39F   513 0001:0002F3A8   516 0001:0002F3B1
   517 0001:0002F3BF   519 0001:0002F3F5   521 0001:0002F3F8   525 0001:0002F41B
   530 0001:0002F424   531 0001:0002F42D   534 0001:0002F43B   536 0001:0002F47D
   538 0001:0002F480   542 0001:0002F4A3   546 0001:0002F4AC   547 0001:0002F4B5
   550 0001:0002F4C3   552 0001:0002F501   554 0001:0002F504   558 0001:0002F527
   563 0001:0002F530   564 0001:0002F539   567 0001:0002F547   569 0001:0002F585
   571 0001:0002F588   575 0001:0002F5AB   579 0001:0002F5B4   582 0001:0002F5BD
   583 0001:0002F5CB   585 0001:0002F609   587 0001:0002F60C   591 0001:0002F62F
   595 0001:0002F638   596 0001:0002F641   599 0001:0002F64F   601 0001:0002F689
   603 0001:0002F68C   607 0001:0002F6AF   610 0001:0002F6B8   611 0001:0002F6C1
   614 0001:0002F6CF   616 0001:0002F705   618 0001:0002F708   622 0001:0002F72B
   625 0001:0002F734   626 0001:0002F73D   629 0001:0002F74B   631 0001:0002F781
   633 0001:0002F784   637 0001:0002F7A7   640 0001:0002F7B0   641 0001:0002F7B9
   644 0001:0002F7C7   646 0001:0002F7FD   648 0001:0002F800   652 0001:0002F823
   656 0001:0002F82C   657 0001:0002F835   660 0001:0002F843   662 0001:0002F881
   664 0001:0002F884   668 0001:0002F8A7   671 0001:0002F8B0   672 0001:0002F8B9
   675 0001:0002F8C7   677 0001:0002F8FD   679 0001:0002F900   683 0001:0002F923
   693 0001:0002F92C   694 0001:0002F948   695 0001:0002F956   696 0001:0002F97D
   697 0001:0002F991   698 0001:0002F9AB   699 0001:0002F9DB   700 0001:0002FA0B
   702 0001:0002FA23   703 0001:0002FA3B   704 0001:0002FA53   706 0001:0002FA78
   708 0001:0002FA7B   712 0001:0002FAC0   715 0001:0002FBE0   716 0001:0002FBFF
   717 0001:0002FC0D   718 0001:0002FC20   719 0001:0002FC5B   721 0001:0002FC80
   723 0001:0002FC83   728 0001:0002FCC8   732 0001:0002FD04   733 0001:0002FD0D
   734 0001:0002FD1B   735 0001:0002FD3A   736 0001:0002FD4E   738 0001:0002FD73
   740 0001:0002FD76   753 0001:0002FD99   758 0001:0002FDC4   759 0001:0002FDCD
   760 0001:0002FDDB   762 0001:0002FE19   764 0001:0002FE1C   781 0001:0002FE3F
   785 0001:0002FE48   786 0001:0002FE51   787 0001:0002FE5F   788 0001:0002FE7A
   789 0001:0002FE8E   791 0001:0002FEB3   793 0001:0002FEB6   797 0001:0002FED9
   801 0001:0002FF0C   802 0001:0002FF15   803 0001:0002FF23   807 0001:0002FF55
   809 0001:0002FF58   814 0001:0002FF7B   818 0001:0002FF84   819 0001:0002FF8D
   820 0001:0002FF9B   822 0001:0002FFCD   824 0001:0002FFD0   828 0001:0002FFF3
   833 0001:0002FFFC   834 0001:00030005   835 0001:00030013   843 0001:00030050
   845 0001:00030053   849 0001:00030076   853 0001:00030080   854 0001:00030089
   864 0001:00030097   868 0001:000300CC   870 0001:000300CF   874 0001:000300F2

Line numbers for idplay(idplay.pas) segment .text

  2859 0001:000300FC  2860 0001:00030124  2861 0001:00030132  2862 0001:0003013C
  2863 0001:0003014A  2864 0001:00030165  2866 0001:00030192  2867 0001:00030198
  2868 0001:000301BA  2870 0001:000301C8  2871 0001:000301EF  2872 0001:000301F9
  2873 0001:00030203  2878 0001:00030212  2879 0001:00030221  2880 0001:0003022F
  2881 0001:00030248  2880 0001:00030263  2882 0001:00030268  2883 0001:00030275
  2885 0001:0003028E  2886 0001:000302A6  2887 0001:000302C7  2883 0001:000302CA
  2889 0001:000302DC  2893 0001:000302EC  2894 0001:00030331  2895 0001:00030338
  2897 0001:00030355  2899 0001:0003036E  2900 0001:0003037A  2901 0001:00030389
  2902 0001:000303AC  2901 0001:000303C4  2905 0001:000303C9  2906 0001:000303CE
  2907 0001:000303F1  2909 0001:00030447  2906 0001:00030455  2910 0001:0003045A
  2913 0001:0003046A  2914 0001:00030471  2915 0001:00030487  2917 0001:0003048D
  2918 0001:000304A7  2919 0001:000304BF  2922 0001:000304F9  2925 0001:00030509
  2927 0001:0003052A  2928 0001:00030538  2929 0001:0003053E  2930 0001:00030545
  2931 0001:00030556  2930 0001:000305B3  2932 0001:000305B8  2935 0001:0003060D
  2938 0001:0003063B  2940 0001:0003063E  2943 0001:00030691  2959 0001:000306FC
  2960 0001:0003071C  2962 0001:00030728  2963 0001:0003074B  2965 0001:00030750
  2966 0001:0003075A  2977 0001:00030768  2978 0001:0003076D  2979 0001:0003077B
  2980 0001:00030785  2981 0001:0003078F  2982 0001:00030799  2983 0001:000307B0
  2984 0001:000307B6  2985 0001:000307D7  2986 0001:000307E3  2987 0001:000307E7
  2989 0001:000307F7  2990 0001:00030801  2992 0001:00030811  2993 0001:00030832
  2995 0001:00030886  2998 0001:000308D7  3000 0001:000308DE  3001 0001:000308FF
  3003 0001:00030924  3005 0001:00030965  3007 0001:00030968  3008 0001:00030970
  3009 0001:0003097E  3010 0001:00030986  3011 0001:000309B7  3012 0001:000309C1
  3013 0001:000309C6  3014 0001:000309D1  3015 0001:000309DC  3017 0001:000309E2
  3019 0001:00030A25  3021 0001:00030A35  3022 0001:00030A47  3023 0001:00030A57
  3024 0001:00030A63  3027 0001:00030A73  3028 0001:00030A7B  3031 0001:00030A8D
  3032 0001:00030A97  3033 0001:00030AA0  3034 0001:00030AAA  3035 0001:00030AB3
  3043 0001:00030AD7  3045 0001:00030B17  3060 0001:00030B58  3061 0001:00030B79
  3063 0001:00030B85  3064 0001:00030BA8  3066 0001:00030BAD  3067 0001:00030BB7
  3078 0001:00030BC5  3079 0001:00030BCA  3080 0001:00030BDB  3085 0001:00030BE9
  3086 0001:00030BF8  3087 0001:00030C1A  3089 0001:00030C2A  3090 0001:00030C47
  3092 0001:00030C72  3093 0001:00030C86  3095 0001:00030C9C  3096 0001:00030CA9
  3097 0001:00030CCD  3098 0001:00030D0A  3099 0001:00030D14  3100 0001:00030D38
  3101 0001:00030D50  3102 0001:00030D7E  3103 0001:00030DBF  3106 0001:00030E14
  3107 0001:00030E3A  3109 0001:00030E4B  3111 0001:00030E78  3112 0001:00030E8C
  3113 0001:00030E99  3114 0001:00030EBD  3115 0001:00030ED3  3116 0001:00030EE3
  3118 0001:00030EF4  3119 0001:00030F05  3122 0001:00030F1D  3125 0001:00030F39
  3089 0001:00030F3C  3126 0001:00030F45  3128 0001:00030F5D  3129 0001:00030F67
  3133 0001:00030F74  3135 0001:00030F87  3137 0001:00030F98  3140 0001:00030FB1
  3141 0001:00030FD1  3142 0001:00030FD8  3145 0001:00030FEA  3147 0001:00030FFB
  3148 0001:0003100D  3149 0001:0003101B  3151 0001:00031033  3153 0001:00031043
  3154 0001:0003105B  3155 0001:00031071  3156 0001:00031079  3159 0001:000310B0
  3160 0001:000310B5  3163 0001:000310C7  3165 0001:000310EA  3167 0001:000310F4
  3169 0001:000310FC  3171 0001:00031107  3172 0001:00031122  3173 0001:0003113B
  3177 0001:00031153  3178 0001:0003116C  3179 0001:00031176  3180 0001:00031184
  3181 0001:0003118C  3183 0001:000311BA  3186 0001:000311CA  3187 0001:000311EB
  3189 0001:000311FB  3193 0001:00031205  3198 0001:00031216  3199 0001:00031236
  3200 0001:0003123D  3201 0001:0003124F  3202 0001:0003125D  3204 0001:00031286
  3206 0001:00031296  3208 0001:000312A8  3209 0001:000312BE  3210 0001:000312C6
  3214 0001:000312FF  3215 0001:00031308  3217 0001:00031353  3219 0001:00031356
  3220 0001:0003135E  3221 0001:0003136C  3222 0001:00031374  3223 0001:000313A5
  3224 0001:000313AF  3225 0001:000313B4  3226 0001:000313BF  3227 0001:000313CA
  3229 0001:000313D0  3231 0001:00031413  3233 0001:00031423  3234 0001:00031435
  3235 0001:00031445  3236 0001:00031451  3239 0001:00031461  3240 0001:00031469
  3243 0001:0003147B  3244 0001:00031485  3245 0001:0003148E  3246 0001:00031498
  3247 0001:000314A1  3254 0001:000314C5  3256 0001:0003150D  3261 0001:00031674
  3262 0001:0003167D  3263 0001:000316A1  3266 0001:000316A8  3267 0001:000316B1
  3268 0001:000316D5

Line numbers for idplay(Misc_Commands.inc) segment .text

     2 0001:000316DC     3 0001:000316EB     4 0001:000316EF     6 0001:000316FB
     8 0001:00031711    10 0001:0003171D    12 0001:00031731    14 0001:0003173D
    15 0001:0003174A    19 0001:00031761    20 0001:0003176E    23 0001:00031786
    26 0001:000317E8    27 0001:0003180B    28 0001:00031815    29 0001:0003184C
    30 0001:00031870    33 0001:000318A4    34 0001:000318C7    35 0001:000318D1
    36 0001:00031908    37 0001:0003192C    40 0001:00031960    41 0001:00031983
    42 0001:0003198C    43 0001:0003199B    44 0001:000319D2    45 0001:000319F6
    48 0001:00031A2C    49 0001:00031A4F    50 0001:00031A58    51 0001:00031A65
    52 0001:00031A9C    53 0001:00031AC0    56 0001:00031AF4    57 0001:00031B17
    58 0001:00031B20    59 0001:00031B2F    60 0001:00031B66    61 0001:00031B8A
    78 0001:00031BC0    79 0001:00031BE9    80 0001:00031BED    82 0001:00031C22
    83 0001:00031C39    85 0001:00031C88    86 0001:00031CE4    94 0001:00031D38
    95 0001:00031D64    96 0001:00031D68    98 0001:00031DA8    99 0001:00031DB0
   100 0001:00031DBF   101 0001:00031DCD   102 0001:00031DE6   101 0001:00031E01
   103 0001:00031E06   104 0001:00031E13   106 0001:00031E30   107 0001:00031E48
   108 0001:00031E87   109 0001:00031E97   110 0001:00031EA4   104 0001:00031EA7
   112 0001:00031EB9   114 0001:00031EC9   115 0001:00031F30   167 0001:00031F7C
   168 0001:00031FA5   169 0001:00031FA9   171 0001:00031FDA   178 0001:00032059
   185 0001:000320AC   186 0001:000320D5   187 0001:000320D9   189 0001:0003210E
   191 0001:00032118   192 0001:00032123   193 0001:00032139   196 0001:0003218C
   198 0001:000321B6   199 0001:000321F0   203 0001:00032270   204 0001:00032296
   205 0001:0003229A   207 0001:000322CB   208 0001:0003233E   213 0001:0003237C
   214 0001:000323A2   215 0001:000323A6   217 0001:000323B2   218 0001:000323BC
   219 0001:000323CC   223 0001:000323FB   224 0001:00032405   225 0001:00032411
   227 0001:0003243B   228 0001:00032440   229 0001:00032459   232 0001:000324AC
   228 0001:000324BA   234 0001:000324BF   236 0001:000324C5   237 0001:000324CF
   240 0001:00032507   288 0001:00032550   289 0001:00032573   290 0001:00032577
   291 0001:00032581   292 0001:00032586   293 0001:0003259F   295 0001:000325F5
   292 0001:00032603   296 0001:00032608   297 0001:00032616   298 0001:00032645
   301 0001:00032652   302 0001:00032682   305 0001:000326D0   306 0001:000326DF
   307 0001:000326E3   309 0001:000326EF   310 0001:000326FE   312 0001:0003270B
   317 0001:0003273C   318 0001:0003275F   319 0001:00032763   321 0001:00032788
   322 0001:00032792   323 0001:000327CA   324 0001:000327D6   326 0001:00032805
   331 0001:00032870   332 0001:00032893   333 0001:00032897   335 0001:000328BC
   336 0001:000328C6   338 0001:0003291E   367 0001:00032950   368 0001:00032982
   369 0001:00032986   371 0001:00032996   373 0001:0003299F   374 0001:000329D6
   377 0001:000329E5   378 0001:00032A0B   377 0001:00032A6C   380 0001:00032A76
   382 0001:00032A86   383 0001:00032AB8   384 0001:00032AE5   385 0001:00032AF2
   386 0001:00032B10   388 0001:00032B3E   390 0001:00032B4C   391 0001:00032B59
   394 0001:00032BA6   396 0001:00032BB6   386 0001:00032BB9   398 0001:00032BBE
   400 0001:00032C07   407 0001:00032CF8   408 0001:00032D21   409 0001:00032D25
   411 0001:00032D35   412 0001:00032D49   414 0001:00032D66   419 0001:00032DC3
   420 0001:00032DCD   421 0001:00032DE2   422 0001:00032E00   423 0001:00032E11
   424 0001:00032E29   426 0001:00032E43   427 0001:00032E5B   430 0001:00032EA3
   412 0001:00032EA6   431 0001:00032EB4   433 0001:00032EC4   435 0001:00032ED0
   436 0001:00032EDA   438 0001:00032F07   439 0001:00032F1A   440 0001:00032F25
   441 0001:00032F31   442 0001:00032F3D   443 0001:00032F49   445 0001:00032F55
   446 0001:00032F5F   450 0001:00032F6F   452 0001:00032F7C   455 0001:00032F96
   457 0001:00032FBF   458 0001:00032FCC   459 0001:00033019   461 0001:00033029
   452 0001:0003302C   465 0001:00033062   475 0001:000330D4   476 0001:000330F7
   477 0001:000330FB   479 0001:0003312C   480 0001:00033135   481 0001:0003318C
   486 0001:000331BC   487 0001:000331CB   488 0001:000331CF   489 0001:000331D9
   490 0001:000331E0   489 0001:000331F8   491 0001:000331FE   492 0001:00033210

Line numbers for idplay(server_commands.inc) segment .text

     2 0001:00033234     3 0001:00033243     4 0001:00033247     6 0001:00033250
     7 0001:0003325A    11 0001:0003329F    15 0001:000332B0    16 0001:000332BA
    20 0001:000332F7    22 0001:00033309    25 0001:00033370    26 0001:00033393
    27 0001:00033397    28 0001:000333A1    29 0001:000333EB    32 0001:00033420
    33 0001:0003342F    34 0001:00033433    36 0001:0003343C    37 0001:00033446
    38 0001:00033452    42 0001:00033463    43 0001:0003346D    44 0001:00033479
    46 0001:0003348B    53 0001:000334D0    54 0001:0003350D    55 0001:00033511
    56 0001:0003351B    58 0001:0003353C    59 0001:0003354A    61 0001:00033587
    63 0001:0003358A    64 0001:0003359A    67 0001:000335A9    68 0001:000335B7
    70 0001:000335F7    72 0001:000335FA    73 0001:0003360A    77 0001:00033619
    78 0001:0003361F    79 0001:00033626    80 0001:0003362F    82 0001:00033636
    83 0001:0003363C    84 0001:00033643    85 0001:0003364C    87 0001:00033653
    88 0001:0003365B    89 0001:00033661    90 0001:00033679    92 0001:00033691
    95 0001:000336A7    96 0001:000336B1    97 0001:000336C2   101 0001:000336D3
   102 0001:000336E2   103 0001:000336F2   104 0001:00033720   105 0001:00033730
   107 0001:0003375C   108 0001:00033768   110 0001:000337EB   113 0001:0003388C
   114 0001:0003389B   115 0001:0003389F   116 0001:000338AE   117 0001:000338BB
   122 0001:000338E8   123 0001:0003390E   124 0001:00033912   125 0001:0003391E
   128 0001:0003392A   129 0001:00033937   130 0001:00033943   132 0001:00033950
   134 0001:00033994   137 0001:0003399C   138 0001:000339BF   139 0001:000339C3
   141 0001:000339F3   142 0001:000339FD   145 0001:00033A0E   147 0001:00033A3A
   148 0001:00033A44   151 0001:00033A54   154 0001:00033A94

Line numbers for idplay(self_commands.inc) segment .text

     6 0001:00033AFC     7 0001:00033B1E     8 0001:00033B35    10 0001:00033B3B
    11 0001:00033B41    13 0001:00033B54    16 0001:00033B84    17 0001:00033BCE
    22 0001:00033C24    23 0001:00033C56    24 0001:00033C5A    26 0001:00033C6A
    28 0001:00033C86    29 0001:00033C91    31 0001:00033CA3    33 0001:00033CC4
    35 0001:00033CE0    36 0001:00033CEB    38 0001:00033CFD    40 0001:00033D1E
    42 0001:00033D3E    43 0001:00033D4B    45 0001:00033D72    46 0001:00033D8E
    47 0001:00033DAB    48 0001:00033DB8    43 0001:00033DBB    49 0001:00033DC0
    52 0001:00033DCD    55 0001:00033DDB    56 0001:00033E14    59 0001:00033EEC
    60 0001:00033F15    61 0001:00033F19    62 0001:00033F59    69 0001:00033F88
    72 0001:00033FC4    73 0001:00033FD3    74 0001:00033FD7    75 0001:00033FE9
    95 0001:0003401C    96 0001:0003402B    97 0001:0003402F    99 0001:0003403B
   100 0001:0003404A   102 0001:00034059   106 0001:00034065   107 0001:00034074
   109 0001:00034081   112 0001:00034118   113 0001:0003413B   114 0001:0003413F
   115 0001:00034176   116 0001:000341A0   119 0001:000341D0   120 0001:000341F6
   121 0001:000341FA   122 0001:0003421F   123 0001:0003422E   124 0001:0003423D
   125 0001:00034271   128 0001:0003431C   129 0001:0003432B   130 0001:0003432F
   132 0001:0003433B   133 0001:00034345   136 0001:0003434F   138 0001:00034361
   141 0001:00034384   142 0001:00034393   143 0001:00034397   145 0001:000343A3
   146 0001:000343B2   148 0001:000343B4   150 0001:000343C0   151 0001:000343CA
   155 0001:000343DB   156 0001:000343E5   158 0001:000343F7   161 0001:0003446C
   162 0001:0003447B   163 0001:0003447F   165 0001:0003448B   166 0001:0003449A
   168 0001:0003449C   170 0001:000344A8   171 0001:000344B2   175 0001:000344C3
   176 0001:000344CD   178 0001:000344DF   182 0001:00034544   183 0001:00034553
   184 0001:00034557   185 0001:00034564   186 0001:0003456D   187 0001:00034576
   189 0001:0003458D   190 0001:00034594   192 0001:0003459B   193 0001:000345BB
   194 0001:000345DB   190 0001:000345DE   195 0001:000345E4   196 0001:000345F7
   200 0001:00034606   201 0001:0003460D   203 0001:0003461D   209 0001:0003467C
   210 0001:000346A5   211 0001:000346A9   212 0001:000346B8   214 0001:000346D5
   215 0001:00034706   216 0001:00034711   217 0001:00034721   219 0001:00034787
   212 0001:0003478A   221 0001:000347C0   337 0001:00034828   338 0001:00034854
   339 0001:00034858   341 0001:00034865   342 0001:00034871   344 0001:0003488E
   346 0001:00034899   347 0001:000348C8   348 0001:00034908   349 0001:0003491A
   351 0001:0003493C   353 0001:0003494B   354 0001:0003495B   358 0001:0003498D
   360 0001:0003499A   361 0001:000349A6   363 0001:000349C3   365 0001:000349CE
   366 0001:000349EB   367 0001:00034A2B   369 0001:00034A34   370 0001:00034A50
   373 0001:00034A58   375 0001:00034A61   376 0001:00034A68   377 0001:00034A73
   380 0001:00034AB8   414 0001:00034B4C   415 0001:00034B6F   416 0001:00034B73
   418 0001:00034B88   419 0001:00034B91   421 0001:00034BA2   423 0001:00034BB3
   425 0001:00034BCF   427 0001:00034BD5   428 0001:00034BDC   432 0001:00034BED
   433 0001:00034BF4   437 0001:00034C05   438 0001:00034C32   441 0001:00034D04
   442 0001:00034D13   443 0001:00034D17   445 0001:00034D1E   446 0001:00034D30
   449 0001:00034D50   450 0001:00034D5F   451 0001:00034D63   453 0001:00034D6F
   454 0001:00034D79   458 0001:00034D8A   459 0001:00034D94   461 0001:00034DA6
   464 0001:00034DF4   465 0001:00034E03   466 0001:00034E07   468 0001:00034E10
   469 0001:00034E17   473 0001:00034E28   474 0001:00034E2F   476 0001:00034E41
   482 0001:00034E98   483 0001:00034EC1   484 0001:00034EC5   485 0001:00034ED2
   486 0001:00034EDF   488 0001:00034EF8   489 0001:00034F10   490 0001:00034F2B
   491 0001:00034F51   489 0001:00034F6D   493 0001:00034F9F   498 0001:00034FA8
   499 0001:00034FCE   500 0001:00034FD2   501 0001:00034FDE   503 0001:00034FED
   505 0001:00034FFA   506 0001:00035006   508 0001:00035013   509 0001:00035057
   518 0001:00035074   519 0001:00035083   520 0001:00035087   522 0001:00035090
   523 0001:00035097   527 0001:000350A8   528 0001:000350AF   530 0001:000350C1
   533 0001:00035100   534 0001:00035126   535 0001:0003512A   536 0001:00035134
   537 0001:00035142   538 0001:0003514B   540 0001:0003517A   541 0001:000351CC

Line numbers for idplay(idplay.pas) segment .text

  3279 0001:00035214  3280 0001:00035220  3281 0001:00035228  3305 0001:0003522F
  3308 0001:00035234  3310 0001:00035250  3312 0001:00035263  3314 0001:00035290
  3315 0001:0003529F  3316 0001:000352AE  3317 0001:000352BD  3318 0001:000352CC
  3319 0001:000352DB  3320 0001:00035307  3327 0001:000354C0  3328 0001:000354C9
  3329 0001:000354CE  3330 0001:000354D5  3331 0001:000354F0  3333 0001:00035506
  3334 0001:0003551A  3335 0001:00035520  3330 0001:00035523  3336 0001:00035528
  3337 0001:00035531  3342 0001:00035538  3343 0001:00035544  3344 0001:0003554F
  3345 0001:00035557  3357 0001:0003555C  3358 0001:00035562  3359 0001:00035569
  3361 0001:0003556F  3362 0001:0003557E  3363 0001:00035585  3365 0001:0003559B
  3367 0001:000355A6  3368 0001:000355BB  3369 0001:000355C1  3370 0001:000355CA
  3374 0001:000355D2  3384 0001:000355D8  3385 0001:000355E1  3386 0001:000355EA
  3387 0001:00035604  3388 0001:00035610  3391 0001:00035614  3392 0001:0003561E
  3393 0001:00035641  3398 0001:00035648  3399 0001:00035664  3400 0001:00035672
  3401 0001:0003567C  3402 0001:0003568A  3405 0001:000356C0  3406 0001:000356D2
  3407 0001:000356E9  3409 0001:000356EF  3412 0001:000356F9  3413 0001:00035702
  3416 0001:0003573C  3419 0001:0003576A  3421 0001:0003576D  3424 0001:000357B2
  3429 0001:000357FC  3430 0001:00035805  3431 0001:00035813  3432 0001:0003581D
  3438 0001:0003582B  3439 0001:00035833  3441 0001:0003584F  3444 0001:0003587D
  3446 0001:00035880  3449 0001:000358A3  3454 0001:000358AC  3455 0001:000358D0
  3456 0001:000358DA  3457 0001:000358E8  3458 0001:000358FC  3462 0001:0003590A
  3464 0001:00035913  3465 0001:00035924  3466 0001:00035933  3468 0001:0003593E
  3469 0001:00035950  3470 0001:00035957  3471 0001:00035960  3472 0001:00035969
  3474 0001:0003597B  3475 0001:00035983  3476 0001:00035996  3481 0001:0003599D
  3483 0001:000359A4  3484 0001:000359AE  3486 0001:000359CD  3487 0001:000359EA
  3488 0001:00035A07  3489 0001:00035A21  3491 0001:00035A3B  3493 0001:00035A42
  3494 0001:00035A4C  3495 0001:00035A66  3496 0001:00035A80  3497 0001:00035A9A
  3498 0001:00035AB6  3499 0001:00035AD0  3500 0001:00035B01  3503 0001:00035B32
  3504 0001:00035B50  3506 0001:00035B70  3507 0001:00035B7D  3508 0001:00035B8B
  3510 0001:00035B95  3511 0001:00035BA0  3513 0001:00035BE0  3515 0001:00035BED
  3517 0001:00035C13  3518 0001:00035C16  3520 0001:00035C26  3522 0001:00035C33
  3523 0001:00035C49  3525 0001:00035C56  3526 0001:00035C77  3527 0001:00035C85
  3529 0001:00035CAB  3530 0001:00035CAE  3532 0001:00035CBE  3533 0001:00035CC7
  3537 0001:00035CE0  3538 0001:00035CEF  3540 0001:00035D0A  3541 0001:00035D15
  3542 0001:00035D37  3544 0001:00035D5C  3546 0001:00035D66  3547 0001:00035D77
  3549 0001:00035D89  3550 0001:00035D94  3551 0001:00035DB6  3553 0001:00035DD9
  3554 0001:00035DE3  3555 0001:00035DED  3556 0001:00035DF7  3558 0001:00035DFE
  3559 0001:00035E07  3561 0001:00035E10  3563 0001:00035E1A  3564 0001:00035E24
  3566 0001:00035E2E  3567 0001:00035E35  3568 0001:00035E40  3570 0001:00035E4D
  3571 0001:00035E52  3573 0001:00035E57  3574 0001:00035E5E  3575 0001:00035E65
  3576 0001:00035E70  3578 0001:00035E7D  3579 0001:00035E88  3580 0001:00035E92
  3581 0001:00035EA3  3583 0001:00035EAC  3584 0001:00035EB7  3585 0001:00035EC2
  3587 0001:00035ECA  3589 0001:00035ED7  3592 0001:00035EDE  3593 0001:00035EEC
  3594 0001:00035EFA  3596 0001:00035F05  3598 0001:00035F26  3601 0001:00035F43
  3603 0001:00035F78  3610 0001:00036180  3611 0001:000361A3  3612 0001:000361AD
  3613 0001:000361BB  3615 0001:000361C4  3616 0001:000361D8  3618 0001:000361E2
  3620 0001:000361EB  3621 0001:000361FF  3624 0001:00036209  3625 0001:0003621F
  3626 0001:00036229  3627 0001:00036233  3629 0001:00036241  3630 0001:00036255
  3631 0001:00036263  3633 0001:0003628A  3637 0001:0003629A  3639 0001:000362A3
  3640 0001:000362B7  3642 0001:000362C1  3644 0001:000362CA  3645 0001:000362DE
  3648 0001:000362E8  3650 0001:0003630F  3652 0001:00036330  3653 0001:00036345
  3654 0001:00036353  3655 0001:00036381  3656 0001:0003638E  3657 0001:000363A7
  3656 0001:000363C3  3658 0001:000363C8  3659 0001:000363E6  3660 0001:00036410
  3661 0001:0003643F  3664 0001:0003644C  3666 0001:00036467  3668 0001:00036477
  3671 0001:00036482  3673 0001:0003648C  3674 0001:00036495  3684 0001:000364BF
  3686 0001:000364C2  3690 0001:000364E8  3691 0001:000364EF  3693 0001:00036524
  3696 0001:00036654  3697 0001:00036685  3698 0001:0003668F  3705 0001:000366A1
  3706 0001:000366AF  3709 0001:000366CC  3711 0001:000366DC  3712 0001:000366F6
  3713 0001:00036710  3714 0001:00036725

Line numbers for idplay(AddCommands.inc) segment .text

    17 0001:00036752    21 0001:00036783    28 0001:000367B4    32 0001:000367E5
    35 0001:00036816    38 0001:00036847    41 0001:00036878    44 0001:000368A9
    47 0001:000368DA    50 0001:0003690B    53 0001:0003693C    56 0001:0003696D
    59 0001:0003699E    62 0001:000369D2    65 0001:00036A06    68 0001:00036A37
    71 0001:00036A68    74 0001:00036A99    77 0001:00036ACA    81 0001:00036AFB
    85 0001:00036B2C    88 0001:00036B44    94 0001:00036B75    97 0001:00036BA6
   100 0001:00036BD7   103 0001:00036C08   108 0001:00036C39   111 0001:00036C6D
   114 0001:00036C9E   119 0001:00036CD2   125 0001:00036D03   133 0001:00036D37
   136 0001:00036D68   140 0001:00036D99   144 0001:00036DCA   147 0001:00036DFB
   152 0001:00036E2C   155 0001:00036E5D   158 0001:00036E8E   161 0001:00036EBF
   164 0001:00036EF0   168 0001:00036F24   171 0001:00036F58   174 0001:00036F8C
   177 0001:00036FBD   181 0001:00036FEE   185 0001:0003701F   188 0001:00037050
   191 0001:00037081   198 0001:000370B5   202 0001:000370E6

Line numbers for idplay(idplay.pas) segment .text

  3721 0001:00037117  3722 0001:00037157  3725 0001:000394C4  3726 0001:000394D5
  3727 0001:000394DF  3728 0001:000394EA  3737 0001:000394F2  3738 0001:000394FE
  3739 0001:0003950B  3740 0001:00039516  3741 0001:00039521  3742 0001:0003952E
  3743 0001:0003953B  3744 0001:00039545  3745 0001:0003954A  3746 0001:00039555
  3747 0001:00039571  3749 0001:000395B4  3749 0001:000395BB

Line numbers for PlayerDataU(PlayerDataU.pas) segment .text

   186 0001:00039690   187 0001:0003969C   188 0001:000396AB   189 0001:000396BA
   190 0001:000396C9   192 0001:000396D8   194 0001:000396E5   201 0001:00039720
   202 0001:0003973B   203 0001:00039755   204 0001:00039763   205 0001:0003976C
   206 0001:00039791   210 0001:000397F0   211 0001:000397FC   213 0001:00039808
   214 0001:00039813   213 0001:00039852   215 0001:00039858   217 0001:00039862
   220 0001:00039868   221 0001:00039871   222 0001:0003988B   223 0001:00039899
   226 0001:000398F8   227 0001:00039902   228 0001:0003991C   229 0001:00039932
   238 0001:00039990   239 0001:000399A8   240 0001:000399B2   241 0001:000399C4
   242 0001:000399D6   243 0001:000399E5   244 0001:000399F4   245 0001:00039A03
   246 0001:00039A21   247 0001:00039A2A   248 0001:00039A47   249 0001:00039A50
   251 0001:00039A6D   252 0001:00039A86   253 0001:00039AAC   256 0001:00039B20
   257 0001:00039B31   258 0001:00039B39   259 0001:00039B44   260 0001:00039B4F
   261 0001:00039B5A   262 0001:00039B76   268 0001:00039B7C   269 0001:00039B85
   272 0001:00039B90   273 0001:00039BA6   274 0001:00039BB7   276 0001:00039BBD
   277 0001:00039BCD   279 0001:00039BD5   280 0001:00039BE3   270 0001:00039BF1
   282 0001:00039BFD   285 0001:00039C08   286 0001:00039C1E   287 0001:00039C2F
   289 0001:00039C35   290 0001:00039C45   292 0001:00039C4D   283 0001:00039C5B
   294 0001:00039C67   297 0001:00039C6C   298 0001:00039C7B   299 0001:00039C91
   300 0001:00039CAF   301 0001:00039CBB   308 0001:00039CC0   309 0001:00039CE8
   310 0001:00039CF2   311 0001:00039D00   312 0001:00039D0A   313 0001:00039D16
   314 0001:00039D21   315 0001:00039D27   317 0001:00039D28   319 0001:00039D4A
   320 0001:00039D60   321 0001:00039DBF   322 0001:00039E05   323 0001:00039E45
   324 0001:00039E8B   326 0001:00039ED1   327 0001:00039F17   328 0001:00039F5D
   317 0001:00039F60   330 0001:00039F69   332 0001:00039F84   333 0001:00039FA6
   332 0001:00039FC7   335 0001:00039FCC   336 0001:00039FD3   335 0001:0003A00E
   337 0001:0003A014   338 0001:0003A034   339 0001:0003A051   340 0001:0003A071
   341 0001:0003A091   342 0001:0003A0B3   345 0001:0003A0D5   346 0001:0003A0E2
   347 0001:0003A0F1   348 0001:0003A100   350 0001:0003A10D   351 0001:0003A117
   353 0001:0003A14B   355 0001:0003A180   361 0001:0003A1D0   362 0001:0003A1DF
   363 0001:0003A1F1   364 0001:0003A1F7   365 0001:0003A205   368 0001:0003A20C
   369 0001:0003A215   370 0001:0003A224   375 0001:0003A228   376 0001:0003A237
   377 0001:0003A23D   378 0001:0003A24C   381 0001:0003A25B   382 0001:0003A25C
   383 0001:0003A25F   384 0001:0003A262   386 0001:0003A263   389 0001:0003A27E
   390 0001:0003A28C   395 0001:0003A2CC   396 0001:0003A2F2   397 0001:0003A2F8
   398 0001:0003A30A   402 0001:0003A361   403 0001:0003A362   404 0001:0003A365
   405 0001:0003A368   407 0001:0003A369   410 0001:0003A39D   411 0001:0003A3E2
   416 0001:0003A428   417 0001:0003A44D   418 0001:0003A467   420 0001:0003A46D
   421 0001:0003A479   424 0001:0003A483   425 0001:0003A491   432 0001:0003A4E8
   433 0001:0003A4E9   434 0001:0003A4EC   435 0001:0003A4EF   437 0001:0003A4F0
   440 0001:0003A545   443 0001:0003A54F   446 0001:0003A555   447 0001:0003A595
   453 0001:0003A624   454 0001:0003A64A   456 0001:0003A665   457 0001:0003A676
   459 0001:0003A685   454 0001:0003A688   460 0001:0003A68E   462 0001:0003A694
   464 0001:0003A69A   465 0001:0003A6A6   466 0001:0003A6B0   468 0001:0003A6B2
   470 0001:0003A6B8   471 0001:0003A6C1   474 0001:0003A6C6   476 0001:0003A6E1
   477 0001:0003A6F2   479 0001:0003A6FD   474 0001:0003A700   480 0001:0003A706
   483 0001:0003A70C   484 0001:0003A70D   485 0001:0003A710   486 0001:0003A713
   488 0001:0003A714   491 0001:0003A751   492 0001:0003A77B   502 0001:0003A7A0
   503 0001:0003A7C6   504 0001:0003A7E1   506 0001:0003A7F7   507 0001:0003A813
   508 0001:0003A818   503 0001:0003A81B   509 0001:0003A821   511 0001:0003A827
   513 0001:0003A82D   514 0001:0003A839   516 0001:0003A83F   517 0001:0003A854
   520 0001:0003A856   522 0001:0003A85C   523 0001:0003A874   526 0001:0003A876
   529 0001:0003A87C   530 0001:0003A87D   531 0001:0003A880   532 0001:0003A883
   534 0001:0003A884   537 0001:0003A8C1   538 0001:0003A8EA   540 0001:0003A940
   540 0001:0003A947

Line numbers for CommandHandlerU(CommandHandlerU.pas) segment .text

    99 0001:0003AA20   100 0001:0003AA3B   101 0001:0003AA49   102 0001:0003AA57
   103 0001:0003AA65   104 0001:0003AA6E   105 0001:0003AA77   106 0001:0003AA80
   107 0001:0003AA89   108 0001:0003AA92   109 0001:0003AABC   116 0001:0003AAC4
   117 0001:0003AADC   118 0001:0003AAE6   119 0001:0003AAF8   120 0001:0003AB05
   121 0001:0003AB2A   124 0001:0003AB30   125 0001:0003AB41   126 0001:0003AB49
   127 0001:0003AB54   128 0001:0003AB70   131 0001:0003AB74   132 0001:0003AB7D
   133 0001:0003AB86   135 0001:0003AB96   136 0001:0003AB9E   139 0001:0003ABA4
   140 0001:0003ABB0   141 0001:0003ABB9   143 0001:0003ABCC   144 0001:0003ABD4
   148 0001:0003ABD8   149 0001:0003ABE1   150 0001:0003ABEA   151 0001:0003AC0E
   150 0001:0003AC24   152 0001:0003AC29   153 0001:0003AC34   174 0001:0003AC38
   175 0001:0003AC45   176 0001:0003AC5D   178 0001:0003AC70   179 0001:0003AC78
   189 0001:0003AC80   190 0001:0003ACA5   191 0001:0003ACB2   192 0001:0003ACC0
   194 0001:0003ACCA   196 0001:0003ACE6   205 0001:0003AD32   206 0001:0003AD40
   208 0001:0003AD60   209 0001:0003AD68   215 0001:0003AD74   216 0001:0003AD75
   217 0001:0003AD78   218 0001:0003AD7B   220 0001:0003AD7C   223 0001:0003ADC0
   239 0001:0003ADE4   240 0001:0003AE09   241 0001:0003AE16   243 0001:0003AE2E
   246 0001:0003AE62   247 0001:0003AE70   249 0001:0003AE90   250 0001:0003AE98
   256 0001:0003AEA4   257 0001:0003AEA5   258 0001:0003AEA8   259 0001:0003AEAB
   261 0001:0003AEAC   263 0001:0003AEF0   265 0001:0003AF48   265 0001:0003AF4F

Line numbers for DPLobbyWrapper(DPLobbyWrapper.pas) segment .text

    47 0001:0003AF50    63 0001:0003B194    64 0001:0003B1BB    65 0001:0003B1C9
    66 0001:0003B1E4    67 0001:0003B1F8    68 0001:0003B210    69 0001:0003B21A
    70 0001:0003B231    71 0001:0003B243    74 0001:0003B25E    76 0001:0003B27B
    78 0001:0003B2A5    80 0001:0003B2A8    81 0001:0003B2B0    82 0001:0003B2B8
    85 0001:0003B2F2    89 0001:0003B344    90 0001:0003B34D    91 0001:0003B35B
    92 0001:0003B382    93 0001:0003B396    95 0001:0003B3BB    97 0001:0003B3BE
    98 0001:0003B3C6   101 0001:0003B3D3   105 0001:0003B3F8   106 0001:0003B401
   107 0001:0003B40F   108 0001:0003B42E   109 0001:0003B442   111 0001:0003B467
   113 0001:0003B46A   114 0001:0003B472   117 0001:0003B47F   122 0001:0003B4A4
   123 0001:0003B4AD   124 0001:0003B4BB   125 0001:0003B4DA   126 0001:0003B4EE
   128 0001:0003B513   130 0001:0003B516   131 0001:0003B51E   134 0001:0003B52B
   139 0001:0003B554   140 0001:0003B55D   141 0001:0003B56B   142 0001:0003B586
   143 0001:0003B59A   145 0001:0003B5BF   147 0001:0003B5C2   148 0001:0003B5CA
   151 0001:0003B5D7   155 0001:0003B604   156 0001:0003B60D   157 0001:0003B61B
   158 0001:0003B636   159 0001:0003B64A   161 0001:0003B66F   163 0001:0003B672
   164 0001:0003B67A   167 0001:0003B687   172 0001:0003B6B4   173 0001:0003B6BD
   174 0001:0003B6CB   176 0001:0003B6EE   177 0001:0003B702   179 0001:0003B708
   180 0001:0003B720   181 0001:0003B73A   182 0001:0003B752   186 0001:0003B76E
   187 0001:0003B782   189 0001:0003B7A7   191 0001:0003B7AA   192 0001:0003B7B2
   195 0001:0003B7BF   199 0001:0003B87C   200 0001:0003B89A   201 0001:0003B8A8
   202 0001:0003B8C7   203 0001:0003B8DB   204 0001:0003B8F3   205 0001:0003B90D
   207 0001:0003B928   208 0001:0003B946   209 0001:0003B964   210 0001:0003B982
   211 0001:0003B9A0   212 0001:0003B9BE   213 0001:0003B9F1   214 0001:0003BA0F
   215 0001:0003BA2D   216 0001:0003BA4B   218 0001:0003BA69   219 0001:0003BA9C
   221 0001:0003BACF   222 0001:0003BAEA   223 0001:0003BB05   225 0001:0003BB20
   226 0001:0003BB38   228 0001:0003BB5D   230 0001:0003BB60   231 0001:0003BB68
   234 0001:0003BB97   238 0001:0003BFE8   239 0001:0003BFF1   240 0001:0003BFFF
   241 0001:0003C01E   242 0001:0003C032   244 0001:0003C038   245 0001:0003C050
   246 0001:0003C068   250 0001:0003C082   251 0001:0003C096   253 0001:0003C0BB
   255 0001:0003C0BE   256 0001:0003C0C6   259 0001:0003C0D3   263 0001:0003C160
   264 0001:0003C169   265 0001:0003C177   266 0001:0003C192   267 0001:0003C1A6
   269 0001:0003C1CB   271 0001:0003C1CE   272 0001:0003C1D6   275 0001:0003C1E3
   279 0001:0003C210   280 0001:0003C219   281 0001:0003C227   282 0001:0003C242
   283 0001:0003C256   285 0001:0003C27B   287 0001:0003C27E   288 0001:0003C286
   291 0001:0003C293   298 0001:0003C2C0   299 0001:0003C2C9   300 0001:0003C2D7
   301 0001:0003C2F6   302 0001:0003C30A   304 0001:0003C32F   306 0001:0003C332
   307 0001:0003C33A   310 0001:0003C347   315 0001:0003C378   316 0001:0003C3AC
   317 0001:0003C3BA   318 0001:0003C3C4   319 0001:0003C3D2   321 0001:0003C3EF
   322 0001:0003C403   324 0001:0003C428   326 0001:0003C42B   327 0001:0003C433
   330 0001:0003C475   332 0001:0003C4C4   332 0001:0003C4CB

Line numbers for Dplayx_exports(Dplayx_exports.pas) segment .text

   117 0001:0003C4CC   118 0001:0003C4D0   119 0001:0003C4EE   122 0001:0003C4F4
   133 0001:0003C4F8   135 0001:0003C501   136 0001:0003C50A   137 0001:0003C512
   138 0001:0003C51B   140 0001:0003C531   141 0001:0003C538   148 0001:0003C564
   149 0001:0003C56D   150 0001:0003C587   151 0001:0003C595   152 0001:0003C59E
   153 0001:0003C5B3   154 0001:0003C5BC   156 0001:0003C5CD   157 0001:0003C5E1
   159 0001:0003C606   161 0001:0003C609   162 0001:0003C611   165 0001:0003C61E
   171 0001:0003C65C   172 0001:0003C665   173 0001:0003C67F   174 0001:0003C68D
   175 0001:0003C696   176 0001:0003C6AB   177 0001:0003C6B4   179 0001:0003C6C5
   180 0001:0003C6D9   182 0001:0003C6FE   184 0001:0003C701   185 0001:0003C709
   188 0001:0003C716   195 0001:0003C75C   196 0001:0003C765   197 0001:0003C77F
   198 0001:0003C78D   199 0001:0003C796   200 0001:0003C7AB   201 0001:0003C7B4
   203 0001:0003C7C5   204 0001:0003C7D9   206 0001:0003C7FE   208 0001:0003C801
   209 0001:0003C809   212 0001:0003C816   220 0001:0003C85C   221 0001:0003C87F
   222 0001:0003C899   223 0001:0003C8A7   224 0001:0003C8B0   225 0001:0003C8C5
   226 0001:0003C8CE   227 0001:0003C8E3   229 0001:0003C8E9   230 0001:0003C8FD
   231 0001:0003C915   232 0001:0003C91F   233 0001:0003C942   237 0001:0003C953
   238 0001:0003C967   239 0001:0003C97F   240 0001:0003C9AC   243 0001:0003C9D1
   245 0001:0003C9D4   246 0001:0003C9DC   249 0001:0003CA1B   257 0001:0003CAC4
   258 0001:0003CAE3   259 0001:0003CAFD   260 0001:0003CB0B   261 0001:0003CB14
   262 0001:0003CB29   263 0001:0003CB32   265 0001:0003CB4F   266 0001:0003CB63
   268 0001:0003CB88   270 0001:0003CB8B   271 0001:0003CB93   274 0001:0003CBBD
   283 0001:0003CC04   284 0001:0003CC27   285 0001:0003CC41   286 0001:0003CC4F
   287 0001:0003CC58   288 0001:0003CC6D   289 0001:0003CC76   290 0001:0003CC93
   292 0001:0003CC99   293 0001:0003CCAD   294 0001:0003CCC5   298 0001:0003CCCF
   303 0001:0003CCF1   304 0001:0003CD05   305 0001:0003CD1D   306 0001:0003CD4A
   309 0001:0003CD6F   311 0001:0003CD72   312 0001:0003CD7A   315 0001:0003CDB9
   326 0001:0003CE58   327 0001:0003CE61   328 0001:0003CE71   329 0001:0003CE7F
   331 0001:0003CE84   332 0001:0003CE98   334 0001:0003CEBD   336 0001:0003CEC0
   337 0001:0003CEC8   340 0001:0003CED5   343 0001:0003CEF8   344 0001:0003CF01
   345 0001:0003CF11   346 0001:0003CF1F   348 0001:0003CF24   349 0001:0003CF38
   351 0001:0003CF5D   353 0001:0003CF60   354 0001:0003CF68   357 0001:0003CF75
   363 0001:0003CF9C   365 0001:0003CF9F   367 0001:0003CFA6   368 0001:0003CFBF
   401 0001:0003CFE0   401 0001:0003D00C   370 0001:0003D010   392 0001:0003D01C
   393 0001:0003D025   394 0001:0003D02F   395 0001:0003D038   397 0001:0003D042

Line numbers for PauseLock(plugins\PauseLock.pas) segment .text

    39 0001:0003D044    43 0001:0003D048    46 0001:0003D04C    47 0001:0003D050
    50 0001:0003D062    55 0001:0003D08A    67 0001:0003D0A7    68 0001:0003D0AF
    82 0001:0003D0EC    83 0001:0003D0F1    84 0001:0003D0F4    86 0001:0003D0F6
    89 0001:0003D0FC    90 0001:0003D101    94 0001:0003D106    95 0001:0003D10B
    96 0001:0003D110    98 0001:0003D144    98 0001:0003D14B

Line numbers for MultiAILimit(plugins\MultiAILimit.pas) segment .text

    32 0001:0003D14C    36 0001:0003D150    64 0001:0003D168    65 0001:0003D16E
    66 0001:0003D175    67 0001:0003D1DF    68 0001:0003D1E9    72 0001:0003D1F0
    74 0001:0003D1F7    75 0001:0003D1F8    76 0001:0003D1F9    78 0001:0003D1FA
    81 0001:0003D1FF    82 0001:0003D204    83 0001:0003D209    87 0001:0003D20C
    88 0001:0003D210    90 0001:0003D222    94 0001:0003D24A    95 0001:0003D264
    99 0001:0003D285   100 0001:0003D28D   102 0001:0003D31C   102 0001:0003D323

Line numbers for Plugins(Plugins.pas) segment .text

    30 0001:0003D324    32 0001:0003D32B    34 0001:0003D331    35 0001:0003D33B
    37 0001:0003D345    38 0001:0003D34F    39 0001:0003D359    40 0001:0003D363
    42 0001:0003D36D    43 0001:0003D377    44 0001:0003D381    49 0001:0003D38B
    50 0001:0003D393    53 0001:0003D398    54 0001:0003D39B    55 0001:0003D3A0
    57 0001:0003D3D4    57 0001:0003D3DB

Line numbers for InitCode(InitCode.pas) segment .text

    87 0001:0003D3DC    88 0001:0003D3E0    89 0001:0003D3E7    90 0001:0003D3F1
    91 0001:0003D403    93 0001:0003D40D    94 0001:0003D424    95 0001:0003D42D
    97 0001:0003D43D   103 0001:0003D470   107 0001:0003D494   108 0001:0003D4A2
   110 0001:0003D4AC   114 0001:0003D4B1   118 0001:0003D4BC   119 0001:0003D4C7
   121 0001:0003D4D0   122 0001:0003D4ED   124 0001:0003D525   125 0001:0003D52F
   127 0001:0003D55F   128 0001:0003D569   129 0001:0003D589   130 0001:0003D5B0
   131 0001:0003D5B9   132 0001:0003D5CA   133 0001:0003D5D3   134 0001:0003D5E4
   135 0001:0003D5ED   137 0001:0003D603   138 0001:0003D62A   139 0001:0003D634
   140 0001:0003D662   144 0001:0003D691   150 0001:0003D69A   155 0001:0003D6C5
   164 0001:0003D6CA   166 0001:0003D6ED   168 0001:0003D6F0   169 0001:0003D6F8
   172 0001:0003D724   175 0001:0003D8A4   176 0001:0003D8A7   177 0001:0003D8AC
   179 0001:0003D8B1   181 0001:0003D8BA   182 0001:0003D8C7   185 0001:0003D8D0
   187 0001:0003D8DA   189 0001:0003D90C   190 0001:0003D918   191 0001:0003D925
   192 0001:0003D932

Line numbers for InitCode_CoreExePatching(InitCode_CoreExePatching.pas) segment .text

    50 0001:0003D934    51 0001:0003D93C    53 0001:0003D942    54 0001:0003D94C
    56 0001:0003D956    71 0001:0003D95C    72 0001:0003D963    73 0001:0003D96D
    74 0001:0003D977    75 0001:0003D985    77 0001:0003D9AC    79 0001:0003D9AF
    80 0001:0003D9B7    81 0001:0003D9C9    84 0001:0003D9D3    88 0001:0003D9DC
    90 0001:0003D9E1    91 0001:0003D9E6    92 0001:0003D9E7    94 0001:0003DA18
    95 0001:0003DA24    96 0001:0003DA31   100 0001:0003DA3E   101 0001:0003DA48
   102 0001:0003DA52   104 0001:0003DA5C   105 0001:0003DA66

Line numbers for threadlogging(threadlogging.pas) segment .text

   145 0001:0003DA98   145 0001:0003DA9F

Line numbers for dplayx(F:\TA\TADR\SVN\trunk\src\Recorder\Dplayx.dpr) segment .text

    55 0001:0003DD00    56 0001:0003DD10

Bound resource files

dplayx.res
dplayx.drf


Program entry point at 0001:0003DD00
